 CryGame

 Timestamp is 62e94205 (Tue Aug 02 20:25:57 2022)

 Preferred load address is 33000000

 Start         Length     Name                   Class
 0001:00000000 000cef3eH .text                   CODE
 0001:000cef3e 00006e4eH .text$x                 CODE
 0001:000d5d8c 00000342H .text$yc                CODE
 0001:000d60ce 00000123H .text$yd                CODE
 0002:00000000 00000284H .idata$5                DATA
 0002:00000290 00016f80H .rdata                  DATA
 0002:00017210 00000043H .rdata$debug            DATA
 0002:00017254 00000044H .rdata$r                DATA
 0002:000172a0 00000c90H .rdata$sxdata           DATA
 0002:00017f30 00000004H .rtc$IAA                DATA
 0002:00017f34 00000004H .rtc$IZZ                DATA
 0002:00017f38 00000004H .rtc$TAA                DATA
 0002:00017f3c 00000004H .rtc$TZZ                DATA
 0002:00017f40 0000b090H .xdata$x                DATA
 0002:00022fd0 000000c8H .idata$2                DATA
 0002:00023098 00000014H .idata$3                DATA
 0002:000230ac 00000284H .idata$4                DATA
 0002:00023330 00000afaH .idata$6                DATA
 0002:00023e30 00000072H .edata                  DATA
 0003:00000000 00000004H .CRT$XCA                DATA
 0003:00000004 00000074H .CRT$XCU                DATA
 0003:00000078 00000004H .CRT$XCZ                DATA
 0003:0000007c 00000004H .CRT$XIA                DATA
 0003:00000080 00000004H .CRT$XIZ                DATA
 0003:00000090 000005c4H .data                   DATA
 0003:00000658 00014f50H .bss                    DATA

  Address         Publics by Value              Rva+Base     Lib:Object

 0000:00000000       __except_list              00000000     <absolute>
 0000:00000324       ___safe_se_handler_count   00000324     <absolute>
 0000:00009876       __ldused                   00009876     <absolute>
 0000:00009876       __fltused                  00009876     <absolute>
 0001:00000000       _DllMain@12                33001000 f   CryGame.obj
 0001:00000006       _CryModuleMalloc           33001006 f   CryGame.obj
 0001:00000026       _CryModuleRealloc          33001026 f   CryGame.obj
 0001:00000076       _CryModuleFree             33001076 f   CryGame.obj
 0001:00000097       _CryModuleReallocSize      33001097 f   CryGame.obj
 0001:000000cf       _CryModuleFreeSize         330010cf f   CryGame.obj
 0001:000000ee       _CryModuleGetMemoryInfo    330010ee f   CryGame.obj
 0001:000000fd       ??0_CryMemoryManagerPoolHelper@@QAE@PAX@Z 330010fd f i CryGame.obj
 0001:000001c9       ?GetMemoryInfo@_CryMemoryManagerPoolHelper@@QAEXPAUCryModuleMemoryInfo@@@Z 330011c9 f i CryGame.obj
 0001:000001ec       ??_H@YGXPAXIHP6EPAX0@Z@Z   330011ec f i StdAfx.obj
 0001:0000020e       ?SetPos@CIngameDialog@@AAEXMM@Z 3300120e f   IngameDialog.obj
 0001:0000021f       ?Update@CIngameDialog@@AAE_NXZ 3300121f f   IngameDialog.obj
 0001:000002dc       ?RemoveDialog@CIngameDialogMgr@@QAEXH@Z 330012dc f   IngameDialog.obj
 0001:00000326       ?Update@CIngameDialogMgr@@QAEXXZ 33001326 f   IngameDialog.obj
 0001:000003f0       ??1CIngameDialogMgr@@QAE@XZ 330013f0 f   IngameDialog.obj
 0001:00000472       ??1CIngameDialog@@EAE@XZ   33001472 f   IngameDialog.obj
 0001:00000494       ??0CIngameDialogMgr@@QAE@XZ 33001494 f   IngameDialog.obj
 0001:000004b8       ??0CIngameDialog@@AAE@XZ   330014b8 f   IngameDialog.obj
 0001:00000535       ?Init@CIngameDialog@@AAE_NPAVCIngameDialogMgr@@HPAUISystem@@HPBD2HV?$basic_string@DU?$char_traits@D@std@@V?$allocator@D@_STL@@@_STL@@V?$basic_string@GU?$char_traits@G@std@@V?$allocator@G@_STL@@@5@M@Z 33001535 f   IngameDialog.obj
 0001:00000729       ?AddDialog@CIngameDialogMgr@@QAEHPAUISystem@@HPBD1HV?$basic_string@DU?$char_traits@D@std@@V?$allocator@D@_STL@@@_STL@@V?$basic_string@GU?$char_traits@G@std@@V?$allocator@G@_STL@@@4@M@Z 33001729 f   IngameDialog.obj
 0001:00000900       ??1logic_error@_STL@@UAE@XZ 33001900 f i IngameDialog.obj
 0001:00000900       ??1__Named_exception@_STL@@UAE@XZ 33001900 f i IngameDialog.obj
 0001:00000900       ??1out_of_range@_STL@@UAE@XZ 33001900 f i UIEditBox.obj
 0001:00000900       ??1length_error@_STL@@UAE@XZ 33001900 f i IngameDialog.obj
 0001:00000906       ?erase@?$basic_string@GU?$char_traits@G@std@@V?$allocator@G@_STL@@@_STL@@QAEPAGPAG0@Z 33001906 f i IngameDialog.obj
 0001:0000093e       ?_S_chunk_alloc@?$__node_alloc@$0A@$0A@@_STL@@CAPADIAAH@Z 3300193e f i IngameDialog.obj
 0001:00000a2f       ?__copy_trivial@_STL@@YAPAXPBX0PAX@Z 33001a2f f i IngameDialog.obj
 0001:00000a58       ??3@YAXPAX0@Z              33001a58 f i UIListView.obj
 0001:00000a58       ?Release@CFlock@@UAEXXZ    33001a58 f i BugsFlock.obj
 0001:00000a58       ?Reset@CXVehicleProxy@@UAEXXZ 33001a58 f i XVehicleProxy.obj
 0001:00000a58       ??1?$_STLP_alloc_proxy@PADDV?$allocator@D@_STL@@@_STL@@QAE@XZ 33001a58 f i IngameDialog.obj
 0001:00000a59       ?erase@?$basic_string@DU?$char_traits@D@std@@V?$allocator@D@_STL@@@_STL@@QAEPADPAD0@Z 33001a59 f i IngameDialog.obj
 0001:00000a8b       ?_M_deallocate@?$__node_alloc@$0A@$0A@@_STL@@CAXPAXI@Z 33001a8b f i IngameDialog.obj
 0001:00000aa5       ??0__Named_exception@_STL@@QAE@ABV?$basic_string@DU?$char_traits@D@std@@V?$allocator@D@_STL@@@1@@Z 33001aa5 f i IngameDialog.obj
 0001:00000ad9       ?what@__Named_exception@_STL@@UBEPBDXZ 33001ad9 f i IngameDialog.obj
 0001:00000add       ??_G__Named_exception@_STL@@UAEPAXI@Z 33001add f i IngameDialog.obj
 0001:00000add       ??_E__Named_exception@_STL@@UAEPAXI@Z 33001add f i IngameDialog.obj
 0001:00000add       ??_Gout_of_range@_STL@@UAEPAXI@Z 33001add f i UIEditBox.obj
 0001:00000add       ??_Elogic_error@_STL@@UAEPAXI@Z 33001add f i IngameDialog.obj
 0001:00000add       ??_Eout_of_range@_STL@@UAEPAXI@Z 33001add f i UIEditBox.obj
 0001:00000add       ??_Glength_error@_STL@@UAEPAXI@Z 33001add f i IngameDialog.obj
 0001:00000add       ??_Glogic_error@_STL@@UAEPAXI@Z 33001add f i IngameDialog.obj
 0001:00000add       ??_Elength_error@_STL@@UAEPAXI@Z 33001add f i IngameDialog.obj
 0001:00000af9       ??0logic_error@_STL@@QAE@ABV?$basic_string@DU?$char_traits@D@std@@V?$allocator@D@_STL@@@1@@Z 33001af9 f i IngameDialog.obj
 0001:00000b11       ?_S_refill@?$__node_alloc@$0A@$0A@@_STL@@CAPAXI@Z 33001b11 f i IngameDialog.obj
 0001:00000b6e       ?deallocate@?$__node_alloc@$0A@$0A@@_STL@@SAXPAXI@Z 33001b6e f i IngameDialog.obj
 0001:00000b88       ?deallocate@?$allocator@G@_STL@@QAEXPAGI@Z 33001b88 f i IngameDialog.obj
 0001:00000ba4       ?_M_allocate@?$__node_alloc@$0A@$0A@@_STL@@CAPAXI@Z 33001ba4 f i IngameDialog.obj
 0001:00000bc8       ?deallocate@?$allocator@D@_STL@@QAEXPADI@Z 33001bc8 f i IngameDialog.obj
 0001:00000be1       ?allocate@?$__node_alloc@$0A@$0A@@_STL@@SAPAXI@Z 33001be1 f i IngameDialog.obj
 0001:00000bfb       ??1?$_List_base@PAUSIGDId@@V?$allocator@PAUSIGDId@@@_STL@@@_STL@@QAE@XZ 33001bfb f i IngameDialog.obj
 0001:00000bfb       ??1?$_List_base@USDirtyItem@CSynched2DTable@@V?$allocator@USDirtyItem@CSynched2DTable@@@_STL@@@_STL@@QAE@XZ 33001bfb f i Synched2DTable.obj
 0001:00000bfb       ??1?$_List_base@PAVCPlayer@@V?$allocator@PAVCPlayer@@@_STL@@@_STL@@QAE@XZ 33001bfb f i Game.obj
 0001:00000bfb       ??1?$_List_base@HV?$allocator@H@_STL@@@_STL@@QAE@XZ 33001bfb f i XVehicle.obj
 0001:00000c10       ??1UIListColumn@@QAE@XZ    33001c10 f i UIListView.obj
 0001:00000c10       ??1?$_String_base@GV?$allocator@G@_STL@@@_STL@@QAE@XZ 33001c10 f i IngameDialog.obj
 0001:00000c10       ??1UIComboItem@@QAE@XZ     33001c10 f i UIComboBox.obj
 0001:00000c10       ??1?$basic_string@GU?$char_traits@G@std@@V?$allocator@G@_STL@@@_STL@@QAE@XZ 33001c10 f i IngameDialog.obj
 0001:00000c10       ??1UIListSubItem@@QAE@XZ   33001c10 f i UIListView.obj
 0001:00000c15       ??0?$_List_base@HV?$allocator@H@_STL@@@_STL@@QAE@ABV?$allocator@H@1@@Z 33001c15 f i XVehicle.obj
 0001:00000c15       ??0?$_List_base@USDirtyItem@CSynched2DTable@@V?$allocator@USDirtyItem@CSynched2DTable@@@_STL@@@_STL@@QAE@ABV?$allocator@USDirtyItem@CSynched2DTable@@@1@@Z 33001c15 f i Synched2DTable.obj
 0001:00000c15       ??0?$_List_base@PAVCPlayer@@V?$allocator@PAVCPlayer@@@_STL@@@_STL@@QAE@ABV?$allocator@PAVCPlayer@@@1@@Z 33001c15 f i Game.obj
 0001:00000c15       ??0?$_List_base@PAUSIGDId@@V?$allocator@PAUSIGDId@@@_STL@@@_STL@@QAE@ABV?$allocator@PAUSIGDId@@@1@@Z 33001c15 f i IngameDialog.obj
 0001:00000c3b       ??0?$basic_string@GU?$char_traits@G@std@@V?$allocator@G@_STL@@@_STL@@QAE@XZ 33001c3b f i IngameDialog.obj
 0001:00000c80       ?_M_allocate_block@?$_String_base@DV?$allocator@D@_STL@@@_STL@@QAEXI@Z 33001c80 f i IngameDialog.obj
 0001:00000cb3       ??0?$basic_string@DU?$char_traits@D@std@@V?$allocator@D@_STL@@@_STL@@QAE@XZ 33001cb3 f i IngameDialog.obj
 0001:00000cf7       ??$_M_range_initialize@PBD@?$basic_string@DU?$char_traits@D@std@@V?$allocator@D@_STL@@@_STL@@AAEXPBD0ABUforward_iterator_tag@1@@Z 33001cf7 f i IngameDialog.obj
 0001:00000cf7       ??$_M_range_initialize@PAD@?$basic_string@DU?$char_traits@D@std@@V?$allocator@D@_STL@@@_STL@@AAEXPAD0ABUforward_iterator_tag@1@@Z 33001cf7 f i IngameDialog.obj
 0001:00000d25       ?push_back@?$list@PAUSIGDId@@V?$allocator@PAUSIGDId@@@_STL@@@_STL@@QAEXABQAUSIGDId@@@Z 33001d25 f i IngameDialog.obj
 0001:00000d25       ?push_back@?$list@HV?$allocator@H@_STL@@@_STL@@QAEXABH@Z 33001d25 f i XVehicle.obj
 0001:00000d25       ?push_back@?$list@PAVCPlayer@@V?$allocator@PAVCPlayer@@@_STL@@@_STL@@QAEXABQAVCPlayer@@@Z 33001d25 f i XPlayer.obj
 0001:00000d3f       ??0?$basic_string@DU?$char_traits@D@std@@V?$allocator@D@_STL@@@_STL@@QAE@PBDABV?$allocator@D@1@@Z 33001d3f f i IngameDialog.obj
 0001:00000d89       ??_GCIngameDialog@@EAEPAXI@Z 33001d89 f i IngameDialog.obj
 0001:00000d89       ??_ECIngameDialog@@EAEPAXI@Z 33001d89 f i IngameDialog.obj
 0001:00000da5       ??0?$basic_string@DU?$char_traits@D@std@@V?$allocator@D@_STL@@@_STL@@QAE@ABV01@@Z 33001da5 f i IngameDialog.obj
 0001:00000df3       ?__stl_throw_length_error@_STL@@YAXPBD@Z 33001df3 f i IngameDialog.obj
 0001:00000e34       ??0__Named_exception@_STL@@QAE@ABV01@@Z 33001e34 f i IngameDialog.obj
 0001:00000e5d       ??0logic_error@_STL@@QAE@ABV01@@Z 33001e5d f i IngameDialog.obj
 0001:00000e75       ??$append@PAD@?$basic_string@DU?$char_traits@D@std@@V?$allocator@D@_STL@@@_STL@@AAEAAV01@PAD0ABUforward_iterator_tag@1@@Z 33001e75 f i IngameDialog.obj
 0001:00000e75       ??$append@PBD@?$basic_string@DU?$char_traits@D@std@@V?$allocator@D@_STL@@@_STL@@AAEAAV01@PBD0ABUforward_iterator_tag@1@@Z 33001e75 f i IngameDialog.obj
 0001:00000f58       ?_M_allocate_block@?$_String_base@GV?$allocator@G@_STL@@@_STL@@QAEXI@Z 33001f58 f i IngameDialog.obj
 0001:00000f8f       ??$_M_assign_dispatch@PAD@?$basic_string@DU?$char_traits@D@std@@V?$allocator@D@_STL@@@_STL@@AAEAAV01@PAD0ABU__false_type@1@@Z 33001f8f f i IngameDialog.obj
 0001:00000fe1       ??$_M_assign_dispatch@PAG@?$basic_string@GU?$char_traits@G@std@@V?$allocator@G@_STL@@@_STL@@AAEAAV01@PAG0ABU__false_type@1@@Z 33001fe1 f i IngameDialog.obj
 0001:00001035       ?assign@?$basic_string@DU?$char_traits@D@std@@V?$allocator@D@_STL@@@_STL@@QAEAAV12@PBD0@Z 33002035 f i IngameDialog.obj
 0001:00001098       ??0?$basic_string@GU?$char_traits@G@std@@V?$allocator@G@_STL@@@_STL@@QAE@ABV01@@Z 33002098 f i IngameDialog.obj
 0001:000010e6       ??4?$basic_string@DU?$char_traits@D@std@@V?$allocator@D@_STL@@@_STL@@QAEAAV01@ABV01@@Z 330020e6 f i IngameDialog.obj
 0001:0000110a       ??4?$basic_string@DU?$char_traits@D@std@@V?$allocator@D@_STL@@@_STL@@QAEAAV01@PBD@Z 3300210a f i IngameDialog.obj
 0001:0000112a       ??4?$basic_string@GU?$char_traits@G@std@@V?$allocator@G@_STL@@@_STL@@QAEAAV01@ABV01@@Z 3300212a f i IngameDialog.obj
 0001:0000114e       ?GetScriptFunctionPtrs@CScriptObjectUI@@QAEHXZ 3300214e f   ScriptObjectUI.obj
 0001:000011f6       ?ReleaseScriptFunctionPtrs@CScriptObjectUI@@QAEHXZ 330021f6 f   ScriptObjectUI.obj
 0001:00001280       ?InitializeConstants@CScriptObjectUI@@SAXPAUIScriptSystem@@@Z 33002280 f   ScriptObjectUI.obj
 0001:000014c3       ?Release@CScriptObjectUI@@QAEHXZ 330024c3 f   ScriptObjectUI.obj
 0001:000014db       ?Release@CScriptObjectUI@@QAEHPAUIFunctionHandler@@@Z 330024db f   ScriptObjectUI.obj
 0001:000014ec       ?Reload@CScriptObjectUI@@QAEHPAUIFunctionHandler@@@Z 330024ec f   ScriptObjectUI.obj
 0001:00001630       ?GetWidgetCount@CScriptObjectUI@@QAEHPAUIFunctionHandler@@@Z 33002630 f   ScriptObjectUI.obj
 0001:0000168d       ?BroadcastMessage@CScriptObjectUI@@QAEHPAUIFunctionHandler@@@Z 3300268d f   ScriptObjectUI.obj
 0001:000018ff       ?GetBackground@CScriptObjectUI@@QAEHPAUIFunctionHandler@@@Z 330028ff f   ScriptObjectUI.obj
 0001:00001968       ?ShowBackground@CScriptObjectUI@@QAEHPAUIFunctionHandler@@@Z 33002968 f   ScriptObjectUI.obj
 0001:000019c4       ?HideBackground@CScriptObjectUI@@QAEHPAUIFunctionHandler@@@Z 330029c4 f   ScriptObjectUI.obj
 0001:00001a20       ?IsBackgroundVisible@CScriptObjectUI@@QAEHPAUIFunctionHandler@@@Z 33002a20 f   ScriptObjectUI.obj
 0001:00001a72       ?SetMouseXY@CScriptObjectUI@@QAEHPAUIFunctionHandler@@@Z 33002a72 f   ScriptObjectUI.obj
 0001:00001c54       ?GetMouseXY@CScriptObjectUI@@QAEHPAUIFunctionHandler@@@Z 33002c54 f   ScriptObjectUI.obj
 0001:00001cc8       ?GetMouseCursor@CScriptObjectUI@@QAEHPAUIFunctionHandler@@@Z 33002cc8 f   ScriptObjectUI.obj
 0001:00001d31       ?SetMouseCursorSize@CScriptObjectUI@@QAEHPAUIFunctionHandler@@@Z 33002d31 f   ScriptObjectUI.obj
 0001:00001f02       ?GetMouseCursorWidth@CScriptObjectUI@@QAEHPAUIFunctionHandler@@@Z 33002f02 f   ScriptObjectUI.obj
 0001:00001f6e       ?GetMouseCursorHeight@CScriptObjectUI@@QAEHPAUIFunctionHandler@@@Z 33002f6e f   ScriptObjectUI.obj
 0001:00001fda       ?ShowMouseCursor@CScriptObjectUI@@QAEHPAUIFunctionHandler@@@Z 33002fda f   ScriptObjectUI.obj
 0001:00002036       ?HideMouseCursor@CScriptObjectUI@@QAEHPAUIFunctionHandler@@@Z 33003036 f   ScriptObjectUI.obj
 0001:00002092       ?IsMouseCursorVisible@CScriptObjectUI@@QAEHPAUIFunctionHandler@@@Z 33003092 f   ScriptObjectUI.obj
 0001:000020ef       ?ReleaseMouse@CScriptObjectUI@@QAEHPAUIFunctionHandler@@@Z 330030ef f   ScriptObjectUI.obj
 0001:00002103       ?ExtractLeft@CScriptObjectUI@@QAEHPAUIFunctionHandler@@@Z 33003103 f   ScriptObjectUI.obj
 0001:00002245       ?ExtractTop@CScriptObjectUI@@QAEHPAUIFunctionHandler@@@Z 33003245 f   ScriptObjectUI.obj
 0001:00002387       ?ExtractWidth@CScriptObjectUI@@QAEHPAUIFunctionHandler@@@Z 33003387 f   ScriptObjectUI.obj
 0001:000024c9       ?ExtractHeight@CScriptObjectUI@@QAEHPAUIFunctionHandler@@@Z 330034c9 f   ScriptObjectUI.obj
 0001:0000260b       ?GetMouseX@CScriptObjectUI@@QAEHPAUIFunctionHandler@@@Z 3300360b f   ScriptObjectUI.obj
 0001:00002677       ?GetMouseY@CScriptObjectUI@@QAEHPAUIFunctionHandler@@@Z 33003677 f   ScriptObjectUI.obj
 0001:000026e3       ?GetTopMostWidget@CScriptObjectUI@@QAEHPAUIFunctionHandler@@@Z 330036e3 f   ScriptObjectUI.obj
 0001:00002749       ?GetFocus@CScriptObjectUI@@QAEHPAUIFunctionHandler@@@Z 33003749 f   ScriptObjectUI.obj
 0001:000027b5       ?FirstTabStop@CScriptObjectUI@@QAEHPAUIFunctionHandler@@@Z 330037b5 f   ScriptObjectUI.obj
 0001:00002811       ?LastTabStop@CScriptObjectUI@@QAEHPAUIFunctionHandler@@@Z 33003811 f   ScriptObjectUI.obj
 0001:0000286d       ?NextTabStop@CScriptObjectUI@@QAEHPAUIFunctionHandler@@@Z 3300386d f   ScriptObjectUI.obj
 0001:000028c9       ?PrevTabStop@CScriptObjectUI@@QAEHPAUIFunctionHandler@@@Z 330038c9 f   ScriptObjectUI.obj
 0001:00002925       ?GetScreenCount@CScriptObjectUI@@QAEHPAUIFunctionHandler@@@Z 33003925 f   ScriptObjectUI.obj
 0001:00002982       ?GetActiveScreenCount@CScriptObjectUI@@QAEHPAUIFunctionHandler@@@Z 33003982 f   ScriptObjectUI.obj
 0001:000029df       ?DeactivateAllScreens@CScriptObjectUI@@QAEHPAUIFunctionHandler@@@Z 330039df f   ScriptObjectUI.obj
 0001:00002a3b       ?ActivateAllScreens@CScriptObjectUI@@QAEHPAUIFunctionHandler@@@Z 33003a3b f   ScriptObjectUI.obj
 0001:00002a97       ?Enable@CScriptObjectUI@@QAEHPAUIFunctionHandler@@@Z 33003a97 f   ScriptObjectUI.obj
 0001:00002aab       ?Disable@CScriptObjectUI@@QAEHPAUIFunctionHandler@@@Z 33003aab f   ScriptObjectUI.obj
 0001:00002abf       ?IsEnabled@CScriptObjectUI@@QAEHPAUIFunctionHandler@@@Z 33003abf f   ScriptObjectUI.obj
 0001:00002ada       ?StopAllVideo@CScriptObjectUI@@QAEHPAUIFunctionHandler@@@Z 33003ada f   ScriptObjectUI.obj
 0001:00002aee       ?GetToolTipColor@CScriptObjectUI@@QAEHPAUIFunctionHandler@@@Z 33003aee f   ScriptObjectUI.obj
 0001:00002b60       ?GetToolTipBorderColor@CScriptObjectUI@@QAEHPAUIFunctionHandler@@@Z 33003b60 f   ScriptObjectUI.obj
 0001:00002bd2       ?SetToolTipBorderSize@CScriptObjectUI@@QAEHPAUIFunctionHandler@@@Z 33003bd2 f   ScriptObjectUI.obj
 0001:00002cee       ?GetToolTipBorderSize@CScriptObjectUI@@QAEHPAUIFunctionHandler@@@Z 33003cee f   ScriptObjectUI.obj
 0001:00002d50       ?SetToolTipBorderStyle@CScriptObjectUI@@QAEHPAUIFunctionHandler@@@Z 33003d50 f   ScriptObjectUI.obj
 0001:00002e6c       ?GetToolTipBorderStyle@CScriptObjectUI@@QAEHPAUIFunctionHandler@@@Z 33003e6c f   ScriptObjectUI.obj
 0001:00002eca       ?GetToolTipFontColor@CScriptObjectUI@@QAEHPAUIFunctionHandler@@@Z 33003eca f   ScriptObjectUI.obj
 0001:00002f3c       ?SetToolTipFontSize@CScriptObjectUI@@QAEHPAUIFunctionHandler@@@Z 33003f3c f   ScriptObjectUI.obj
 0001:00003058       ?GetToolTipFontSize@CScriptObjectUI@@QAEHPAUIFunctionHandler@@@Z 33004058 f   ScriptObjectUI.obj
 0001:000030ba       ?OnSwitch@CScriptObjectUI@@QAEH_N@Z 330040ba f   ScriptObjectUI.obj
 0001:00003105       ?CanRenderGame@CScriptObjectUI@@QAEHXZ 33004105 f   ScriptObjectUI.obj
 0001:00003145       ?CanSwitch@CScriptObjectUI@@QAEH_N@Z 33004145 f   ScriptObjectUI.obj
 0001:00003192       ?OnInit@CScriptObjectUI@@QAEHXZ 33004192 f   ScriptObjectUI.obj
 0001:000031d5       ?OnRelease@CScriptObjectUI@@QAEHXZ 330041d5 f   ScriptObjectUI.obj
 0001:00003221       ?OnUpdate@CScriptObjectUI@@QAEHXZ 33004221 f   ScriptObjectUI.obj
 0001:0000325f       ?OnDrawBackground@CScriptObjectUI@@QAEHXZ 3300425f f   ScriptObjectUI.obj
 0001:0000329d       ?OnDrawMouseCursor@CScriptObjectUI@@QAEHXZ 3300429d f   ScriptObjectUI.obj
 0001:000032db       ?OnIdle@CScriptObjectUI@@QAEHM@Z 330042db f   ScriptObjectUI.obj
 0001:0000332a       ?SetBackground@CScriptObjectUI@@QAEHPAUIFunctionHandler@@@Z 3300432a f   ScriptObjectUI.obj
 0001:00003458       ?SetBackgroundColor@CScriptObjectUI@@QAEHPAUIFunctionHandler@@@Z 33004458 f   ScriptObjectUI.obj
 0001:00003623       ?GetBackgroundColor@CScriptObjectUI@@QAEHPAUIFunctionHandler@@@Z 33004623 f   ScriptObjectUI.obj
 0001:0000369d       ?SetMouseCursor@CScriptObjectUI@@QAEHPAUIFunctionHandler@@@Z 3300469d f   ScriptObjectUI.obj
 0001:000037cb       ?SetMouseCursorColor@CScriptObjectUI@@QAEHPAUIFunctionHandler@@@Z 330047cb f   ScriptObjectUI.obj
 0001:0000399a       ?GetMouseCursorColor@CScriptObjectUI@@QAEHPAUIFunctionHandler@@@Z 3300499a f   ScriptObjectUI.obj
 0001:000039d0       ?SetGreyedColor@CScriptObjectUI@@QAEHPAUIFunctionHandler@@@Z 330049d0 f   ScriptObjectUI.obj
 0001:00003bab       ?GetGreyedColor@CScriptObjectUI@@QAEHPAUIFunctionHandler@@@Z 33004bab f   ScriptObjectUI.obj
 0001:00003c25       ?ExtractRed@CScriptObjectUI@@QAEHPAUIFunctionHandler@@@Z 33004c25 f   ScriptObjectUI.obj
 0001:00003d60       ?ExtractGreen@CScriptObjectUI@@QAEHPAUIFunctionHandler@@@Z 33004d60 f   ScriptObjectUI.obj
 0001:00003e9b       ?ExtractBlue@CScriptObjectUI@@QAEHPAUIFunctionHandler@@@Z 33004e9b f   ScriptObjectUI.obj
 0001:00003fd6       ?ExtractAlpha@CScriptObjectUI@@QAEHPAUIFunctionHandler@@@Z 33004fd6 f   ScriptObjectUI.obj
 0001:00004111       ?GetFocusScreen@CScriptObjectUI@@QAEHPAUIFunctionHandler@@@Z 33005111 f   ScriptObjectUI.obj
 0001:00004171       ?SetToolTipColor@CScriptObjectUI@@QAEHPAUIFunctionHandler@@@Z 33005171 f   ScriptObjectUI.obj
 0001:00004352       ?SetToolTipBorderColor@CScriptObjectUI@@QAEHPAUIFunctionHandler@@@Z 33005352 f   ScriptObjectUI.obj
 0001:00004533       ?GetToolTipFontName@CScriptObjectUI@@QAEHPAUIFunctionHandler@@@Z 33005533 f   ScriptObjectUI.obj
 0001:0000458d       ?GetToolTipFontEffect@CScriptObjectUI@@QAEHPAUIFunctionHandler@@@Z 3300558d f   ScriptObjectUI.obj
 0001:000045e7       ?SetToolTipFontColor@CScriptObjectUI@@QAEHPAUIFunctionHandler@@@Z 330055e7 f   ScriptObjectUI.obj
 0001:000047c8       ?Create@CScriptObjectUI@@QAEHPAVCUISystem@@@Z 330057c8 f   ScriptObjectUI.obj
 0001:00004808       ?GetWidget@CScriptObjectUI@@QAEHPAUIFunctionHandler@@@Z 33005808 f   ScriptObjectUI.obj
 0001:00004b7b       ?ShowWidget@CScriptObjectUI@@QAEHPAUIFunctionHandler@@@Z 33005b7b f   ScriptObjectUI.obj
 0001:00004f64       ?HideWidget@CScriptObjectUI@@QAEHPAUIFunctionHandler@@@Z 33005f64 f   ScriptObjectUI.obj
 0001:0000534d       ?IsWidgetVisible@CScriptObjectUI@@QAEHPAUIFunctionHandler@@@Z 3300634d f   ScriptObjectUI.obj
 0001:0000574f       ?EnableWidget@CScriptObjectUI@@QAEHPAUIFunctionHandler@@@Z 3300674f f   ScriptObjectUI.obj
 0001:00005b38       ?DisableWidget@CScriptObjectUI@@QAEHPAUIFunctionHandler@@@Z 33006b38 f   ScriptObjectUI.obj
 0001:00005f21       ?IsWidgetEnabled@CScriptObjectUI@@QAEHPAUIFunctionHandler@@@Z 33006f21 f   ScriptObjectUI.obj
 0001:00006323       ?SendMessageA@CScriptObjectUI@@QAEHPAUIFunctionHandler@@@Z 33007323 f   ScriptObjectUI.obj
 0001:000066f0       ?CaptureMouse@CScriptObjectUI@@QAEHPAUIFunctionHandler@@@Z 330076f0 f   ScriptObjectUI.obj
 0001:000068ab       ?SetTopMostWidget@CScriptObjectUI@@QAEHPAUIFunctionHandler@@@Z 330078ab f   ScriptObjectUI.obj
 0001:00006a6a       ?SetFocus@CScriptObjectUI@@QAEHPAUIFunctionHandler@@@Z 33007a6a f   ScriptObjectUI.obj
 0001:00006e1d       ?SetFocusScreen@CScriptObjectUI@@QAEHPAUIFunctionHandler@@@Z 33007e1d f   ScriptObjectUI.obj
 0001:00007050       ?CreateObjectFromTable@CScriptObjectUI@@QAEHPAUIFunctionHandler@@@Z 33008050 f   ScriptObjectUI.obj
 0001:00007406       ?CreateScreenFromTable@CScriptObjectUI@@QAEHPAUIFunctionHandler@@@Z 33008406 f   ScriptObjectUI.obj
 0001:00007656       ?GetScreen@CScriptObjectUI@@QAEHPAUIFunctionHandler@@@Z 33008656 f   ScriptObjectUI.obj
 0001:00007823       ?ActivateScreen@CScriptObjectUI@@QAEHPAUIFunctionHandler@@@Z 33008823 f   ScriptObjectUI.obj
 0001:000079fd       ?DeactivateScreen@CScriptObjectUI@@QAEHPAUIFunctionHandler@@@Z 330089fd f   ScriptObjectUI.obj
 0001:00007bd7       ?IsScreenActive@CScriptObjectUI@@QAEHPAUIFunctionHandler@@@Z 33008bd7 f   ScriptObjectUI.obj
 0001:00007dc4       ?SetToolTipFontName@CScriptObjectUI@@QAEHPAUIFunctionHandler@@@Z 33008dc4 f   ScriptObjectUI.obj
 0001:00007ee7       ?SetToolTipFontEffect@CScriptObjectUI@@QAEHPAUIFunctionHandler@@@Z 33008ee7 f   ScriptObjectUI.obj
 0001:0000800a       ?InitializeTemplate@CScriptObjectUI@@SAXPAUIScriptSystem@@@Z 3300900a f   ScriptObjectUI.obj
 0001:00008586       ?CryError@@YAXPBDZZ        33009586 f i ScriptObjectUI.obj
 0001:000085cc       ?InitGlobal@?$_ScriptableEx@VCScriptObjectUI@@@@QAEXPAUIScriptSystem@@PBDPAVCScriptObjectUI@@@Z 330095cc f i ScriptObjectUI.obj
 0001:00008643       ?FuncThunk@?$_ScriptableEx@VCScriptObjectUI@@@@KAHPAX@Z 33009643 f i ScriptObjectUI.obj
 0001:000086a5       ?_M_insert_overflow@?$vector@P8CScriptObjectUI@@AEHPAUIFunctionHandler@@@ZV?$allocator@P8CScriptObjectUI@@AEHPAUIFunctionHandler@@@Z@_STL@@@_STL@@IAEXPAP8CScriptObjectUI@@AEHPAUIFunctionHandler@@@ZABQ83@AEH0@ZABU__false_type@2@I_N@Z 330096a5 f i ScriptObjectUI.obj
 0001:00008792       ?push_back@?$vector@P8CScriptObjectUI@@AEHPAUIFunctionHandler@@@ZV?$allocator@P8CScriptObjectUI@@AEHPAUIFunctionHandler@@@Z@_STL@@@_STL@@QAEXABQ8CScriptObjectUI@@AEHPAUIFunctionHandler@@@Z@Z 33009792 f i ScriptObjectUI.obj
 0001:000087c3       ?RegisterFunction@?$_ScriptableEx@VCScriptObjectUI@@@@SAXPAUIScriptSystem@@PBDP8CScriptObjectUI@@AEHPAUIFunctionHandler@@@Z@Z 330097c3 f i ScriptObjectUI.obj
 0001:00008813       ??0UIRect@@QAE@ABU0@@Z     33009813 f i UIButton.obj
 0001:00008813       ??0?$color4@M@@QAE@ABU0@@Z 33009813 f i UIListView.obj
 0001:00008832       ??0UISkinTexture@@QAE@XZ   33009832 f i UIButton.obj
 0001:00008854       ?Update@CUIButton@@UAEJIIJ@Z 33009854 f   UIButton.obj
 0001:000088fc       ?Draw@CUIButton@@UAEHH@Z   330098fc f   UIButton.obj
 0001:00008c31       ?GetText@CUIButton@@QAEHPAUIFunctionHandler@@@Z 33009c31 f   UIButton.obj
 0001:00008d0c       ?GetState@CUIButton@@QAEHPAUIFunctionHandler@@@Z 33009d0c f   UIButton.obj
 0001:00008d73       ?SetState@CUIButton@@QAEHPAUIFunctionHandler@@@Z 33009d73 f   UIButton.obj
 0001:00008e9d       ?SetVAlign@CUIButton@@QAEHPAUIFunctionHandler@@@Z 33009e9d f   UIButton.obj
 0001:00008fc7       ?GetVAlign@CUIButton@@QAEHPAUIFunctionHandler@@@Z 33009fc7 f   UIButton.obj
 0001:0000902e       ?SetHAlign@CUIButton@@QAEHPAUIFunctionHandler@@@Z 3300a02e f   UIButton.obj
 0001:00009158       ?GetHAlign@CUIButton@@QAEHPAUIFunctionHandler@@@Z 3300a158 f   UIButton.obj
 0001:000091bf       ?SetTexture@CUIButton@@QAEHPAUIFunctionHandler@@@Z 3300a1bf f   UIButton.obj
 0001:00009332       ?GetTexture@CUIButton@@QAEHPAUIFunctionHandler@@@Z 3300a332 f   UIButton.obj
 0001:000093aa       ?SetDownTexture@CUIButton@@QAEHPAUIFunctionHandler@@@Z 3300a3aa f   UIButton.obj
 0001:0000951d       ?GetDownTexture@CUIButton@@QAEHPAUIFunctionHandler@@@Z 3300a51d f   UIButton.obj
 0001:00009595       ?SetOverTexture@CUIButton@@QAEHPAUIFunctionHandler@@@Z 3300a595 f   UIButton.obj
 0001:00009708       ?GetOverTexture@CUIButton@@QAEHPAUIFunctionHandler@@@Z 3300a708 f   UIButton.obj
 0001:00009780       ?SetOverState@CUIButton@@QAEHPAUIFunctionHandler@@@Z 3300a780 f   UIButton.obj
 0001:000098d1       ?SetText@CUIButton@@QAEHPAUIFunctionHandler@@@Z 3300a8d1 f   UIButton.obj
 0001:00009a26       ??0CUIButton@@QAE@XZ       3300aa26 f   UIButton.obj
 0001:00009aad       ??1CUIButton@@UAE@XZ       3300aaad f   UIButton.obj
 0001:00009afc       ?InitializeTemplate@CUIButton@@SAXPAUIScriptSystem@@@Z 3300aafc f   UIButton.obj
 0001:00009eb1       ?GetClassName@CUIButton@@UAE?AV?$basic_string@DU?$char_traits@D@std@@V?$allocator@D@_STL@@@_STL@@XZ 3300aeb1 f   UIButton.obj
 0001:00009ed1       ?SetText@CUIButton@@QAEHABV?$basic_string@GU?$char_traits@G@std@@V?$allocator@G@_STL@@@_STL@@@Z 3300aed1 f   UIButton.obj
 0001:00009ee6       ??1?$_ScriptableEx@VCUIButton@@@@UAE@XZ 3300aee6 f i UIButton.obj
 0001:00009f1d       ??_E?$_ScriptableEx@VCUIButton@@@@UAEPAXI@Z 3300af1d f i UIButton.obj
 0001:00009f1d       ??_G?$_ScriptableEx@VCUIButton@@@@UAEPAXI@Z 3300af1d f i UIButton.obj
 0001:00009f39       ??_9@$BBBM@AE              3300af39 f i UIButton.obj
 0001:00009f41       ??_9@$BPM@AE               3300af41 f i UIButton.obj
 0001:00009f49       ??_9@$BNM@AE               3300af49 f i UIButton.obj
 0001:00009f51       ??_9@$BBCA@AE              3300af51 f i UIButton.obj
 0001:00009f59       ??_9@$BBAA@AE              3300af59 f i UIButton.obj
 0001:00009f61       ??_9@$BOA@AE               3300af61 f i UIButton.obj
 0001:00009f69       ??_9@$BIA@AE               3300af69 f i UIButton.obj
 0001:00009f71       ??_9@$BBCE@AE              3300af71 f i UIButton.obj
 0001:00009f79       ??_9@$BBAE@AE              3300af79 f i UIButton.obj
 0001:00009f81       ??_9@$BOE@AE               3300af81 f i UIButton.obj
 0001:00009f89       ??_9@$BCE@AE               3300af89 f i UIButton.obj
 0001:00009f8e       ??_9@$BBCI@AE              3300af8e f i UIButton.obj
 0001:00009f96       ??_9@$BBAI@AE              3300af96 f i UIButton.obj
 0001:00009f9e       ??_9@$BOI@AE               3300af9e f i UIButton.obj
 0001:00009fa6       ??_9@$B7AE                 3300afa6 f i UIButton.obj
 0001:00009fab       ??_9@$BBCM@AE              3300afab f i UIButton.obj
 0001:00009fb3       ??_9@$BBAM@AE              3300afb3 f i UIButton.obj
 0001:00009fbb       ??_9@$BOM@AE               3300afbb f i UIButton.obj
 0001:00009fc3       ??_9@$BEM@AE               3300afc3 f i UIButton.obj
 0001:00009fc8       ??_9@$BBDA@AE              3300afc8 f i UIButton.obj
 0001:00009fd0       ??_9@$BBBA@AE              3300afd0 f i UIButton.obj
 0001:00009fd8       ??_9@$BPA@AE               3300afd8 f i UIButton.obj
 0001:00009fe0       ??_9@$BBDE@AE              3300afe0 f i UIButton.obj
 0001:00009fe8       ??_9@$BBBE@AE              3300afe8 f i UIButton.obj
 0001:00009ff0       ??_9@$BPE@AE               3300aff0 f i UIButton.obj
 0001:00009ff8       ??_9@$BFE@AE               3300aff8 f i UIButton.obj
 0001:00009ffd       ??_9@$BBBI@AE              3300affd f i UIButton.obj
 0001:0000a005       ??_9@$BPI@AE               3300b005 f i UIButton.obj
 0001:0000a00d       ??_9@$BBI@AE               3300b00d f i UIButton.obj
 0001:0000a012       ??_9@$BNI@AE               3300b012 f i UIButton.obj
 0001:0000a01a       ?clear@?$basic_string@GU?$char_traits@G@std@@V?$allocator@G@_STL@@@_STL@@QAEXXZ 3300b01a f i UIButton.obj
 0001:0000a041       ?FuncThunk@?$_ScriptableEx@VCUIButton@@@@KAHPAX@Z 3300b041 f i UIButton.obj
 0001:0000a0aa       ?_M_insert_overflow@?$vector@P8CUIButton@@AEHPAUIFunctionHandler@@@ZV?$allocator@P8CUIButton@@AEHPAUIFunctionHandler@@@Z@_STL@@@_STL@@IAEXPAP8CUIButton@@AEHPAUIFunctionHandler@@@ZABQ83@AEH0@ZABU__false_type@2@I_N@Z 3300b0aa f i UIButton.obj
 0001:0000a197       ?push_back@?$vector@P8CUIButton@@AEHPAUIFunctionHandler@@@ZV?$allocator@P8CUIButton@@AEHPAUIFunctionHandler@@@Z@_STL@@@_STL@@QAEXABQ8CUIButton@@AEHPAUIFunctionHandler@@@Z@Z 3300b197 f i UIButton.obj
 0001:0000a1ce       ??1CUIWidget@@UAE@XZ       3300b1ce f i UIButton.obj
 0001:0000a209       ??_ECUIWidget@@UAEPAXI@Z   3300b209 f i UIButton.obj
 0001:0000a209       ??_GCUIWidget@@UAEPAXI@Z   3300b209 f i UIButton.obj
 0001:0000a225       ??_ECUIButton@@WNE@AEPAXI@Z 3300b225 f i UIButton.obj
 0001:0000a230       ?RegisterFunction@?$_ScriptableEx@VCUIButton@@@@SAXPAUIScriptSystem@@PBDP8CUIButton@@AEHPAUIFunctionHandler@@@Z@Z 3300b230 f i UIButton.obj
 0001:0000a280       ??_GCUIButton@@UAEPAXI@Z   3300b280 f i UIButton.obj
 0001:0000a280       ??_ECUIButton@@UAEPAXI@Z   3300b280 f i UIButton.obj
 0001:0000a29c       ?GetBorderedRect@CUICheckBox@@AAE?AUUIRect@@XZ 3300b29c f   UICheckBox.obj
 0001:0000a319       ?Update@CUICheckBox@@UAEJIIJ@Z 3300b319 f   UICheckBox.obj
 0001:0000a3f5       ?GetText@CUICheckBox@@QAEHPAUIFunctionHandler@@@Z 3300b3f5 f   UICheckBox.obj
 0001:0000a4d0       ?SetTexture@CUICheckBox@@QAEHPAUIFunctionHandler@@@Z 3300b4d0 f   UICheckBox.obj
 0001:0000a6fc       ?GetTexture@CUICheckBox@@QAEHPAUIFunctionHandler@@@Z 3300b6fc f   UICheckBox.obj
 0001:0000a774       ?SetChecked@CUICheckBox@@QAEHPAUIFunctionHandler@@@Z 3300b774 f   UICheckBox.obj
 0001:0000a812       ?GetChecked@CUICheckBox@@QAEHPAUIFunctionHandler@@@Z 3300b812 f   UICheckBox.obj
 0001:0000a883       ?SetText@CUICheckBox@@QAEHPAUIFunctionHandler@@@Z 3300b883 f   UICheckBox.obj
 0001:0000a9d8       ??0CUICheckBox@@QAE@XZ     3300b9d8 f   UICheckBox.obj
 0001:0000aa7c       ??1CUICheckBox@@UAE@XZ     3300ba7c f   UICheckBox.obj
 0001:0000aacb       ?InitializeTemplate@CUICheckBox@@SAXPAUIScriptSystem@@@Z 3300bacb f   UICheckBox.obj
 0001:0000adc3       ?GetClassName@CUICheckBox@@UAE?AV?$basic_string@DU?$char_traits@D@std@@V?$allocator@D@_STL@@@_STL@@XZ 3300bdc3 f   UICheckBox.obj
 0001:0000ade3       ?Draw@CUICheckBox@@UAEHH@Z 3300bde3 f   UICheckBox.obj
 0001:0000b150       ?SetText@CUICheckBox@@QAEHABV?$basic_string@GU?$char_traits@G@std@@V?$allocator@G@_STL@@@_STL@@@Z 3300c150 f   UICheckBox.obj
 0001:0000b165       ??1?$_ScriptableEx@VCUICheckBox@@@@UAE@XZ 3300c165 f i UICheckBox.obj
 0001:0000b19c       ??_E?$_ScriptableEx@VCUICheckBox@@@@UAEPAXI@Z 3300c19c f i UICheckBox.obj
 0001:0000b19c       ??_G?$_ScriptableEx@VCUICheckBox@@@@UAEPAXI@Z 3300c19c f i UICheckBox.obj
 0001:0000b1b8       ?FuncThunk@?$_ScriptableEx@VCUICheckBox@@@@KAHPAX@Z 3300c1b8 f i UICheckBox.obj
 0001:0000b221       ?_M_insert_overflow@?$vector@P8CUICheckBox@@AEHPAUIFunctionHandler@@@ZV?$allocator@P8CUICheckBox@@AEHPAUIFunctionHandler@@@Z@_STL@@@_STL@@IAEXPAP8CUICheckBox@@AEHPAUIFunctionHandler@@@ZABQ83@AEH0@ZABU__false_type@2@I_N@Z 3300c221 f i UICheckBox.obj
 0001:0000b30e       ?push_back@?$vector@P8CUICheckBox@@AEHPAUIFunctionHandler@@@ZV?$allocator@P8CUICheckBox@@AEHPAUIFunctionHandler@@@Z@_STL@@@_STL@@QAEXABQ8CUICheckBox@@AEHPAUIFunctionHandler@@@Z@Z 3300c30e f i UICheckBox.obj
 0001:0000b345       ??_ECUICheckBox@@WNE@AEPAXI@Z 3300c345 f i UICheckBox.obj
 0001:0000b350       ?RegisterFunction@?$_ScriptableEx@VCUICheckBox@@@@SAXPAUIScriptSystem@@PBDP8CUICheckBox@@AEHPAUIFunctionHandler@@@Z@Z 3300c350 f i UICheckBox.obj
 0001:0000b3a0       ??_ECUICheckBox@@UAEPAXI@Z 3300c3a0 f i UICheckBox.obj
 0001:0000b3a0       ??_GCUICheckBox@@UAEPAXI@Z 3300c3a0 f i UICheckBox.obj
 0001:0000b3bc       ??0UIFont@@QAE@ABU0@@Z     3300c3bc f i UICheckBox.obj
 0001:0000b41f       ??0UISkinTexture@@QAE@ABU0@@Z 3300c41f f i UIComboBox.obj
 0001:0000b450       ?ClearSelection@CUIComboBox@@QAEHXZ 3300c450 f   UIComboBox.obj
 0001:0000b45b       ?IsSelectedIndex@CUIComboBox@@QAE_NH@Z 3300c45b f   UIComboBox.obj
 0001:0000b46d       ?GetComboRect@CUIComboBox@@AAE?AUUIRect@@XZ 3300c46d f   UIComboBox.obj
 0001:0000b541       ?UndropList@CUIComboBox@@AAEXXZ 3300c541 f   UIComboBox.obj
 0001:0000b56f       ?DeselectIndex@CUIComboBox@@QAEHH@Z 3300c56f f   UIComboBox.obj
 0001:0000b58b       ?GetItemCount@CUIComboBox@@QAEHXZ 3300c58b f   UIComboBox.obj
 0001:0000b59d       ?GetItem@CUIComboBox@@QAEPAUUIComboItem@@HPAPAPAU2@@Z 3300c59d f   UIComboBox.obj
 0001:0000b5d0       ?GetListRect@CUIComboBox@@AAE?AUUIRect@@_N@Z 3300c5d0 f   UIComboBox.obj
 0001:0000b705       ?DropList@CUIComboBox@@AAEXXZ 3300c705 f   UIComboBox.obj
 0001:0000b7d8       ?SetButtonSize@CUIComboBox@@QAEHPAUIFunctionHandler@@@Z 3300c7d8 f   UIComboBox.obj
 0001:0000b902       ?GetButtonSize@CUIComboBox@@QAEHPAUIFunctionHandler@@@Z 3300c902 f   UIComboBox.obj
 0001:0000b96d       ?SetItemHeight@CUIComboBox@@QAEHPAUIFunctionHandler@@@Z 3300c96d f   UIComboBox.obj
 0001:0000ba97       ?GetItemHeight@CUIComboBox@@QAEHPAUIFunctionHandler@@@Z 3300ca97 f   UIComboBox.obj
 0001:0000bb02       ?ClearSelection@CUIComboBox@@QAEHPAUIFunctionHandler@@@Z 3300cb02 f   UIComboBox.obj
 0001:0000bb6f       ?IsDropDown@CUIComboBox@@QAEHPAUIFunctionHandler@@@Z 3300cb6f f   UIComboBox.obj
 0001:0000bbe0       ?DeselectIndex@CUIComboBox@@QAEHPAUIFunctionHandler@@@Z 3300cbe0 f   UIComboBox.obj
 0001:0000bd23       ?IsSelectedIndex@CUIComboBox@@QAEHPAUIFunctionHandler@@@Z 3300cd23 f   UIComboBox.obj
 0001:0000be70       ?GetSelection@CUIComboBox@@QAEHPAUIFunctionHandler@@@Z 3300ce70 f   UIComboBox.obj
 0001:0000bf1d       ?GetSelectionIndex@CUIComboBox@@QAEHPAUIFunctionHandler@@@Z 3300cf1d f   UIComboBox.obj
 0001:0000bf8e       ?GetItem@CUIComboBox@@QAEHPAUIFunctionHandler@@@Z 3300cf8e f   UIComboBox.obj
 0001:0000c0fe       ?GetItemCount@CUIComboBox@@QAEHPAUIFunctionHandler@@@Z 3300d0fe f   UIComboBox.obj
 0001:0000c16e       ?SetVAlign@CUIComboBox@@QAEHPAUIFunctionHandler@@@Z 3300d16e f   UIComboBox.obj
 0001:0000c298       ?GetVAlign@CUIComboBox@@QAEHPAUIFunctionHandler@@@Z 3300d298 f   UIComboBox.obj
 0001:0000c2ff       ?SetHAlign@CUIComboBox@@QAEHPAUIFunctionHandler@@@Z 3300d2ff f   UIComboBox.obj
 0001:0000c429       ?GetHAlign@CUIComboBox@@QAEHPAUIFunctionHandler@@@Z 3300d429 f   UIComboBox.obj
 0001:0000c490       ?SetTexture@CUIComboBox@@QAEHPAUIFunctionHandler@@@Z 3300d490 f   UIComboBox.obj
 0001:0000c603       ?GetTexture@CUIComboBox@@QAEHPAUIFunctionHandler@@@Z 3300d603 f   UIComboBox.obj
 0001:0000c67b       ?SetButtonTexture@CUIComboBox@@QAEHPAUIFunctionHandler@@@Z 3300d67b f   UIComboBox.obj
 0001:0000c7ee       ?GetButtonTexture@CUIComboBox@@QAEHPAUIFunctionHandler@@@Z 3300d7ee f   UIComboBox.obj
 0001:0000c866       ?SetButtonOverTexture@CUIComboBox@@QAEHPAUIFunctionHandler@@@Z 3300d866 f   UIComboBox.obj
 0001:0000c9d9       ?GetButtonOverTexture@CUIComboBox@@QAEHPAUIFunctionHandler@@@Z 3300d9d9 f   UIComboBox.obj
 0001:0000ca51       ?SetButtonDownTexture@CUIComboBox@@QAEHPAUIFunctionHandler@@@Z 3300da51 f   UIComboBox.obj
 0001:0000cbc4       ?GetButtonDownTexture@CUIComboBox@@QAEHPAUIFunctionHandler@@@Z 3300dbc4 f   UIComboBox.obj
 0001:0000cc3c       ?SetButtonColor@CUIComboBox@@QAEHPAUIFunctionHandler@@@Z 3300dc3c f   UIComboBox.obj
 0001:0000ce43       ?GetButtonColor@CUIComboBox@@QAEHPAUIFunctionHandler@@@Z 3300de43 f   UIComboBox.obj
 0001:0000cec7       ?Draw@CUIComboBox@@UAEHH@Z 3300dec7 f   UIComboBox.obj
 0001:0000d561       ?SelectIndex@CUIComboBox@@QAEHH@Z 3300e561 f   UIComboBox.obj
 0001:0000d58a       ?GetItem@CUIComboBox@@QAEPAUUIComboItem@@ABV?$basic_string@GU?$char_traits@G@std@@V?$allocator@G@_STL@@@_STL@@PAPAPAU2@@Z 3300e58a f   UIComboBox.obj
 0001:0000d5c7       ?SelectIndex@CUIComboBox@@QAEHPAUIFunctionHandler@@@Z 3300e5c7 f   UIComboBox.obj
 0001:0000d712       ?Select@CUIComboBox@@QAEHABV?$basic_string@GU?$char_traits@G@std@@V?$allocator@G@_STL@@@_STL@@@Z 3300e712 f   UIComboBox.obj
 0001:0000d74a       ?Deselect@CUIComboBox@@QAEHABV?$basic_string@GU?$char_traits@G@std@@V?$allocator@G@_STL@@@_STL@@@Z 3300e74a f   UIComboBox.obj
 0001:0000d777       ?IsSelected@CUIComboBox@@QAE_NABV?$basic_string@GU?$char_traits@G@std@@V?$allocator@G@_STL@@@_STL@@@Z 3300e777 f   UIComboBox.obj
 0001:0000d79e       ?Select@CUIComboBox@@QAEHPAUIFunctionHandler@@@Z 3300e79e f   UIComboBox.obj
 0001:0000d93d       ?Deselect@CUIComboBox@@QAEHPAUIFunctionHandler@@@Z 3300e93d f   UIComboBox.obj
 0001:0000dadc       ?IsSelected@CUIComboBox@@QAEHPAUIFunctionHandler@@@Z 3300eadc f   UIComboBox.obj
 0001:0000dc7b       ??0CUIComboBox@@QAE@XZ     3300ec7b f   UIComboBox.obj
 0001:0000dd7e       ?Clear@CUIComboBox@@QAEHXZ 3300ed7e f   UIComboBox.obj
 0001:0000dde6       ?Clear@CUIComboBox@@QAEHPAUIFunctionHandler@@@Z 3300ede6 f   UIComboBox.obj
 0001:0000de4c       ??1CUIComboBox@@UAE@XZ     3300ee4c f   UIComboBox.obj
 0001:0000dea7       ?RemoveItem@CUIComboBox@@QAEHH@Z 3300eea7 f   UIComboBox.obj
 0001:0000deff       ?RemoveItem@CUIComboBox@@QAEHPAUIFunctionHandler@@@Z 3300eeff f   UIComboBox.obj
 0001:0000e042       ?Sort@CUIComboBox@@QAEHH@Z 3300f042 f   UIComboBox.obj
 0001:0000e06e       ?Sort@CUIComboBox@@QAEHPAUIFunctionHandler@@@Z 3300f06e f   UIComboBox.obj
 0001:0000e1b1       ?GetClassName@CUIComboBox@@UAE?AV?$basic_string@DU?$char_traits@D@std@@V?$allocator@D@_STL@@@_STL@@XZ 3300f1b1 f   UIComboBox.obj
 0001:0000e1d1       ?Update@CUIComboBox@@UAEJIIJ@Z 3300f1d1 f   UIComboBox.obj
 0001:0000e970       ?AddItem@CUIComboBox@@QAEHABV?$basic_string@GU?$char_traits@G@std@@V?$allocator@G@_STL@@@_STL@@UUISkinTexture@@ABU?$color4@M@@@Z 3300f970 f   UIComboBox.obj
 0001:0000ea02       ?InsertItem@CUIComboBox@@QAEHHABV?$basic_string@GU?$char_traits@G@std@@V?$allocator@G@_STL@@@_STL@@ABUUISkinTexture@@ABU?$color4@M@@@Z 3300fa02 f   UIComboBox.obj
 0001:0000eabc       ?AddItem@CUIComboBox@@QAEHPAUIFunctionHandler@@@Z 3300fabc f   UIComboBox.obj
 0001:0000ef31       ?InsertItem@CUIComboBox@@QAEHPAUIFunctionHandler@@@Z 3300ff31 f   UIComboBox.obj
 0001:0000f47b       ?InitializeTemplate@CUIComboBox@@SAXPAUIScriptSystem@@@Z 3301047b f   UIComboBox.obj
 0001:0000f9cf       ?__copy_trivial_backward@_STL@@YAPAXPBX0PAX@Z 330109cf f i UIComboBox.obj
 0001:0000f9f6       ??1?$_ScriptableEx@VCUIComboBox@@@@UAE@XZ 330109f6 f i UIComboBox.obj
 0001:0000fa2d       ??_G?$_ScriptableEx@VCUIComboBox@@@@UAEPAXI@Z 33010a2d f i UIComboBox.obj
 0001:0000fa2d       ??_E?$_ScriptableEx@VCUIComboBox@@@@UAEPAXI@Z 33010a2d f i UIComboBox.obj
 0001:0000fa49       ??$__gcd@H@_STL@@YAHHH@Z   33010a49 f i UIComboBox.obj
 0001:0000fa67       ??$?8GU?$char_traits@G@std@@V?$allocator@G@_STL@@@_STL@@YA_NABV?$basic_string@GU?$char_traits@G@std@@V?$allocator@G@_STL@@@0@0@Z 33010a67 f i UIComboBox.obj
 0001:0000fa9d       ?_M_compare@?$basic_string@GU?$char_traits@G@std@@V?$allocator@G@_STL@@@_STL@@SAHPBG000@Z 33010a9d f i UIComboBox.obj
 0001:0000faec       ??$__lower_bound@PAPAUUIComboItem@@PAU1@P6A_NPAU1@0@ZH@_STL@@YAPAPAUUIComboItem@@PAPAU1@0ABQAU1@P6A_NPAU1@2@ZPAH@Z 33010aec f i UIComboBox.obj
 0001:0000faec       ??$__lower_bound@PAPAUUIListItem@@PAU1@P6A_NPBU1@0@ZH@_STL@@YAPAPAUUIListItem@@PAPAU1@0ABQAU1@P6A_NPBU1@2@ZPAH@Z 33010aec f i UIListView.obj
 0001:0000fb36       ??$__upper_bound@PAPAUUIComboItem@@PAU1@P6A_NPAU1@0@ZH@_STL@@YAPAPAUUIComboItem@@PAPAU1@0ABQAU1@P6A_NPAU1@2@ZPAH@Z 33010b36 f i UIComboBox.obj
 0001:0000fb36       ??$__upper_bound@PAPAUUIListItem@@PAU1@P6A_NPBU1@0@ZH@_STL@@YAPAPAUUIListItem@@PAPAU1@0ABQAU1@P6A_NPBU1@2@ZPAH@Z 33010b36 f i UIListView.obj
 0001:0000fb80       ??$swap_ranges@PAPAUUIListItem@@PAPAU1@@_STL@@YAPAPAUUIListItem@@PAPAU1@00@Z 33010b80 f i UIListView.obj
 0001:0000fb80       ??$swap_ranges@PAPAUUIComboItem@@PAPAU1@@_STL@@YAPAPAUUIComboItem@@PAPAU1@00@Z 33010b80 f i UIComboBox.obj
 0001:0000fba5       ?FuncThunk@?$_ScriptableEx@VCUIComboBox@@@@KAHPAX@Z 33010ba5 f i UIComboBox.obj
 0001:0000fc0e       ?deallocate@?$allocator@PAUProperty@?$_ScriptableEx@VCScriptObjectBoids@@@@@_STL@@QAEXPAPAUProperty@?$_ScriptableEx@VCScriptObjectBoids@@@@I@Z 33010c0e f i Game.obj
 0001:0000fc0e       ?deallocate@?$allocator@PAVCBoidObject@@@_STL@@QAEXPAPAVCBoidObject@@I@Z 33010c0e f i Flock.obj
 0001:0000fc0e       ?deallocate@?$allocator@P8CUIScreen@@AEHPAUIFunctionHandler@@@Z@_STL@@QAEXPAP8CUIScreen@@AEHPAUIFunctionHandler@@@ZI@Z 33010c0e f i UIScreen.obj
 0001:0000fc0e       ?deallocate@?$allocator@PAVCProjectileClass@@@_STL@@QAEXPAPAVCProjectileClass@@I@Z 33010c0e f i WeaponSystemEx.obj
 0001:0000fc0e       ?deallocate@?$allocator@PAUProperty@?$_ScriptableEx@VCUIScreen@@@@@_STL@@QAEXPAPAUProperty@?$_ScriptableEx@VCUIScreen@@@@I@Z 33010c0e f i UISystem.obj
 0001:0000fc0e       ?deallocate@?$allocator@PAVCScriptObjectFireParam@@@_STL@@QAEXPAPAVCScriptObjectFireParam@@I@Z 33010c0e f i ScriptObjectWeaponClass.obj
 0001:0000fc0e       ?deallocate@?$allocator@P8CScriptObjectAI@@AEHPAUIFunctionHandler@@@Z@_STL@@QAEXPAP8CScriptObjectAI@@AEHPAUIFunctionHandler@@@ZI@Z 33010c0e f i ScriptObjectAI.obj
 0001:0000fc0e       ?deallocate@?$allocator@PAUProperty@?$_ScriptableEx@VCUIListView@@@@@_STL@@QAEXPAPAUProperty@?$_ScriptableEx@VCUIListView@@@@I@Z 33010c0e f i UISystem.obj
 0001:0000fc0e       ?deallocate@?$allocator@P8CScriptObjectBoids@@AEHPAUIFunctionHandler@@@Z@_STL@@QAEXPAP8CScriptObjectBoids@@AEHPAUIFunctionHandler@@@ZI@Z 33010c0e f i ScriptObjectBoids.obj
 0001:0000fc0e       ?deallocate@?$allocator@PAUProperty@?$_ScriptableEx@VCUIEditBox@@@@@_STL@@QAEXPAPAUProperty@?$_ScriptableEx@VCUIEditBox@@@@I@Z 33010c0e f i UISystem.obj
 0001:0000fc0e       ?deallocate@?$allocator@PAVCFlock@@@_STL@@QAEXPAPAVCFlock@@I@Z 33010c0e f i Flock.obj
 0001:0000fc0e       ?deallocate@?$allocator@PAUProperty@?$_ScriptableEx@VCScriptObjectAI@@@@@_STL@@QAEXPAPAUProperty@?$_ScriptableEx@VCScriptObjectAI@@@@I@Z 33010c0e f i Game.obj
 0001:0000fc0e       ?deallocate@?$allocator@PAUIScriptObject@@@_STL@@QAEXPAPAUIScriptObject@@I@Z 33010c0e f i ScriptObjectGame.obj
 0001:0000fc0e       ?deallocate@?$allocator@PAUProperty@?$_ScriptableEx@VCUIScrollBar@@@@@_STL@@QAEXPAPAUProperty@?$_ScriptableEx@VCUIScrollBar@@@@I@Z 33010c0e f i UISystem.obj
 0001:0000fc0e       ?deallocate@?$allocator@I@_STL@@QAEXPAII@Z 33010c0e f i XServer.obj
 0001:0000fc0e       ?deallocate@?$allocator@PAUProperty@?$_ScriptableEx@VCScriptObjectRenderer@@@@@_STL@@QAEXPAPAUProperty@?$_ScriptableEx@VCScriptObjectRenderer@@@@I@Z 33010c0e f i Game.obj
 0001:0000fc0e       ?deallocate@?$allocator@PAUProperty@?$_ScriptableEx@VCScriptObjectUI@@@@@_STL@@QAEXPAPAUProperty@?$_ScriptableEx@VCScriptObjectUI@@@@I@Z 33010c0e f i Game.obj
 0001:0000fc0e       ?deallocate@?$allocator@PAUProperty@?$_ScriptableEx@VCScriptObjectGame@@@@@_STL@@QAEXPAPAUProperty@?$_ScriptableEx@VCScriptObjectGame@@@@I@Z 33010c0e f i Game.obj
 0001:0000fc0e       ?deallocate@?$allocator@PAVCScriptObjectRenderer@@@_STL@@QAEXPAPAVCScriptObjectRenderer@@I@Z 33010c0e f i ScriptObjectGame.obj
 0001:0000fc0e       ?deallocate@?$allocator@PAUProperty@?$_ScriptableEx@VCUIComboBox@@@@@_STL@@QAEXPAPAUProperty@?$_ScriptableEx@VCUIComboBox@@@@I@Z 33010c0e f i UISystem.obj
 0001:0000fc0e       ?deallocate@?$allocator@PAUWeaponParams@@@_STL@@QAEXPAPAUWeaponParams@@I@Z 33010c0e f i WeaponClass.obj
 0001:0000fc0e       ?deallocate@?$allocator@PAUProperty@?$_ScriptableEx@VCScriptObjectFireParam@@@@@_STL@@QAEXPAPAUProperty@?$_ScriptableEx@VCScriptObjectFireParam@@@@I@Z 33010c0e f i ScriptObjectWeaponClass.obj
 0001:0000fc0e       ?deallocate@?$allocator@P8CScriptObjectServer@@AEHPAUIFunctionHandler@@@Z@_STL@@QAEXPAP8CScriptObjectServer@@AEHPAUIFunctionHandler@@@ZI@Z 33010c0e f i ScriptObjectServer.obj
 0001:0000fc0e       ?deallocate@?$allocator@H@_STL@@QAEXPAHI@Z 33010c0e f i UIListView.obj
 0001:0000fc0e       ?deallocate@?$allocator@PAUProperty@?$_ScriptableEx@VCUIButton@@@@@_STL@@QAEXPAPAUProperty@?$_ScriptableEx@VCUIButton@@@@I@Z 33010c0e f i UISystem.obj
 0001:0000fc0e       ?deallocate@?$allocator@PAUProperty@?$_ScriptableEx@VCScriptObjectSynched2DTable@@@@@_STL@@QAEXPAPAUProperty@?$_ScriptableEx@VCScriptObjectSynched2DTable@@@@I@Z 33010c0e f i Game.obj
 0001:0000fc0e       ?deallocate@?$allocator@PAUProperty@?$_ScriptableEx@VCScriptObjectServerSlot@@@@@_STL@@QAEXPAPAUProperty@?$_ScriptableEx@VCScriptObjectServerSlot@@@@I@Z 33010c0e f i Game.obj
 0001:0000fc0e       ?deallocate@?$allocator@P8CScriptObjectInput@@AEHPAUIFunctionHandler@@@Z@_STL@@QAEXPAP8CScriptObjectInput@@AEHPAUIFunctionHandler@@@ZI@Z 33010c0e f i ScriptObjectInput.obj
 0001:0000fc0e       ?deallocate@?$allocator@PAUProperty@?$_ScriptableEx@VCScriptObjectWeaponClass@@@@@_STL@@QAEXPAPAUProperty@?$_ScriptableEx@VCScriptObjectWeaponClass@@@@I@Z 33010c0e f i ScriptObjectWeaponClass.obj
 0001:0000fc0e       ?deallocate@?$allocator@PAUProperty@?$_ScriptableEx@VCUIStatic@@@@@_STL@@QAEXPAPAUProperty@?$_ScriptableEx@VCUIStatic@@@@I@Z 33010c0e f i UISystem.obj
 0001:0000fc0e       ?deallocate@?$allocator@PAUProperty@?$_ScriptableEx@VCScriptObjectServer@@@@@_STL@@QAEXPAPAUProperty@?$_ScriptableEx@VCScriptObjectServer@@@@I@Z 33010c0e f i Game.obj
 0001:0000fc0e       ?deallocate@?$allocator@PAUProperty@?$_ScriptableEx@VCScriptObjectSpectator@@@@@_STL@@QAEXPAPAUProperty@?$_ScriptableEx@VCScriptObjectSpectator@@@@I@Z 33010c0e f i Game.obj
 0001:0000fc0e       ?deallocate@?$allocator@PAUProperty@?$_ScriptableEx@VCUICheckBox@@@@@_STL@@QAEXPAPAUProperty@?$_ScriptableEx@VCUICheckBox@@@@I@Z 33010c0e f i UISystem.obj
 0001:0000fc0e       ?deallocate@?$allocator@P8CScriptObjectLanguage@@AEHPAUIFunctionHandler@@@Z@_STL@@QAEXPAP8CScriptObjectLanguage@@AEHPAUIFunctionHandler@@@ZI@Z 33010c0e f i ScriptObjectLanguage.obj
 0001:0000fc0e       ?deallocate@?$allocator@K@_STL@@QAEXPAKI@Z 33010c0e f i XNetworkStats.obj
 0001:0000fc0e       ?deallocate@?$allocator@P8CScriptObjectUI@@AEHPAUIFunctionHandler@@@Z@_STL@@QAEXPAP8CScriptObjectUI@@AEHPAUIFunctionHandler@@@ZI@Z 33010c0e f i ScriptObjectUI.obj
 0001:0000fc0e       ?deallocate@?$allocator@PAVCPlayer@@@_STL@@QAEXPAPAVCPlayer@@I@Z 33010c0e f i GameEquipPacks.obj
 0001:0000fc0e       ?deallocate@?$allocator@PAUa2DSegment@CXArea@@@_STL@@QAEXPAPAUa2DSegment@CXArea@@I@Z 33010c0e f i XArea.obj
 0001:0000fc0e       ?deallocate@?$allocator@P8CScriptObjectRenderer@@AEHPAUIFunctionHandler@@@Z@_STL@@QAEXPAP8CScriptObjectRenderer@@AEHPAUIFunctionHandler@@@ZI@Z 33010c0e f i ScriptObjectRenderer.obj
 0001:0000fc0e       ?deallocate@?$allocator@PAVCUIWidget@@@_STL@@QAEXPAPAVCUIWidget@@I@Z 33010c0e f i UIButton.obj
 0001:0000fc0e       ?deallocate@?$allocator@P8CScriptObjectClient@@AEHPAUIFunctionHandler@@@Z@_STL@@QAEXPAP8CScriptObjectClient@@AEHPAUIFunctionHandler@@@ZI@Z 33010c0e f i ScriptObjectClient.obj
 0001:0000fc0e       ?deallocate@?$allocator@PAVCWeaponClass@@@_STL@@QAEXPAPAVCWeaponClass@@I@Z 33010c0e f i WeaponSystemEx.obj
 0001:0000fc0e       ?deallocate@?$allocator@PAUUIListItem@@@_STL@@QAEXPAPAUUIListItem@@I@Z 33010c0e f i UIListView.obj
 0001:0000fc0e       ?deallocate@?$allocator@P8CScriptObjectStream@@AEHPAUIFunctionHandler@@@Z@_STL@@QAEXPAP8CScriptObjectStream@@AEHPAUIFunctionHandler@@@ZI@Z 33010c0e f i ScriptObjectStream.obj
 0001:0000fc0e       ?deallocate@?$allocator@P8CScriptObjectGame@@AEHPAUIFunctionHandler@@@Z@_STL@@QAEXPAP8CScriptObjectGame@@AEHPAUIFunctionHandler@@@ZI@Z 33010c0e f i ScriptObjectGame.obj
 0001:0000fc0e       ?deallocate@?$allocator@PAUProperty@?$_ScriptableEx@VCScriptObjectStream@@@@@_STL@@QAEXPAPAUProperty@?$_ScriptableEx@VCScriptObjectStream@@@@I@Z 33010c0e f i Game.obj
 0001:0000fc0e       ?deallocate@?$allocator@PAUProperty@?$_ScriptableEx@VCScriptObjectPlayer@@@@@_STL@@QAEXPAPAUProperty@?$_ScriptableEx@VCScriptObjectPlayer@@@@I@Z 33010c0e f i ScriptObjectPlayer.obj
 0001:0000fc0e       ?deallocate@?$allocator@PAV?$basic_string@DU?$char_traits@D@std@@V?$allocator@D@_STL@@@_STL@@@_STL@@QAEXPAPAV?$basic_string@DU?$char_traits@D@std@@V?$allocator@D@_STL@@@2@I@Z 33010c0e f i Game.obj
 0001:0000fc0e       ?deallocate@?$allocator@PAUProperty@?$_ScriptableEx@VCScriptObjectInput@@@@@_STL@@QAEXPAPAUProperty@?$_ScriptableEx@VCScriptObjectInput@@@@I@Z 33010c0e f i Game.obj
 0001:0000fc0e       ?deallocate@?$allocator@PAUProperty@?$_ScriptableEx@VCScriptObjectLanguage@@@@@_STL@@QAEXPAPAUProperty@?$_ScriptableEx@VCScriptObjectLanguage@@@@I@Z 33010c0e f i Game.obj
 0001:0000fc0e       ?deallocate@?$allocator@PAUUIComboItem@@@_STL@@QAEXPAPAUUIComboItem@@I@Z 33010c0e f i UIComboBox.obj
 0001:0000fc0e       ?deallocate@?$allocator@PAUSGameModDescription@@@_STL@@QAEXPAPAUSGameModDescription@@I@Z 33010c0e f i GameMods.obj
 0001:0000fc0e       ?deallocate@?$allocator@PAUIStatObj@@@_STL@@QAEXPAPAUIStatObj@@I@Z 33010c0e f i WeaponSystemEx.obj
 0001:0000fc0e       ?deallocate@?$allocator@PAUIEntity@@@_STL@@QAEXPAPAUIEntity@@I@Z 33010c0e f i XClient.obj
 0001:0000fc0e       ?deallocate@?$allocator@PAUProperty@?$_ScriptableEx@VCUIVideoPanel@@@@@_STL@@QAEXPAPAUProperty@?$_ScriptableEx@VCUIVideoPanel@@@@I@Z 33010c0e f i UISystem.obj
 0001:0000fc0e       ?deallocate@?$allocator@PAUProperty@?$_ScriptableEx@VCScriptObjectVehicle@@@@@_STL@@QAEXPAPAUProperty@?$_ScriptableEx@VCScriptObjectVehicle@@@@I@Z 33010c0e f i ScriptObjectVehicle.obj
 0001:0000fc0e       ?deallocate@?$allocator@PAVCXArea@@@_STL@@QAEXPAPAVCXArea@@I@Z 33010c0e f i XArea.obj
 0001:0000fc0e       ?deallocate@?$allocator@PAVCUIScreen@@@_STL@@QAEXPAPAVCUIScreen@@I@Z 33010c0e f i UISystem.obj
 0001:0000fc0e       ?deallocate@?$allocator@PAUProperty@?$_ScriptableEx@VCScriptObjectAdvCamSystem@@@@@_STL@@QAEXPAPAUProperty@?$_ScriptableEx@VCScriptObjectAdvCamSystem@@@@I@Z 33010c0e f i Game.obj
 0001:0000fc0e       ?deallocate@?$allocator@PAUProperty@?$_ScriptableEx@VCScriptObjectClient@@@@@_STL@@QAEXPAPAUProperty@?$_ScriptableEx@VCScriptObjectClient@@@@I@Z 33010c0e f i Game.obj
 0001:0000fc0e       ?deallocate@?$allocator@P8CScriptObjectServerSlot@@AEHPAUIFunctionHandler@@@Z@_STL@@QAEXPAP8CScriptObjectServerSlot@@AEHPAUIFunctionHandler@@@ZI@Z 33010c0e f i ScriptObjectServerSlot.obj
 0001:0000fc2b       ?deallocate@?$allocator@P8CScriptObjectWeaponClass@@AEHPAUIFunctionHandler@@@Z@_STL@@QAEXPAP8CScriptObjectWeaponClass@@AEHPAUIFunctionHandler@@@ZI@Z 33010c2b f i ScriptObjectWeaponClass.obj
 0001:0000fc2b       ?deallocate@?$allocator@P8CUIButton@@AEHPAUIFunctionHandler@@@Z@_STL@@QAEXPAP8CUIButton@@AEHPAUIFunctionHandler@@@ZI@Z 33010c2b f i UIButton.obj
 0001:0000fc2b       ?deallocate@?$allocator@P8CUIEditBox@@AEHPAUIFunctionHandler@@@Z@_STL@@QAEXPAP8CUIEditBox@@AEHPAUIFunctionHandler@@@ZI@Z 33010c2b f i UIEditBox.obj
 0001:0000fc2b       ?deallocate@?$allocator@P8CScriptObjectPlayer@@AEHPAUIFunctionHandler@@@Z@_STL@@QAEXPAP8CScriptObjectPlayer@@AEHPAUIFunctionHandler@@@ZI@Z 33010c2b f i ScriptObjectPlayer.obj
 0001:0000fc2b       ?deallocate@?$allocator@P8CScriptObjectAdvCamSystem@@AEHPAUIFunctionHandler@@@Z@_STL@@QAEXPAP8CScriptObjectAdvCamSystem@@AEHPAUIFunctionHandler@@@ZI@Z 33010c2b f i ScriptObjectAdvCamSystem.obj
 0001:0000fc2b       ?deallocate@?$allocator@P8CUICheckBox@@AEHPAUIFunctionHandler@@@Z@_STL@@QAEXPAP8CUICheckBox@@AEHPAUIFunctionHandler@@@ZI@Z 33010c2b f i UICheckBox.obj
 0001:0000fc2b       ?deallocate@?$allocator@P8CUIListView@@AEHPAUIFunctionHandler@@@Z@_STL@@QAEXPAP8CUIListView@@AEHPAUIFunctionHandler@@@ZI@Z 33010c2b f i UIListView.obj
 0001:0000fc2b       ?deallocate@?$allocator@P8CUIStatic@@AEHPAUIFunctionHandler@@@Z@_STL@@QAEXPAP8CUIStatic@@AEHPAUIFunctionHandler@@@ZI@Z 33010c2b f i UIStatic.obj
 0001:0000fc2b       ?deallocate@?$allocator@P8CScriptObjectSpectator@@AEHPAUIFunctionHandler@@@Z@_STL@@QAEXPAP8CScriptObjectSpectator@@AEHPAUIFunctionHandler@@@ZI@Z 33010c2b f i ScriptObjectSpectator.obj
 0001:0000fc2b       ?deallocate@?$allocator@P8CUIVideoPanel@@AEHPAUIFunctionHandler@@@Z@_STL@@QAEXPAP8CUIVideoPanel@@AEHPAUIFunctionHandler@@@ZI@Z 33010c2b f i UIVideoPanel.obj
 0001:0000fc2b       ?deallocate@?$allocator@P8CScriptObjectVehicle@@AEHPAUIFunctionHandler@@@Z@_STL@@QAEXPAP8CScriptObjectVehicle@@AEHPAUIFunctionHandler@@@ZI@Z 33010c2b f i ScriptObjectVehicle.obj
 0001:0000fc2b       ?deallocate@?$allocator@P8CUIScrollBar@@AEHPAUIFunctionHandler@@@Z@_STL@@QAEXPAP8CUIScrollBar@@AEHPAUIFunctionHandler@@@ZI@Z 33010c2b f i UIScrollBar.obj
 0001:0000fc2b       ?deallocate@?$allocator@P8CScriptObjectSynched2DTable@@AEHPAUIFunctionHandler@@@Z@_STL@@QAEXPAP8CScriptObjectSynched2DTable@@AEHPAUIFunctionHandler@@@ZI@Z 33010c2b f i ScriptObjectSynched2DTable.obj
 0001:0000fc2b       ?deallocate@?$allocator@P8CUIComboBox@@AEHPAUIFunctionHandler@@@Z@_STL@@QAEXPAP8CUIComboBox@@AEHPAUIFunctionHandler@@@ZI@Z 33010c2b f i UIComboBox.obj
 0001:0000fc48       ??$?MGU?$char_traits@G@std@@V?$allocator@G@_STL@@@_STL@@YA_NABV?$basic_string@GU?$char_traits@G@std@@V?$allocator@G@_STL@@@0@0@Z 33010c48 f i UIComboBox.obj
 0001:0000fc72       ??$merge@PAPAUUIListItem@@PAPAU1@PAPAU1@P6A_NPBU1@0@Z@_STL@@YAPAPAUUIListItem@@PAPAU1@0000P6A_NPBU1@1@Z@Z 33010c72 f i UIListView.obj
 0001:0000fc72       ??$merge@PAPAUUIComboItem@@PAPAU1@PAPAU1@P6A_NPAU1@0@Z@_STL@@YAPAPAUUIComboItem@@PAPAU1@0000P6A_NPAU1@1@Z@Z 33010c72 f i UIComboBox.obj
 0001:0000fcc7       ??$?NGU?$char_traits@G@std@@V?$allocator@G@_STL@@@_STL@@YA_NABV?$basic_string@GU?$char_traits@G@std@@V?$allocator@G@_STL@@@0@0@Z 33010cc7 f i UIComboBox.obj
 0001:0000fcdc       ??$?PGU?$char_traits@G@std@@V?$allocator@G@_STL@@@_STL@@YA_NABV?$basic_string@GU?$char_traits@G@std@@V?$allocator@G@_STL@@@0@0@Z 33010cdc f i UIComboBox.obj
 0001:0000fcf1       ??$__merge_backward@PAPAUUIListItem@@PAPAU1@PAPAU1@P6A_NPBU1@0@Z@_STL@@YAPAPAUUIListItem@@PAPAU1@0000P6A_NPBU1@1@Z@Z 33010cf1 f i UIListView.obj
 0001:0000fcf1       ??$__merge_backward@PAPAUUIComboItem@@PAPAU1@PAPAU1@P6A_NPAU1@0@Z@_STL@@YAPAPAUUIComboItem@@PAPAU1@0000P6A_NPAU1@1@Z@Z 33010cf1 f i UIComboBox.obj
 0001:0000fd7a       ?SortCallback@CUIComboBox@@CA_NPAUUIComboItem@@0@Z 33010d7a f i UIComboBox.obj
 0001:0000fd92       ?push_back@?$vector@PAUUIListItem@@V?$allocator@PAUUIListItem@@@_STL@@@_STL@@QAEXABQAUUIListItem@@@Z 33010d92 f i UIListView.obj
 0001:0000fd92       ?push_back@?$vector@PAVCFlock@@V?$allocator@PAVCFlock@@@_STL@@@_STL@@QAEXABQAVCFlock@@@Z 33010d92 f i Flock.obj
 0001:0000fd92       ?push_back@?$vector@PAUUIComboItem@@V?$allocator@PAUUIComboItem@@@_STL@@@_STL@@QAEXABQAUUIComboItem@@@Z 33010d92 f i UIComboBox.obj
 0001:0000fd92       ?push_back@?$vector@PAVCScriptObjectRenderer@@V?$allocator@PAVCScriptObjectRenderer@@@_STL@@@_STL@@QAEXABQAVCScriptObjectRenderer@@@Z 33010d92 f i ScriptObjectGame.obj
 0001:0000fd92       ?push_back@?$vector@PAUa2DSegment@CXArea@@V?$allocator@PAUa2DSegment@CXArea@@@_STL@@@_STL@@QAEXABQAUa2DSegment@CXArea@@@Z 33010d92 f i XArea.obj
 0001:0000fd92       ?push_back@?$vector@PAUIStatObj@@V?$allocator@PAUIStatObj@@@_STL@@@_STL@@QAEXABQAUIStatObj@@@Z 33010d92 f i WeaponSystemEx.obj
 0001:0000fd92       ?push_back@?$vector@PAVCPlayer@@V?$allocator@PAVCPlayer@@@_STL@@@_STL@@QAEXABQAVCPlayer@@@Z 33010d92 f i GameEquipPacks.obj
 0001:0000fd92       ?push_back@?$vector@PAUWeaponParams@@V?$allocator@PAUWeaponParams@@@_STL@@@_STL@@QAEXABQAUWeaponParams@@@Z 33010d92 f i WeaponClass.obj
 0001:0000fd92       ?push_back@?$vector@PAVCUIScreen@@V?$allocator@PAVCUIScreen@@@_STL@@@_STL@@QAEXABQAVCUIScreen@@@Z 33010d92 f i UISystem.obj
 0001:0000fd92       ?push_back@?$vector@PAVCUIWidget@@V?$allocator@PAVCUIWidget@@@_STL@@@_STL@@QAEXABQAVCUIWidget@@@Z 33010d92 f i UIScreen.obj
 0001:0000fd92       ?push_back@?$vector@PAUProperty@?$_ScriptableEx@VCScriptObjectVehicle@@@@V?$allocator@PAUProperty@?$_ScriptableEx@VCScriptObjectVehicle@@@@@_STL@@@_STL@@QAEXABQAUProperty@?$_ScriptableEx@VCScriptObjectVehicle@@@@@Z 33010d92 f i ScriptObjectVehicle.obj
 0001:0000fd92       ?push_back@?$vector@PAUIScriptObject@@V?$allocator@PAUIScriptObject@@@_STL@@@_STL@@QAEXABQAUIScriptObject@@@Z 33010d92 f i ScriptObjectGame.obj
 0001:0000fd92       ?push_back@?$vector@PAUSGameModDescription@@V?$allocator@PAUSGameModDescription@@@_STL@@@_STL@@QAEXABQAUSGameModDescription@@@Z 33010d92 f i GameMods.obj
 0001:0000fd92       ?push_back@?$vector@PAVCWeaponClass@@V?$allocator@PAVCWeaponClass@@@_STL@@@_STL@@QAEXABQAVCWeaponClass@@@Z 33010d92 f i WeaponSystemEx.obj
 0001:0000fd92       ?push_back@?$vector@PAVCScriptObjectFireParam@@V?$allocator@PAVCScriptObjectFireParam@@@_STL@@@_STL@@QAEXABQAVCScriptObjectFireParam@@@Z 33010d92 f i ScriptObjectWeaponClass.obj
 0001:0000fd92       ?push_back@?$vector@HV?$allocator@H@_STL@@@_STL@@QAEXABH@Z 33010d92 f i UIListView.obj
 0001:0000fd92       ?push_back@?$vector@PAUIEntity@@V?$allocator@PAUIEntity@@@_STL@@@_STL@@QAEXABQAUIEntity@@@Z 33010d92 f i XClient.obj
 0001:0000fd92       ?push_back@?$vector@PAUProperty@?$_ScriptableEx@VCScriptObjectPlayer@@@@V?$allocator@PAUProperty@?$_ScriptableEx@VCScriptObjectPlayer@@@@@_STL@@@_STL@@QAEXABQAUProperty@?$_ScriptableEx@VCScriptObjectPlayer@@@@@Z 33010d92 f i ScriptObjectPlayer.obj
 0001:0000fd92       ?push_back@?$vector@PAUProperty@?$_ScriptableEx@VCScriptObjectFireParam@@@@V?$allocator@PAUProperty@?$_ScriptableEx@VCScriptObjectFireParam@@@@@_STL@@@_STL@@QAEXABQAUProperty@?$_ScriptableEx@VCScriptObjectFireParam@@@@@Z 33010d92 f i ScriptObjectWeaponClass.obj
 0001:0000fd92       ?push_back@?$vector@IV?$allocator@I@_STL@@@_STL@@QAEXABI@Z 33010d92 f i XServer.obj
 0001:0000fd92       ?push_back@?$vector@PAVCXArea@@V?$allocator@PAVCXArea@@@_STL@@@_STL@@QAEXABQAVCXArea@@@Z 33010d92 f i XArea.obj
 0001:0000fd92       ?push_back@?$vector@PAVCProjectileClass@@V?$allocator@PAVCProjectileClass@@@_STL@@@_STL@@QAEXABQAVCProjectileClass@@@Z 33010d92 f i WeaponSystemEx.obj
 0001:0000fd92       ?push_back@?$vector@PAVCBoidObject@@V?$allocator@PAVCBoidObject@@@_STL@@@_STL@@QAEXABQAVCBoidObject@@@Z 33010d92 f i Flock.obj
 0001:0000fdc3       ?insert@?$vector@PAUUIListItem@@V?$allocator@PAUUIListItem@@@_STL@@@_STL@@QAEPAPAUUIListItem@@PAPAU3@ABQAU3@@Z 33010dc3 f i UIListView.obj
 0001:0000fdc3       ?insert@?$vector@PAUUIComboItem@@V?$allocator@PAUUIComboItem@@@_STL@@@_STL@@QAEPAPAUUIComboItem@@PAPAU3@ABQAU3@@Z 33010dc3 f i UIComboBox.obj
 0001:0000fe41       ?_M_insert_overflow@?$vector@P8CUIComboBox@@AEHPAUIFunctionHandler@@@ZV?$allocator@P8CUIComboBox@@AEHPAUIFunctionHandler@@@Z@_STL@@@_STL@@IAEXPAP8CUIComboBox@@AEHPAUIFunctionHandler@@@ZABQ83@AEH0@ZABU__false_type@2@I_N@Z 33010e41 f i UIComboBox.obj
 0001:0000ff2e       ??$__merge_without_buffer@PAPAUUIComboItem@@HP6A_NPAU1@0@Z@_STL@@YAXPAPAUUIComboItem@@00HHP6A_NPAU1@1@Z@Z 33010f2e f i UIComboBox.obj
 0001:0001000c       ??$__merge_sort_with_buffer@PAPAUUIListItem@@PAPAU1@HP6A_NPBU1@0@Z@_STL@@YAXPAPAUUIListItem@@00PAHP6A_NPBU1@2@Z@Z 3301100c f i UIListView.obj
 0001:0001000c       ??$__merge_sort_with_buffer@PAPAUUIComboItem@@PAPAU1@HP6A_NPAU1@0@Z@_STL@@YAXPAPAUUIComboItem@@00PAHP6A_NPAU1@2@Z@Z 3301100c f i UIComboBox.obj
 0001:00010068       ??$__merge_adaptive@PAPAUUIComboItem@@HPAPAU1@P6A_NPAU1@0@Z@_STL@@YAXPAPAUUIComboItem@@00HH0HP6A_NPAU1@1@Z@Z 33011068 f i UIComboBox.obj
 0001:0001017f       ??0UIComboItem@@QAE@XZ     3301117f f i UIComboBox.obj
 0001:00010193       ?push_back@?$vector@P8CUIComboBox@@AEHPAUIFunctionHandler@@@ZV?$allocator@P8CUIComboBox@@AEHPAUIFunctionHandler@@@Z@_STL@@@_STL@@QAEXABQ8CUIComboBox@@AEHPAUIFunctionHandler@@@Z@Z 33011193 f i UIComboBox.obj
 0001:000101ca       ??$__inplace_stable_sort@PAPAUUIComboItem@@P6A_NPAU1@0@Z@_STL@@YAXPAPAUUIComboItem@@0P6A_NPAU1@1@Z@Z 330111ca f i UIComboBox.obj
 0001:00010230       ??$__stable_sort_adaptive@PAPAUUIComboItem@@PAPAU1@HP6A_NPAU1@0@Z@_STL@@YAXPAPAUUIComboItem@@00HP6A_NPAU1@1@Z@Z 33011230 f i UIComboBox.obj
 0001:000102ba       ??_ECUIComboBox@@WNE@AEPAXI@Z 330112ba f i UIComboBox.obj
 0001:000102c5       ?RegisterFunction@?$_ScriptableEx@VCUIComboBox@@@@SAXPAUIScriptSystem@@PBDP8CUIComboBox@@AEHPAUIFunctionHandler@@@Z@Z 330112c5 f i UIComboBox.obj
 0001:00010315       ??$__stable_sort_aux@PAPAUUIComboItem@@PAU1@HP6A_NPAU1@0@Z@_STL@@YAXPAPAUUIComboItem@@00PAHP6A_NPAU1@2@Z@Z 33011315 f i UIComboBox.obj
 0001:00010376       ??$stable_sort@PAPAUUIComboItem@@P6A_NPAU1@0@Z@_STL@@YAXPAPAUUIComboItem@@0P6A_NPAU1@1@Z@Z 33011376 f i UIComboBox.obj
 0001:0001038f       ??$_M_range_initialize@PAG@?$basic_string@GU?$char_traits@G@std@@V?$allocator@G@_STL@@@_STL@@AAEXPAG0ABUforward_iterator_tag@1@@Z 3301138f f i IngameDialog.obj
 0001:0001038f       ??$_M_range_initialize@PBG@?$basic_string@GU?$char_traits@G@std@@V?$allocator@G@_STL@@@_STL@@AAEXPBG0ABUforward_iterator_tag@1@@Z 3301138f f i UIComboBox.obj
 0001:000103c0       ??_GCUIComboBox@@UAEPAXI@Z 330113c0 f i UIComboBox.obj
 0001:000103c0       ??_ECUIComboBox@@UAEPAXI@Z 330113c0 f i UIComboBox.obj
 0001:000103dc       ??0?$basic_string@GU?$char_traits@G@std@@V?$allocator@G@_STL@@@_STL@@QAE@PBGABV?$allocator@G@1@@Z 330113dc f i UIComboBox.obj
 0001:00010427       ?CreateCVars@CUISystem@@QAEHXZ 33011427 f   UICVars.obj
 0001:0001051c       ?ReleaseCVars@CUISystem@@QAEHXZ 3301151c f   UICVars.obj
 0001:00010566       ??1CSoundManager@@QAE@XZ   33011566 f i UIDivX_Video.obj
 0001:0001057a       ?GetQPF@CDivXPlayer@@QAENXZ 3301157a f i UIDivX_Video.obj
 0001:0001058e       ?GetQPC@CDivXPlayer@@QAENXZ 3301158e f i UIDivX_Video.obj
 0001:000105a2       ??_V@YAXPAX@Z              330115a2 f i UIDivX_Video.obj
 0001:000105a2       ??3@YAXPAX@Z               330115a2 f i CryGame.obj
 0001:000105a7       ?Initialize@CSoundManager@@QAEJPAUHWND__@@K@Z 330115a7 f   UIDivX_Video.obj
 0001:000105db       ?SetPrimaryBufferFormat@CSoundManager@@QAEJKKK@Z 330115db f   UIDivX_Video.obj
 0001:0001067e       ?RestoreBuffer@CStreamingSound@@QAEJPAUIDirectSoundBuffer@@PAH@Z 3301167e f   UIDivX_Video.obj
 0001:000106e5       ?GetFreeBuffer@CStreamingSound@@QAEPAUIDirectSoundBuffer@@XZ 330116e5 f   UIDivX_Video.obj
 0001:00010743       ?GetBuffer@CStreamingSound@@QAEPAUIDirectSoundBuffer@@K@Z 33011743 f   UIDivX_Video.obj
 0001:0001075c       ?Stop@CStreamingSound@@QAEJXZ 3301175c f   UIDivX_Video.obj
 0001:0001078e       ?CreateStreaming@CSoundManager@@QAEJKU_GUID@@KKPAX@Z 3301178e f   UIDivX_Video.obj
 0001:000108ed       ?FillBufferWithSound@CStreamingSound@@QAEJPAUIDirectSoundBuffer@@H@Z 330118ed f   UIDivX_Video.obj
 0001:000109ae       ?Play@CStreamingSound@@QAEJKKJJJ@Z 330119ae f   UIDivX_Video.obj
 0001:00010a2e       ?HandleWaveStreamNotification@CStreamingSound@@QAEJH@Z 33011a2e f   UIDivX_Video.obj
 0001:00010c40       ?Reset@CStreamingSound@@QAEJXZ 33011c40 f   UIDivX_Video.obj
 0001:00010c90       _NotificationProc@4        33011c90 f   UIDivX_Video.obj
 0001:00010cf6       ?PlaySoundA@CDivXPlayer@@QAEJXZ 33011cf6 f   UIDivX_Video.obj
 0001:00010d37       ?StopSound@CDivXPlayer@@QAEJXZ 33011d37 f   UIDivX_Video.obj
 0001:00010d5e       ?Update_DivX@CDivXPlayer@@QAE_NPAVCUIVideoPanel@@@Z 33011d5e f   UIDivX_Video.obj
 0001:00010ed9       ?Stop_DivX@CDivXPlayer@@QAEXXZ 33011ed9 f   UIDivX_Video.obj
 0001:00010f89       ?Load_DivX@CDivXPlayer@@QAE_NPAVCUIVideoPanel@@ABV?$basic_string@DU?$char_traits@D@std@@V?$allocator@D@_STL@@@_STL@@@Z 33011f89 f   UIDivX_Video.obj
 0001:000112d9       ?Release@CStreamingSound@@QAEXXZ 330122d9 f i UIDivX_Video.obj
 0001:00011315       ?Init@CStreamingSound@@QAEXPAUIDirectSoundBuffer@@KPAVCWaveFile@@K@Z 33012315 f i UIDivX_Video.obj
 0001:00011359       ??0CDivXPlayer@@QAE@XZ     33012359 f i UIDivX_Video.obj
 0001:00011393       ??1CDivXPlayer@@QAE@XZ     33012393 f i UIDivX_Video.obj
 0001:000113c8       ?GetSelectionStart@CUIEditBox@@QAEHXZ 330123c8 f   UIEditBox.obj
 0001:000113cf       ?GetSelectedCount@CUIEditBox@@QAEHXZ 330123cf f   UIEditBox.obj
 0001:000113d6       ?GetText@CUIEditBox@@QAEHAAV?$basic_string@DU?$char_traits@D@std@@V?$allocator@D@_STL@@@_STL@@@Z 330123d6 f   UIEditBox.obj
 0001:000113f2       ?DrawCursor@CUIEditBox@@AAEHABUUIRect@@PAUIFFont@@MMM@Z 330123f2 f   UIEditBox.obj
 0001:0001146d       ?GetStringLength@CUIEditBox@@AAEHPBG@Z 3301246d f   UIEditBox.obj
 0001:00011483       ?GetTextRect@CUIEditBox@@AAE?AUUIRect@@XZ 33012483 f   UIEditBox.obj
 0001:00011554       ?CopyToClipboard@CUIEditBox@@QAEHXZ 33012554 f   UIEditBox.obj
 0001:0001160b       ?Left@CUIEditBox@@AAEHXZ   3301260b f   UIEditBox.obj
 0001:00011645       ?Right@CUIEditBox@@AAEHXZ  33012645 f   UIEditBox.obj
 0001:0001169c       ?GetCursorPosition@CUIEditBox@@AAEHMMABUUIRect@@PAUIFFont@@@Z 3301269c f   UIEditBox.obj
 0001:000117cc       ?GetText@CUIEditBox@@QAEHPAUIFunctionHandler@@@Z 330127cc f   UIEditBox.obj
 0001:00011886       ?SetMaxLength@CUIEditBox@@QAEHPAUIFunctionHandler@@@Z 33012886 f   UIEditBox.obj
 0001:000119b0       ?GetMaxLength@CUIEditBox@@QAEHPAUIFunctionHandler@@@Z 330129b0 f   UIEditBox.obj
 0001:00011a17       ?GetTextLength@CUIEditBox@@QAEHPAUIFunctionHandler@@@Z 33012a17 f   UIEditBox.obj
 0001:00011a86       ?SetVAlign@CUIEditBox@@QAEHPAUIFunctionHandler@@@Z 33012a86 f   UIEditBox.obj
 0001:00011bb0       ?GetVAlign@CUIEditBox@@QAEHPAUIFunctionHandler@@@Z 33012bb0 f   UIEditBox.obj
 0001:00011c17       ?SetHAlign@CUIEditBox@@QAEHPAUIFunctionHandler@@@Z 33012c17 f   UIEditBox.obj
 0001:00011d41       ?GetHAlign@CUIEditBox@@QAEHPAUIFunctionHandler@@@Z 33012d41 f   UIEditBox.obj
 0001:00011da8       ?SetSelectionStart@CUIEditBox@@QAEHPAUIFunctionHandler@@@Z 33012da8 f   UIEditBox.obj
 0001:00011e0f       ?GetSelectionStart@CUIEditBox@@QAEHPAUIFunctionHandler@@@Z 33012e0f f   UIEditBox.obj
 0001:00011f39       ?SetSelectionCount@CUIEditBox@@QAEHPAUIFunctionHandler@@@Z 33012f39 f   UIEditBox.obj
 0001:00011fa0       ?GetSelectionCount@CUIEditBox@@QAEHPAUIFunctionHandler@@@Z 33012fa0 f   UIEditBox.obj
 0001:000120ca       ?SelectAll@CUIEditBox@@QAEHPAUIFunctionHandler@@@Z 330130ca f   UIEditBox.obj
 0001:00012145       ?DeselectAll@CUIEditBox@@QAEHPAUIFunctionHandler@@@Z 33013145 f   UIEditBox.obj
 0001:000121b4       ?SetCursorPosition@CUIEditBox@@QAEHPAUIFunctionHandler@@@Z 330131b4 f   UIEditBox.obj
 0001:000122de       ?GetCursorPosition@CUIEditBox@@QAEHPAUIFunctionHandler@@@Z 330132de f   UIEditBox.obj
 0001:00012345       ?CopyToClipboard@CUIEditBox@@QAEHPAUIFunctionHandler@@@Z 33013345 f   UIEditBox.obj
 0001:000123ab       ?SetTexture@CUIEditBox@@QAEHPAUIFunctionHandler@@@Z 330133ab f   UIEditBox.obj
 0001:0001251e       ?GetTexture@CUIEditBox@@QAEHPAUIFunctionHandler@@@Z 3301351e f   UIEditBox.obj
 0001:00012596       ?SetCursorColor@CUIEditBox@@QAEHPAUIFunctionHandler@@@Z 33013596 f   UIEditBox.obj
 0001:0001279d       ?GetCursorColor@CUIEditBox@@QAEHPAUIFunctionHandler@@@Z 3301379d f   UIEditBox.obj
 0001:00012821       ?SetNumeric@CUIEditBox@@QAEHPAUIFunctionHandler@@@Z 33013821 f   UIEditBox.obj
 0001:0001294b       ?SetPathSafe@CUIEditBox@@QAEHPAUIFunctionHandler@@@Z 3301394b f   UIEditBox.obj
 0001:00012a75       ?SetNameSafe@CUIEditBox@@QAEHPAUIFunctionHandler@@@Z 33013a75 f   UIEditBox.obj
 0001:00012b9f       ?SetUbiSafe@CUIEditBox@@QAEHPAUIFunctionHandler@@@Z 33013b9f f   UIEditBox.obj
 0001:00012cc9       ?SetPassword@CUIEditBox@@QAEHPAUIFunctionHandler@@@Z 33013cc9 f   UIEditBox.obj
 0001:00012e1d       ?SelectLeft@CUIEditBox@@AAEHXZ 33013e1d f   UIEditBox.obj
 0001:00012e70       ?SelectRight@CUIEditBox@@AAEHXZ 33013e70 f   UIEditBox.obj
 0001:00012ec1       ?Clear@CUIEditBox@@QAEHPAUIFunctionHandler@@@Z 33013ec1 f   UIEditBox.obj
 0001:00012ef0       ?CheckChar@CUIEditBox@@AAEHG@Z 33013ef0 f   UIEditBox.obj
 0001:00013026       ??0CUIEditBox@@QAE@XZ      33014026 f   UIEditBox.obj
 0001:00013145       ??1CUIEditBox@@UAE@XZ      33014145 f   UIEditBox.obj
 0001:000131aa       ?SetText@CUIEditBox@@QAEHABV?$basic_string@GU?$char_traits@G@std@@V?$allocator@G@_STL@@@_STL@@@Z 330141aa f   UIEditBox.obj
 0001:00013231       ?SetText@CUIEditBox@@QAEHPAUIFunctionHandler@@@Z 33014231 f   UIEditBox.obj
 0001:000133cf       ?GetClassName@CUIEditBox@@UAE?AV?$basic_string@DU?$char_traits@D@std@@V?$allocator@D@_STL@@@_STL@@XZ 330143cf f   UIEditBox.obj
 0001:000133ef       ?SetAllow@CUIEditBox@@QAEHPAUIFunctionHandler@@@Z 330143ef f   UIEditBox.obj
 0001:00013544       ?SetDisallow@CUIEditBox@@QAEHPAUIFunctionHandler@@@Z 33014544 f   UIEditBox.obj
 0001:00013699       ?Cut@CUIEditBox@@QAEHXZ    33014699 f   UIEditBox.obj
 0001:000136d8       ?CutToClipboard@CUIEditBox@@QAEHXZ 330146d8 f   UIEditBox.obj
 0001:000136f0       ?PasteFromClipboard@CUIEditBox@@QAEHXZ 330146f0 f   UIEditBox.obj
 0001:0001388d       ?GetText@CUIEditBox@@QAEHAAV?$basic_string@GU?$char_traits@G@std@@V?$allocator@G@_STL@@@_STL@@@Z 3301488d f   UIEditBox.obj
 0001:000138a3       ?DrawSelection@CUIEditBox@@AAEHHHPAUIFFont@@ABUUIRect@@@Z 330148a3 f   UIEditBox.obj
 0001:00013b3e       ?Backspace@CUIEditBox@@AAEHXZ 33014b3e f   UIEditBox.obj
 0001:00013bb1       ?Delete@CUIEditBox@@AAEHXZ 33014bb1 f   UIEditBox.obj
 0001:00013c20       ?InsertChar@CUIEditBox@@AAEHG@Z 33014c20 f   UIEditBox.obj
 0001:00013c71       ?ProcessInput@CUIEditBox@@AAEHIHPAD@Z 33014c71 f   UIEditBox.obj
 0001:00013ede       ?GetCursorCoord@CUIEditBox@@AAEHPAM00ABUUIRect@@PAUIFFont@@@Z 33014ede f   UIEditBox.obj
 0001:0001402b       ?Cut@CUIEditBox@@QAEHPAUIFunctionHandler@@@Z 3301502b f   UIEditBox.obj
 0001:00014091       ?CutToClipboard@CUIEditBox@@QAEHPAUIFunctionHandler@@@Z 33015091 f   UIEditBox.obj
 0001:000140f7       ?PasteFromClipboard@CUIEditBox@@QAEHPAUIFunctionHandler@@@Z 330150f7 f   UIEditBox.obj
 0001:0001415d       ?Update@CUIEditBox@@UAEJIIJ@Z 3301515d f   UIEditBox.obj
 0001:0001431d       ?Draw@CUIEditBox@@UAEHH@Z  3301531d f   UIEditBox.obj
 0001:000146b8       ?InitializeTemplate@CUIEditBox@@SAXPAUIScriptSystem@@@Z 330156b8 f   UIEditBox.obj
 0001:00014bc8       ??1?$_ScriptableEx@VCUIEditBox@@@@UAE@XZ 33015bc8 f i UIEditBox.obj
 0001:00014bff       ??_E?$_ScriptableEx@VCUIEditBox@@@@UAEPAXI@Z 33015bff f i UIEditBox.obj
 0001:00014bff       ??_G?$_ScriptableEx@VCUIEditBox@@@@UAEPAXI@Z 33015bff f i UIEditBox.obj
 0001:00014c1b       ?_M_move@?$basic_string@GU?$char_traits@G@std@@V?$allocator@G@_STL@@@_STL@@AAEXPBG0PAG@Z 33015c1b f i UIEditBox.obj
 0001:00014c3a       ??$fill_n@PAGIG@_STL@@YAPAGPAGIABG@Z 33015c3a f i UIEditBox.obj
 0001:00014c5c       ??0length_error@_STL@@QAE@ABV?$basic_string@DU?$char_traits@D@std@@V?$allocator@D@_STL@@@1@@Z 33015c5c f i IngameDialog.obj
 0001:00014c5c       ??0out_of_range@_STL@@QAE@ABV?$basic_string@DU?$char_traits@D@std@@V?$allocator@D@_STL@@@1@@Z 33015c5c f i UIEditBox.obj
 0001:00014c74       ??$__find_if@PBDU?$_Eq_char_bound@U?$char_traits@D@std@@@_STL@@@_STL@@YAPBDPBD0U?$_Eq_char_bound@U?$char_traits@D@std@@@0@ABUrandom_access_iterator_tag@0@@Z 33015c74 f i UIEditBox.obj
 0001:00014d27       ??$__find_if@PBGU?$_Eq_char_bound@U?$char_traits@G@std@@@_STL@@@_STL@@YAPBGPBG0U?$_Eq_char_bound@U?$char_traits@G@std@@@0@ABUrandom_access_iterator_tag@0@@Z 33015d27 f i UIEditBox.obj
 0001:00014de7       ?FuncThunk@?$_ScriptableEx@VCUIEditBox@@@@KAHPAX@Z 33015de7 f i UIEditBox.obj
 0001:00014e50       ??$find_if@PBDU?$_Eq_char_bound@U?$char_traits@D@std@@@_STL@@@_STL@@YAPBDPBD0U?$_Eq_char_bound@U?$char_traits@D@std@@@0@@Z 33015e50 f i UIEditBox.obj
 0001:00014e6b       ??$find_if@PBGU?$_Eq_char_bound@U?$char_traits@G@std@@@_STL@@@_STL@@YAPBGPBG0U?$_Eq_char_bound@U?$char_traits@G@std@@@0@@Z 33015e6b f i UIEditBox.obj
 0001:00014e86       ?find@?$basic_string@DU?$char_traits@D@std@@V?$allocator@D@_STL@@@_STL@@QBEIDI@Z 33015e86 f i UIEditBox.obj
 0001:00014ec1       ?find@?$basic_string@GU?$char_traits@G@std@@V?$allocator@G@_STL@@@_STL@@QBEIGI@Z 33015ec1 f i UIEditBox.obj
 0001:00014f01       ??$insert@PBG@?$basic_string@GU?$char_traits@G@std@@V?$allocator@G@_STL@@@_STL@@AAEXPAGPBG1ABUforward_iterator_tag@1@@Z 33015f01 f i UIEditBox.obj
 0001:0001503b       ?_M_insert_overflow@?$vector@P8CUIEditBox@@AEHPAUIFunctionHandler@@@ZV?$allocator@P8CUIEditBox@@AEHPAUIFunctionHandler@@@Z@_STL@@@_STL@@IAEXPAP8CUIEditBox@@AEHPAUIFunctionHandler@@@ZABQ83@AEH0@ZABU__false_type@2@I_N@Z 3301603b f i UIEditBox.obj
 0001:00015128       ??$insert@PBG@?$basic_string@GU?$char_traits@G@std@@V?$allocator@G@_STL@@@_STL@@QAEXPAGPBG1@Z 33016128 f i UIEditBox.obj
 0001:00015141       ?push_back@?$vector@P8CUIEditBox@@AEHPAUIFunctionHandler@@@ZV?$allocator@P8CUIEditBox@@AEHPAUIFunctionHandler@@@Z@_STL@@@_STL@@QAEXABQ8CUIEditBox@@AEHPAUIFunctionHandler@@@Z@Z 33016141 f i UIEditBox.obj
 0001:00015178       ?reserve@?$basic_string@GU?$char_traits@G@std@@V?$allocator@G@_STL@@@_STL@@QAEXI@Z 33016178 f i UIEditBox.obj
 0001:000151e3       ?append@?$basic_string@GU?$char_traits@G@std@@V?$allocator@G@_STL@@@_STL@@QAEAAV12@IG@Z 330161e3 f i UIEditBox.obj
 0001:00015276       ??_ECUIEditBox@@WNE@AEPAXI@Z 33016276 f i UIEditBox.obj
 0001:00015281       ?push_back@?$basic_string@GU?$char_traits@G@std@@V?$allocator@G@_STL@@@_STL@@QAEXG@Z 33016281 f i UIEditBox.obj
 0001:000152d7       ?RegisterFunction@?$_ScriptableEx@VCUIEditBox@@@@SAXPAUIScriptSystem@@PBDP8CUIEditBox@@AEHPAUIFunctionHandler@@@Z@Z 330162d7 f i UIEditBox.obj
 0001:00015327       ?resize@?$basic_string@GU?$char_traits@G@std@@V?$allocator@G@_STL@@@_STL@@QAEXIG@Z 33016327 f i UIEditBox.obj
 0001:00015359       ??_ECUIEditBox@@UAEPAXI@Z  33016359 f i UIEditBox.obj
 0001:00015359       ??_GCUIEditBox@@UAEPAXI@Z  33016359 f i UIEditBox.obj
 0001:00015375       ?__stl_throw_out_of_range@_STL@@YAXPBD@Z 33016375 f i UIEditBox.obj
 0001:000153b6       ??0out_of_range@_STL@@QAE@ABV01@@Z 330163b6 f i UIEditBox.obj
 0001:000153b6       ??0length_error@_STL@@QAE@ABV01@@Z 330163b6 f i IngameDialog.obj
 0001:000153ce       ??$?0PAG@?$basic_string@GU?$char_traits@G@std@@V?$allocator@G@_STL@@@_STL@@QAE@PAG0ABV?$allocator@G@1@@Z 330163ce f i UIEditBox.obj
 0001:0001540d       ?insert@?$basic_string@GU?$char_traits@G@std@@V?$allocator@G@_STL@@@_STL@@QAEAAV12@IPBGI@Z 3301640d f i UIEditBox.obj
 0001:00015462       ?insert@?$basic_string@GU?$char_traits@G@std@@V?$allocator@G@_STL@@@_STL@@QAEAAV12@IPBG@Z 33016462 f i UIEditBox.obj
 0001:000154cb       ?erase@?$basic_string@GU?$char_traits@G@std@@V?$allocator@G@_STL@@@_STL@@QAEAAV12@II@Z 330164cb f i UIEditBox.obj
 0001:00015515       ?substr@?$basic_string@GU?$char_traits@G@std@@V?$allocator@G@_STL@@@_STL@@QBE?AV12@II@Z 33016515 f i UIEditBox.obj
 0001:00015568       ??0CUIHud@@QAE@PAVCXGame@@PAUISystem@@@Z 33016568 f   UIHud.obj
 0001:000155be       ?Reset@CUIHud@@QAE_NXZ     330165be f   UIHud.obj
 0001:000156a7       ?Init@CUIHud@@QAE_NPAUIScriptSystem@@@Z 330166a7 f   UIHud.obj
 0001:000156b5       ?SetFont@CUIHud@@QAEXPBD0@Z 330166b5 f   UIHud.obj
 0001:00015705       ?Update@CUIHud@@QAE_NXZ    33016705 f   UIHud.obj
 0001:00015738       ?ShutDown@CUIHud@@QAEXXZ   33016738 f   UIHud.obj
 0001:00015766       ??1CUIHud@@QAE@XZ          33016766 f   UIHud.obj
 0001:00015782       ?WriteNumber@CUIHud@@QAEXHHHMMMMMM@Z 33016782 f   UIHud.obj
 0001:00015807       ?WriteString@CUIHud@@QAEXHHPBGMMMMMMM@Z 33016807 f   UIHud.obj
 0001:000158a2       ?WriteStringFixed@CUIHud@@QAEXHHPBGMMMMMMM@Z 330168a2 f   UIHud.obj
 0001:0001592a       ?GetListRect@CUIListView@@AAE?AUUIRect@@_N@Z 3301692a f   UIListView.obj
 0001:000159f7       ?FindColumnAt@CUIListView@@QAEHMMPAPAUUIListColumn@@@Z 330169f7 f   UIListView.obj
 0001:00015aa3       ?GetSelectionCount@CUIListView@@QAEHXZ 33016aa3 f   UIListView.obj
 0001:00015ab5       ?GetItemCount@CUIListView@@QAEHXZ 33016ab5 f   UIListView.obj
 0001:00015ac7       ?GetItem@CUIListView@@QAEPAUUIListItem@@HPAPAPAU2@@Z 33016ac7 f   UIListView.obj
 0001:00015afa       ?GetHeaderRect@CUIListView@@AAE?AUUIRect@@XZ 33016afa f   UIListView.obj
 0001:00015b41       ?GetColumnRect@CUIListView@@AAE?AUUIRect@@H@Z 33016b41 f   UIListView.obj
 0001:00015bc1       ?SetCellPadding@CUIListView@@QAEHPAUIFunctionHandler@@@Z 33016bc1 f   UIListView.obj
 0001:00015ceb       ?GetCellPadding@CUIListView@@QAEHPAUIFunctionHandler@@@Z 33016ceb f   UIListView.obj
 0001:00015d56       ?SetCellSpacing@CUIListView@@QAEHPAUIFunctionHandler@@@Z 33016d56 f   UIListView.obj
 0001:00015e80       ?GetCellSpacing@CUIListView@@QAEHPAUIFunctionHandler@@@Z 33016e80 f   UIListView.obj
 0001:00015eeb       ?SetItemHeight@CUIListView@@QAEHPAUIFunctionHandler@@@Z 33016eeb f   UIListView.obj
 0001:00016015       ?GetItemHeight@CUIListView@@QAEHPAUIFunctionHandler@@@Z 33017015 f   UIListView.obj
 0001:00016080       ?SetHeaderHeight@CUIListView@@QAEHPAUIFunctionHandler@@@Z 33017080 f   UIListView.obj
 0001:000161aa       ?GetHeaderHeight@CUIListView@@QAEHPAUIFunctionHandler@@@Z 330171aa f   UIListView.obj
 0001:00016215       ?FindColumnAt@CUIListView@@QAEHPAUIFunctionHandler@@@Z 33017215 f   UIListView.obj
 0001:0001642d       ?GetSelectionCount@CUIListView@@QAEHPAUIFunctionHandler@@@Z 3301742d f   UIListView.obj
 0001:0001649d       ?GetSelection@CUIListView@@QAEHPAUIFunctionHandler@@@Z 3301749d f   UIListView.obj
 0001:0001660a       ?GetSelectedColumn@CUIListView@@QAEHPAUIFunctionHandler@@@Z 3301760a f   UIListView.obj
 0001:00016671       ?GetItem@CUIListView@@QAEHPAUIFunctionHandler@@@Z 33017671 f   UIListView.obj
 0001:000167e2       ?GetItemCount@CUIListView@@QAEHPAUIFunctionHandler@@@Z 330177e2 f   UIListView.obj
 0001:00016852       ?GetSubItem@CUIListView@@QAEHPAUIFunctionHandler@@@Z 33017852 f   UIListView.obj
 0001:00016a8d       ?GetSubItemCount@CUIListView@@QAEHPAUIFunctionHandler@@@Z 33017a8d f   UIListView.obj
 0001:00016be3       ?Sort@CUIListView@@QAEHPAUIFunctionHandler@@@Z 33017be3 f   UIListView.obj
 0001:00016c44       ?SetItemImage@CUIListView@@QAEHPAUIFunctionHandler@@@Z 33017c44 f   UIListView.obj
 0001:00016f47       ?ClearItemImage@CUIListView@@QAEHPAUIFunctionHandler@@@Z 33017f47 f   UIListView.obj
 0001:0001718a       ?FindItemAt@CUIListView@@QAEHMMPAPAUUIListItem@@PAHPAPAPAU2@@Z 3301818a f   UIListView.obj
 0001:000172c9       ?ScrollTo@CUIListView@@QAEHH@Z 330182c9 f   UIListView.obj
 0001:00017404       ?DeselectIndex@CUIListView@@QAEHH@Z 33018404 f   UIListView.obj
 0001:00017437       ?IsSelectedIndex@CUIListView@@QAE_NH@Z 33018437 f   UIListView.obj
 0001:0001745f       ?GetItem@CUIListView@@QAEPAUUIListItem@@ABV?$basic_string@GU?$char_traits@G@std@@V?$allocator@G@_STL@@@_STL@@PAPAPAU2@@Z 3301845f f   UIListView.obj
 0001:0001749f       ?DrawListColumn@CUIListView@@AAEHHABUUIRect@@U2@MMPAUIFFont@@@Z 3301849f f   UIListView.obj
 0001:000178fb       ?FindItemAt@CUIListView@@QAEHPAUIFunctionHandler@@@Z 330188fb f   UIListView.obj
 0001:00017b16       ?DeselectIndex@CUIListView@@QAEHPAUIFunctionHandler@@@Z 33018b16 f   UIListView.obj
 0001:00017c59       ?IsSelectedIndex@CUIListView@@QAEHPAUIFunctionHandler@@@Z 33018c59 f   UIListView.obj
 0001:00017da4       ?Draw@CUIListView@@UAEHH@Z 33018da4 f   UIListView.obj
 0001:000181bb       ?Deselect@CUIListView@@QAEHABV?$basic_string@GU?$char_traits@G@std@@V?$allocator@G@_STL@@@_STL@@@Z 330191bb f   UIListView.obj
 0001:000181df       ?IsSelected@CUIListView@@QAE_NABV?$basic_string@GU?$char_traits@G@std@@V?$allocator@G@_STL@@@_STL@@@Z 330191df f   UIListView.obj
 0001:00018203       ?ClearSelection@CUIListView@@QAEHXZ 33019203 f   UIListView.obj
 0001:0001821a       ?ClearSelection@CUIListView@@QAEHPAUIFunctionHandler@@@Z 3301921a f   UIListView.obj
 0001:00018280       ?SelectIndex@CUIListView@@QAEHH@Z 33019280 f   UIListView.obj
 0001:000182b3       ?Select@CUIListView@@QAEHABV?$basic_string@GU?$char_traits@G@std@@V?$allocator@G@_STL@@@_STL@@@Z 330192b3 f   UIListView.obj
 0001:000182dd       ?SortCallback@CUIListView@@CA_NPBUUIListItem@@0@Z 330192dd f   UIListView.obj
 0001:0001846e       ?SelectIndex@CUIListView@@QAEHPAUIFunctionHandler@@@Z 3301946e f   UIListView.obj
 0001:000185b1       ?Select@CUIListView@@QAEHPAUIFunctionHandler@@@Z 330195b1 f   UIListView.obj
 0001:00018739       ?Deselect@CUIListView@@QAEHPAUIFunctionHandler@@@Z 33019739 f   UIListView.obj
 0001:000188c1       ?IsSelected@CUIListView@@QAEHPAUIFunctionHandler@@@Z 330198c1 f   UIListView.obj
 0001:00018a4a       ?ClearImageList@CUIListView@@QAEHPAUIFunctionHandler@@@Z 33019a4a f   UIListView.obj
 0001:00018abd       ?AddImage@CUIListView@@QAEHPAUIFunctionHandler@@@Z 33019abd f   UIListView.obj
 0001:00018ea7       ?AddImageList@CUIListView@@QAEHPAUIFunctionHandler@@@Z 33019ea7 f   UIListView.obj
 0001:00019182       ?Sort@CUIListView@@QAEHXZ  3301a182 f   UIListView.obj
 0001:000191a5       ?SortEx@CUIListView@@QAEHHH@Z 3301a1a5 f   UIListView.obj
 0001:00019205       ?SortEx@CUIListView@@QAEHPAUIFunctionHandler@@@Z 3301a205 f   UIListView.obj
 0001:00019414       ?GetClassName@CUIListView@@UAE?AV?$basic_string@DU?$char_traits@D@std@@V?$allocator@D@_STL@@@_STL@@XZ 3301a414 f   UIListView.obj
 0001:00019434       ?Update@CUIListView@@UAEJIIJ@Z 3301a434 f   UIListView.obj
 0001:0001a149       ??0CUIListView@@QAE@XZ     3301b149 f   UIListView.obj
 0001:0001a2a8       ?Clear@CUIListView@@QAEHXZ 3301b2a8 f   UIListView.obj
 0001:0001a309       ?Clear@CUIListView@@QAEHPAUIFunctionHandler@@@Z 3301b309 f   UIListView.obj
 0001:0001a36f       ??1CUIListView@@UAE@XZ     3301b36f f   UIListView.obj
 0001:0001a3e4       ?RemoveItem@CUIListView@@QAEHH@Z 3301b3e4 f   UIListView.obj
 0001:0001a444       ?RemoveItem@CUIListView@@QAEHPAUIFunctionHandler@@@Z 3301b444 f   UIListView.obj
 0001:0001a587       ?AddItem@CUIListView@@QAEHABV?$basic_string@GU?$char_traits@G@std@@V?$allocator@G@_STL@@@_STL@@@Z 3301b587 f   UIListView.obj
 0001:0001a6c4       ?AddItem@CUIListView@@QAEHABV?$vector@V?$basic_string@GU?$char_traits@G@std@@V?$allocator@G@_STL@@@_STL@@V?$allocator@V?$basic_string@GU?$char_traits@G@std@@V?$allocator@G@_STL@@@_STL@@@2@@_STL@@@Z 3301b6c4 f   UIListView.obj
 0001:0001a81f       ?InsertItem@CUIListView@@QAEHHABV?$basic_string@GU?$char_traits@G@std@@V?$allocator@G@_STL@@@_STL@@@Z 3301b81f f   UIListView.obj
 0001:0001a94a       ?InsertItem@CUIListView@@QAEHHABV?$vector@V?$basic_string@GU?$char_traits@G@std@@V?$allocator@G@_STL@@@_STL@@V?$allocator@V?$basic_string@GU?$char_traits@G@std@@V?$allocator@G@_STL@@@_STL@@@2@@_STL@@@Z 3301b94a f   UIListView.obj
 0001:0001aacd       ?AddSubItem@CUIListView@@QAEHHABV?$basic_string@GU?$char_traits@G@std@@V?$allocator@G@_STL@@@_STL@@@Z 3301bacd f   UIListView.obj
 0001:0001ab41       ?AddColumn@CUIListView@@QAEHABV?$basic_string@GU?$char_traits@G@std@@V?$allocator@G@_STL@@@_STL@@MHABU?$color4@M@@1ABUUISkinTexture@@_N33@Z 3301bb41 f   UIListView.obj
 0001:0001abe6       ?AddItem@CUIListView@@QAEHPAUIFunctionHandler@@@Z 3301bbe6 f   UIListView.obj
 0001:0001ad48       ?AddSubItem@CUIListView@@QAEHPAUIFunctionHandler@@@Z 3301bd48 f   UIListView.obj
 0001:0001afc6       ?InsertItem@CUIListView@@QAEHPAUIFunctionHandler@@@Z 3301bfc6 f   UIListView.obj
 0001:0001b287       ?AddColumn@CUIListView@@QAEHPAUIFunctionHandler@@@Z 3301c287 f   UIListView.obj
 0001:0001bce1       ?RemoveSubItem@CUIListView@@QAEHHH@Z 3301cce1 f   UIListView.obj
 0001:0001bd1d       ?RemoveColumn@CUIListView@@QAEHH@Z 3301cd1d f   UIListView.obj
 0001:0001bd51       ?RemoveSubItem@CUIListView@@QAEHPAUIFunctionHandler@@@Z 3301cd51 f   UIListView.obj
 0001:0001bf57       ?RemoveColumn@CUIListView@@QAEHPAUIFunctionHandler@@@Z 3301cf57 f   UIListView.obj
 0001:0001c09a       ?ClearColumns@CUIListView@@QAEHXZ 3301d09a f   UIListView.obj
 0001:0001c0b9       ?ClearColumns@CUIListView@@QAEHPAUIFunctionHandler@@@Z 3301d0b9 f   UIListView.obj
 0001:0001c11f       ?InitializeTemplate@CUIListView@@SAXPAUIScriptSystem@@@Z 3301d11f f   UIListView.obj
 0001:0001c6da       ??1?$_ScriptableEx@VCUIListView@@@@UAE@XZ 3301d6da f i UIListView.obj
 0001:0001c711       ??_G?$_ScriptableEx@VCUIListView@@@@UAEPAXI@Z 3301d711 f i UIListView.obj
 0001:0001c711       ??_E?$_ScriptableEx@VCUIListView@@@@UAEPAXI@Z 3301d711 f i UIListView.obj
 0001:0001c72d       ??$_Construct@UUIListImage@@U1@@_STL@@YAXPAUUIListImage@@ABU1@@Z 3301d72d f i UIListView.obj
 0001:0001c743       ??$__copy@PAUUIListImage@@PAU1@H@_STL@@YAPAUUIListImage@@PAU1@00ABUrandom_access_iterator_tag@0@PAH@Z 3301d743 f i UIListView.obj
 0001:0001c775       ?_M_allocate_buffer@?$_Temporary_buffer@PAPAUUIComboItem@@PAU1@@_STL@@AAEXXZ 3301d775 f i UIComboBox.obj
 0001:0001c775       ?_M_allocate_buffer@?$_Temporary_buffer@PAPAUUIListItem@@PAU1@@_STL@@AAEXXZ 3301d775 f i UIListView.obj
 0001:0001c7b6       ??0UIBorder@@QAE@XZ        3301d7b6 f i UIListView.obj
 0001:0001c7df       ??$__copy_ptrs@PAUUIListImage@@PAU1@@_STL@@YAPAUUIListImage@@PAU1@00ABU__false_type@0@@Z 3301d7df f i UIListView.obj
 0001:0001c7fc       ??$__unguarded_insertion_sort_aux@PAPAUUIListItem@@PAU1@P6A_NPBU1@0@Z@_STL@@YAXPAPAUUIListItem@@00P6A_NPBU1@1@Z@Z 3301d7fc f i UIListView.obj
 0001:0001c7fc       ??$__unguarded_insertion_sort_aux@PAPAVCUIWidget@@PAV1@P6A_NPAV1@0@Z@_STL@@YAXPAPAVCUIWidget@@00P6A_NPAV1@1@Z@Z 3301d7fc f i UISystem.obj
 0001:0001c81d       ??$__adjust_heap@PAPAUUIListItem@@HPAU1@P6A_NPBU1@0@Z@_STL@@YAXPAPAUUIListItem@@HHPAU1@P6A_NPBU1@2@Z@Z 3301d81d f i UIListView.obj
 0001:0001c81d       ??$__adjust_heap@PAPAVCUIWidget@@HPAV1@P6A_NPAV1@0@Z@_STL@@YAXPAPAVCUIWidget@@HHPAV1@P6A_N11@Z@Z 3301d81d f i UISystem.obj
 0001:0001c878       ?FuncThunk@?$_ScriptableEx@VCUIListView@@@@KAHPAX@Z 3301d878 f i UIListView.obj
 0001:0001c8e1       ??0?$_Temporary_buffer@PAPAUUIListItem@@PAU1@@_STL@@QAE@PAPAUUIListItem@@0@Z 3301d8e1 f i UIListView.obj
 0001:0001c8e1       ??0?$_Temporary_buffer@PAPAUUIComboItem@@PAU1@@_STL@@QAE@PAPAUUIComboItem@@0@Z 3301d8e1 f i UIComboBox.obj
 0001:0001c8fd       ??1?$_Temporary_buffer@PAPAUUIListItem@@PAU1@@_STL@@QAE@XZ 3301d8fd f i UIListView.obj
 0001:0001c8fd       ??1?$_Temporary_buffer@PAPAUUIComboItem@@PAU1@@_STL@@QAE@XZ 3301d8fd f i UIComboBox.obj
 0001:0001c907       ??$__unguarded_insertion_sort@PAPAVCUIWidget@@P6A_NPAV1@0@Z@_STL@@YAXPAPAVCUIWidget@@0P6A_NPAV1@1@Z@Z 3301d907 f i UISystem.obj
 0001:0001c907       ??$__unguarded_insertion_sort@PAPAUUIListItem@@P6A_NPBU1@0@Z@_STL@@YAXPAPAUUIListItem@@0P6A_NPBU1@1@Z@Z 3301d907 f i UIListView.obj
 0001:0001c91e       ??$lower_bound@PAPAUUIListItem@@PAU1@P6A_NPBU1@0@Z@_STL@@YAPAPAUUIListItem@@PAPAU1@0ABQAU1@P6A_NPBU1@2@Z@Z 3301d91e f i UIListView.obj
 0001:0001c91e       ??$lower_bound@PAPAUUIComboItem@@PAU1@P6A_NPAU1@0@Z@_STL@@YAPAPAUUIComboItem@@PAPAU1@0ABQAU1@P6A_NPAU1@2@Z@Z 3301d91e f i UIComboBox.obj
 0001:0001c939       ??$upper_bound@PAPAUUIComboItem@@PAU1@P6A_NPAU1@0@Z@_STL@@YAPAPAUUIComboItem@@PAPAU1@0ABQAU1@P6A_NPAU1@2@Z@Z 3301d939 f i UIComboBox.obj
 0001:0001c939       ??$upper_bound@PAPAUUIListItem@@PAU1@P6A_NPBU1@0@Z@_STL@@YAPAPAUUIListItem@@PAPAU1@0ABQAU1@P6A_NPBU1@2@Z@Z 3301d939 f i UIListView.obj
 0001:0001c954       ??$__pop_heap@PAPAUUIListItem@@PAU1@P6A_NPBU1@0@ZH@_STL@@YAXPAPAUUIListItem@@00PAU1@P6A_NPBU1@2@ZPAH@Z 3301d954 f i UIListView.obj
 0001:0001c954       ??$__pop_heap@PAPAVCUIWidget@@PAV1@P6A_NPAV1@0@ZH@_STL@@YAXPAPAVCUIWidget@@00PAV1@P6A_N11@ZPAH@Z 3301d954 f i UISystem.obj
 0001:0001c97d       ??$__rotate@PAPAUUIListItem@@HPAU1@@_STL@@YAPAPAUUIListItem@@PAPAU1@00PAH0@Z 3301d97d f i UIListView.obj
 0001:0001c97d       ??$__rotate@PAPAUUIComboItem@@HPAU1@@_STL@@YAPAPAUUIComboItem@@PAPAU1@00PAH0@Z 3301d97d f i UIComboBox.obj
 0001:0001ca82       ??$__pop_heap_aux@PAPAUUIListItem@@PAU1@P6A_NPBU1@0@Z@_STL@@YAXPAPAUUIListItem@@00P6A_NPBU1@1@Z@Z 3301da82 f i UIListView.obj
 0001:0001ca82       ??$__pop_heap_aux@PAPAVCUIWidget@@PAV1@P6A_NPAV1@0@Z@_STL@@YAXPAPAVCUIWidget@@00P6A_NPAV1@1@Z@Z 3301da82 f i UISystem.obj
 0001:0001caa0       ??1?$_Vector_base@UUIListSubItem@@V?$allocator@UUIListSubItem@@@_STL@@@_STL@@QAE@XZ 3301daa0 f i UIListView.obj
 0001:0001caa0       ??1?$_Vector_base@USTableEntry@CSynched2DTable@@V?$allocator@USTableEntry@CSynched2DTable@@@_STL@@@_STL@@QAE@XZ 3301daa0 f i Synched2DTable.obj
 0001:0001cab8       ??$__uninitialized_copy@PAUUIListImage@@PAU1@@_STL@@YAPAUUIListImage@@PAU1@00ABU__false_type@0@@Z 3301dab8 f i UIListView.obj
 0001:0001cade       ??$__uninitialized_fill_n@PAUUIListImage@@IU1@@_STL@@YAPAUUIListImage@@PAU1@IABU1@ABU__false_type@0@@Z 3301dade f i UIListView.obj
 0001:0001cb03       ??$__uninitialized_copy@PAP8CUIVideoPanel@@AEHPAUIFunctionHandler@@@ZPAP81@AEH0@Z@_STL@@YAPAP8CUIVideoPanel@@AEHPAUIFunctionHandler@@@ZPAP81@AEH0@Z11ABU__false_type@0@@Z 3301db03 f i UIVideoPanel.obj
 0001:0001cb03       ??$__uninitialized_copy@PAP8CScriptObjectPlayer@@AEHPAUIFunctionHandler@@@ZPAP81@AEH0@Z@_STL@@YAPAP8CScriptObjectPlayer@@AEHPAUIFunctionHandler@@@ZPAP81@AEH0@Z11ABU__false_type@0@@Z 3301db03 f i ScriptObjectPlayer.obj
 0001:0001cb03       ??$__uninitialized_copy@PAP8CUIButton@@AEHPAUIFunctionHandler@@@ZPAP81@AEH0@Z@_STL@@YAPAP8CUIButton@@AEHPAUIFunctionHandler@@@ZPAP81@AEH0@Z11ABU__false_type@0@@Z 3301db03 f i UIButton.obj
 0001:0001cb03       ??$__uninitialized_copy@PAP8CUIScrollBar@@AEHPAUIFunctionHandler@@@ZPAP81@AEH0@Z@_STL@@YAPAP8CUIScrollBar@@AEHPAUIFunctionHandler@@@ZPAP81@AEH0@Z11ABU__false_type@0@@Z 3301db03 f i UIScrollBar.obj
 0001:0001cb03       ??$__uninitialized_copy@PAP8CUIStatic@@AEHPAUIFunctionHandler@@@ZPAP81@AEH0@Z@_STL@@YAPAP8CUIStatic@@AEHPAUIFunctionHandler@@@ZPAP81@AEH0@Z11ABU__false_type@0@@Z 3301db03 f i UIStatic.obj
 0001:0001cb03       ??$__uninitialized_copy@PAP8CScriptObjectSynched2DTable@@AEHPAUIFunctionHandler@@@ZPAP81@AEH0@Z@_STL@@YAPAP8CScriptObjectSynched2DTable@@AEHPAUIFunctionHandler@@@ZPAP81@AEH0@Z11ABU__false_type@0@@Z 3301db03 f i ScriptObjectSynched2DTable.obj
 0001:0001cb03       ??$__uninitialized_copy@PAP8CUICheckBox@@AEHPAUIFunctionHandler@@@ZPAP81@AEH0@Z@_STL@@YAPAP8CUICheckBox@@AEHPAUIFunctionHandler@@@ZPAP81@AEH0@Z11ABU__false_type@0@@Z 3301db03 f i UICheckBox.obj
 0001:0001cb03       ??$__uninitialized_copy@PAP8CScriptObjectWeaponClass@@AEHPAUIFunctionHandler@@@ZPAP81@AEH0@Z@_STL@@YAPAP8CScriptObjectWeaponClass@@AEHPAUIFunctionHandler@@@ZPAP81@AEH0@Z11ABU__false_type@0@@Z 3301db03 f i ScriptObjectWeaponClass.obj
 0001:0001cb03       ??$__uninitialized_copy@PAP8CScriptObjectVehicle@@AEHPAUIFunctionHandler@@@ZPAP81@AEH0@Z@_STL@@YAPAP8CScriptObjectVehicle@@AEHPAUIFunctionHandler@@@ZPAP81@AEH0@Z11ABU__false_type@0@@Z 3301db03 f i ScriptObjectVehicle.obj
 0001:0001cb03       ??$__uninitialized_copy@PAP8CScriptObjectAdvCamSystem@@AEHPAUIFunctionHandler@@@ZPAP81@AEH0@Z@_STL@@YAPAP8CScriptObjectAdvCamSystem@@AEHPAUIFunctionHandler@@@ZPAP81@AEH0@Z11ABU__false_type@0@@Z 3301db03 f i ScriptObjectAdvCamSystem.obj
 0001:0001cb03       ??$__uninitialized_copy@PAP8CUIListView@@AEHPAUIFunctionHandler@@@ZPAP81@AEH0@Z@_STL@@YAPAP8CUIListView@@AEHPAUIFunctionHandler@@@ZPAP81@AEH0@Z11ABU__false_type@0@@Z 3301db03 f i UIListView.obj
 0001:0001cb03       ??$__uninitialized_copy@PAP8CUIEditBox@@AEHPAUIFunctionHandler@@@ZPAP81@AEH0@Z@_STL@@YAPAP8CUIEditBox@@AEHPAUIFunctionHandler@@@ZPAP81@AEH0@Z11ABU__false_type@0@@Z 3301db03 f i UIEditBox.obj
 0001:0001cb03       ??$__uninitialized_copy@PAP8CScriptObjectSpectator@@AEHPAUIFunctionHandler@@@ZPAP81@AEH0@Z@_STL@@YAPAP8CScriptObjectSpectator@@AEHPAUIFunctionHandler@@@ZPAP81@AEH0@Z11ABU__false_type@0@@Z 3301db03 f i ScriptObjectSpectator.obj
 0001:0001cb03       ??$__uninitialized_copy@PAP8CUIComboBox@@AEHPAUIFunctionHandler@@@ZPAP81@AEH0@Z@_STL@@YAPAP8CUIComboBox@@AEHPAUIFunctionHandler@@@ZPAP81@AEH0@Z11ABU__false_type@0@@Z 3301db03 f i UIComboBox.obj
 0001:0001cb29       ??$__linear_insert@PAPAUUIComboItem@@PAU1@P6A_NPAU1@0@Z@_STL@@YAXPAPAUUIComboItem@@0PAU1@P6A_N11@Z@Z 3301db29 f i UIComboBox.obj
 0001:0001cb29       ??$__linear_insert@PAPAVCUIWidget@@PAV1@P6A_NPAV1@0@Z@_STL@@YAXPAPAVCUIWidget@@0PAV1@P6A_N11@Z@Z 3301db29 f i UISystem.obj
 0001:0001cb29       ??$__linear_insert@PAPAUUIListItem@@PAU1@P6A_NPBU1@0@Z@_STL@@YAXPAPAUUIListItem@@0PAU1@P6A_NPBU1@2@Z@Z 3301db29 f i UIListView.obj
 0001:0001cb65       ??$__merge_sort_loop@PAPAUUIComboItem@@PAPAU1@HP6A_NPAU1@0@Z@_STL@@YAXPAPAUUIComboItem@@00HP6A_NPAU1@1@Z@Z 3301db65 f i UIComboBox.obj
 0001:0001cb65       ??$__merge_sort_loop@PAPAUUIListItem@@PAPAU1@HP6A_NPBU1@0@Z@_STL@@YAXPAPAUUIListItem@@00HP6A_NPBU1@1@Z@Z 3301db65 f i UIListView.obj
 0001:0001cc08       ?erase@?$vector@UUIListImage@@V?$allocator@UUIListImage@@@_STL@@@_STL@@QAEPAUUIListImage@@PAU3@0@Z 3301dc08 f i UIListView.obj
 0001:0001cc2e       ?_M_clear@?$vector@UUIListImage@@V?$allocator@UUIListImage@@@_STL@@@_STL@@IAEXXZ 3301dc2e f i UIListView.obj
 0001:0001cc49       ??$rotate@PAPAUUIListItem@@@_STL@@YAPAPAUUIListItem@@PAPAU1@00@Z 3301dc49 f i UIListView.obj
 0001:0001cc49       ??$rotate@PAPAUUIComboItem@@@_STL@@YAPAPAUUIComboItem@@PAPAU1@00@Z 3301dc49 f i UIComboBox.obj
 0001:0001cc62       ??$__chunk_insertion_sort@PAPAUUIComboItem@@HP6A_NPAU1@0@Z@_STL@@YAXPAPAUUIComboItem@@0HP6A_NPAU1@1@Z@Z 3301dc62 f i UIComboBox.obj
 0001:0001cc62       ??$__chunk_insertion_sort@PAPAUUIListItem@@HP6A_NPBU1@0@Z@_STL@@YAXPAPAUUIListItem@@0HP6A_NPBU1@1@Z@Z 3301dc62 f i UIListView.obj
 0001:0001ccb9       ??$__rotate_adaptive@PAPAUUIComboItem@@PAPAU1@H@_STL@@YAPAPAUUIComboItem@@PAPAU1@00HH0H@Z 3301dcb9 f i UIComboBox.obj
 0001:0001ccb9       ??$__rotate_adaptive@PAPAUUIListItem@@PAPAU1@H@_STL@@YAPAPAUUIListItem@@PAPAU1@00HH0H@Z 3301dcb9 f i UIListView.obj
 0001:0001cd40       ??$sort_heap@PAPAUUIListItem@@P6A_NPBU1@0@Z@_STL@@YAXPAPAUUIListItem@@0P6A_NPBU1@1@Z@Z 3301dd40 f i UIListView.obj
 0001:0001cd7b       ?_M_insert_overflow@?$vector@UUIListImage@@V?$allocator@UUIListImage@@@_STL@@@_STL@@IAEXPAUUIListImage@@ABU3@ABU__false_type@2@I_N@Z 3301dd7b f i UIListView.obj
 0001:0001ce6d       ?_M_insert_overflow@?$vector@P8CUIListView@@AEHPAUIFunctionHandler@@@ZV?$allocator@P8CUIListView@@AEHPAUIFunctionHandler@@@Z@_STL@@@_STL@@IAEXPAP8CUIListView@@AEHPAUIFunctionHandler@@@ZABQ83@AEH0@ZABU__false_type@2@I_N@Z 3301de6d f i UIListView.obj
 0001:0001cf5a       ??$__merge_without_buffer@PAPAUUIListItem@@HP6A_NPBU1@0@Z@_STL@@YAXPAPAUUIListItem@@00HHP6A_NPBU1@1@Z@Z 3301df5a f i UIListView.obj
 0001:0001d038       ??$__merge_adaptive@PAPAUUIListItem@@HPAPAU1@P6A_NPBU1@0@Z@_STL@@YAXPAPAUUIListItem@@00HH0HP6A_NPBU1@1@Z@Z 3301e038 f i UIListView.obj
 0001:0001d14f       ??$__partial_sort@PAPAUUIListItem@@PAU1@P6A_NPBU1@0@Z@_STL@@YAXPAPAUUIListItem@@000P6A_NPBU1@1@Z@Z 3301e14f f i UIListView.obj
 0001:0001d1a8       ?push_back@?$vector@UUIListImage@@V?$allocator@UUIListImage@@@_STL@@@_STL@@QAEXABUUIListImage@@@Z 3301e1a8 f i UIListView.obj
 0001:0001d1df       ?push_back@?$vector@P8CUIListView@@AEHPAUIFunctionHandler@@@ZV?$allocator@P8CUIListView@@AEHPAUIFunctionHandler@@@Z@_STL@@@_STL@@QAEXABQ8CUIListView@@AEHPAUIFunctionHandler@@@Z@Z 3301e1df f i UIListView.obj
 0001:0001d216       ??$__inplace_stable_sort@PAPAUUIListItem@@P6A_NPBU1@0@Z@_STL@@YAXPAPAUUIListItem@@0P6A_NPBU1@1@Z@Z 3301e216 f i UIListView.obj
 0001:0001d27c       ??$__stable_sort_adaptive@PAPAUUIListItem@@PAPAU1@HP6A_NPBU1@0@Z@_STL@@YAXPAPAUUIListItem@@00HP6A_NPBU1@1@Z@Z 3301e27c f i UIListView.obj
 0001:0001d306       ??$partial_sort@PAPAUUIListItem@@P6A_NPBU1@0@Z@_STL@@YAXPAPAUUIListItem@@00P6A_NPBU1@1@Z@Z 3301e306 f i UIListView.obj
 0001:0001d321       ?RegisterFunction@?$_ScriptableEx@VCUIListView@@@@SAXPAUIScriptSystem@@PBDP8CUIListView@@AEHPAUIFunctionHandler@@@Z@Z 3301e321 f i UIListView.obj
 0001:0001d371       ??$__stable_sort_aux@PAPAUUIListItem@@PAU1@HP6A_NPBU1@0@Z@_STL@@YAXPAPAUUIListItem@@00PAHP6A_NPBU1@2@Z@Z 3301e371 f i UIListView.obj
 0001:0001d3d2       ??$__introsort_loop@PAPAUUIListItem@@PAU1@HP6A_NPBU1@0@Z@_STL@@YAXPAPAUUIListItem@@00HP6A_NPBU1@1@Z@Z 3301e3d2 f i UIListView.obj
 0001:0001d44e       ??$stable_sort@PAPAUUIListItem@@P6A_NPBU1@0@Z@_STL@@YAXPAPAUUIListItem@@0P6A_NPBU1@1@Z@Z 3301e44e f i UIListView.obj
 0001:0001d467       ??$sort@PAPAUUIListItem@@P6A_NPBU1@0@Z@_STL@@YAXPAPAUUIListItem@@0P6A_NPBU1@1@Z@Z 3301e467 f i UIListView.obj
 0001:0001d4aa       ??$_Destroy@PAV?$basic_string@GU?$char_traits@G@std@@V?$allocator@G@_STL@@@_STL@@@_STL@@YAXPAV?$basic_string@GU?$char_traits@G@std@@V?$allocator@G@_STL@@@0@0@Z 3301e4aa f i UIListView.obj
 0001:0001d4c3       ??$_Destroy@PAUUIListSubItem@@@_STL@@YAXPAUUIListSubItem@@0@Z 3301e4c3 f i UIListView.obj
 0001:0001d4dc       ??$_Destroy@PAUUIListColumn@@@_STL@@YAXPAUUIListColumn@@0@Z 3301e4dc f i UIListView.obj
 0001:0001d4f5       ??1?$vector@V?$basic_string@GU?$char_traits@G@std@@V?$allocator@G@_STL@@@_STL@@V?$allocator@V?$basic_string@GU?$char_traits@G@std@@V?$allocator@G@_STL@@@_STL@@@2@@_STL@@QAE@XZ 3301e4f5 f i UIListView.obj
 0001:0001d50c       ??1?$vector@UUIListSubItem@@V?$allocator@UUIListSubItem@@@_STL@@@_STL@@QAE@XZ 3301e50c f i UIListView.obj
 0001:0001d523       ??1?$vector@UUIListColumn@@V?$allocator@UUIListColumn@@@_STL@@@_STL@@QAE@XZ 3301e523 f i UIListView.obj
 0001:0001d53a       ?_M_clear@?$vector@V?$basic_string@GU?$char_traits@G@std@@V?$allocator@G@_STL@@@_STL@@V?$allocator@V?$basic_string@GU?$char_traits@G@std@@V?$allocator@G@_STL@@@_STL@@@2@@_STL@@IAEXXZ 3301e53a f i UIListView.obj
 0001:0001d563       ?_M_clear@?$vector@UUIListSubItem@@V?$allocator@UUIListSubItem@@@_STL@@@_STL@@IAEXXZ 3301e563 f i UIListView.obj
 0001:0001d587       ?_M_clear@?$vector@UUIListColumn@@V?$allocator@UUIListColumn@@@_STL@@@_STL@@IAEXXZ 3301e587 f i UIListView.obj
 0001:0001d5b0       ??$?0PBG@?$basic_string@GU?$char_traits@G@std@@V?$allocator@G@_STL@@@_STL@@QAE@PBG0ABV?$allocator@G@1@@Z 3301e5b0 f i UIListView.obj
 0001:0001d5ef       ??$_Construct@V?$basic_string@GU?$char_traits@G@std@@V?$allocator@G@_STL@@@_STL@@V12@@_STL@@YAXPAV?$basic_string@GU?$char_traits@G@std@@V?$allocator@G@_STL@@@0@ABV10@@Z 3301e5ef f i UIListView.obj
 0001:0001d61c       ??$__uninitialized_copy@PAV?$basic_string@GU?$char_traits@G@std@@V?$allocator@G@_STL@@@_STL@@PAV12@@_STL@@YAPAV?$basic_string@GU?$char_traits@G@std@@V?$allocator@G@_STL@@@0@PAV10@00ABU__false_type@0@@Z 3301e61c f i UIListView.obj
 0001:0001d67c       ??$__uninitialized_fill_n@PAV?$basic_string@GU?$char_traits@G@std@@V?$allocator@G@_STL@@@_STL@@IV12@@_STL@@YAPAV?$basic_string@GU?$char_traits@G@std@@V?$allocator@G@_STL@@@0@PAV10@IABV10@ABU__false_type@0@@Z 3301e67c f i UIListView.obj
 0001:0001d6dc       ??0UIListSubItem@@QAE@ABU0@@Z 3301e6dc f i UIListView.obj
 0001:0001d6f7       ??0UIListColumn@@QAE@ABU0@@Z 3301e6f7 f i UIListView.obj
 0001:0001d74e       ??_ECUIListView@@WNE@AEPAXI@Z 3301e74e f i UIListView.obj
 0001:0001d759       ??1UIListItem@@QAE@XZ      3301e759 f i UIListView.obj
 0001:0001d75e       ?_M_insert_overflow@?$vector@V?$basic_string@GU?$char_traits@G@std@@V?$allocator@G@_STL@@@_STL@@V?$allocator@V?$basic_string@GU?$char_traits@G@std@@V?$allocator@G@_STL@@@_STL@@@2@@_STL@@IAEXPAV?$basic_string@GU?$char_traits@G@std@@V?$allocator@G@_STL@@@2@ABV32@ABU__false_type@2@I_N@Z 3301e75e f i UIListView.obj
 0001:0001d863       ??$_Construct@UUIListSubItem@@U1@@_STL@@YAXPAUUIListSubItem@@ABU1@@Z 3301e863 f i UIListView.obj
 0001:0001d890       ??$_Construct@UUIListColumn@@U1@@_STL@@YAXPAUUIListColumn@@ABU1@@Z 3301e890 f i UIListView.obj
 0001:0001d8bd       ??$__uninitialized_copy@PAUUIListSubItem@@PAU1@@_STL@@YAPAUUIListSubItem@@PAU1@00ABU__false_type@0@@Z 3301e8bd f i UIListView.obj
 0001:0001d91d       ??$__uninitialized_fill_n@PAUUIListSubItem@@IU1@@_STL@@YAPAUUIListSubItem@@PAU1@IABU1@ABU__false_type@0@@Z 3301e91d f i UIListView.obj
 0001:0001d97d       ??$__uninitialized_copy@PAUUIListColumn@@PAU1@@_STL@@YAPAUUIListColumn@@PAU1@00ABU__false_type@0@@Z 3301e97d f i UIListView.obj
 0001:0001d9dd       ??$__uninitialized_fill_n@PAUUIListColumn@@IU1@@_STL@@YAPAUUIListColumn@@PAU1@IABU1@ABU__false_type@0@@Z 3301e9dd f i UIListView.obj
 0001:0001da3d       ??4UIListSubItem@@QAEAAU0@ABU0@@Z 3301ea3d f i UIListView.obj
 0001:0001da58       ??4UIListColumn@@QAEAAU0@ABU0@@Z 3301ea58 f i UIListView.obj
 0001:0001daae       ?push_back@?$vector@V?$basic_string@GU?$char_traits@G@std@@V?$allocator@G@_STL@@@_STL@@V?$allocator@V?$basic_string@GU?$char_traits@G@std@@V?$allocator@G@_STL@@@_STL@@@2@@_STL@@QAEXABV?$basic_string@GU?$char_traits@G@std@@V?$allocator@G@_STL@@@2@@Z 3301eaae f i UIListView.obj
 0001:0001dae5       ?_M_insert_overflow@?$vector@UUIListSubItem@@V?$allocator@UUIListSubItem@@@_STL@@@_STL@@IAEXPAUUIListSubItem@@ABU3@ABU__false_type@2@I_N@Z 3301eae5 f i UIListView.obj
 0001:0001dbeb       ?_M_insert_overflow@?$vector@UUIListColumn@@V?$allocator@UUIListColumn@@@_STL@@@_STL@@IAEXPAUUIListColumn@@ABU3@ABU__false_type@2@I_N@Z 3301ebeb f i UIListView.obj
 0001:0001dcf4       ??$__copy@PAUUIListSubItem@@PAU1@H@_STL@@YAPAUUIListSubItem@@PAU1@00ABUrandom_access_iterator_tag@0@PAH@Z 3301ecf4 f i UIListView.obj
 0001:0001dd23       ??$__copy@PAUUIListColumn@@PAU1@H@_STL@@YAPAUUIListColumn@@PAU1@00ABUrandom_access_iterator_tag@0@PAH@Z 3301ed23 f i UIListView.obj
 0001:0001dd55       ?push_back@?$vector@UUIListSubItem@@V?$allocator@UUIListSubItem@@@_STL@@@_STL@@QAEXABUUIListSubItem@@@Z 3301ed55 f i UIListView.obj
 0001:0001dd8c       ?push_back@?$vector@UUIListColumn@@V?$allocator@UUIListColumn@@@_STL@@@_STL@@QAEXABUUIListColumn@@@Z 3301ed8c f i UIListView.obj
 0001:0001ddc3       ??$__copy_ptrs@PAUUIListSubItem@@PAU1@@_STL@@YAPAUUIListSubItem@@PAU1@00ABU__false_type@0@@Z 3301edc3 f i UIListView.obj
 0001:0001dde0       ??$__copy_ptrs@PAUUIListColumn@@PAU1@@_STL@@YAPAUUIListColumn@@PAU1@00ABU__false_type@0@@Z 3301ede0 f i UIListView.obj
 0001:0001ddfd       ??_GCUIListView@@UAEPAXI@Z 3301edfd f i UIListView.obj
 0001:0001ddfd       ??_ECUIListView@@UAEPAXI@Z 3301edfd f i UIListView.obj
 0001:0001de19       ?erase@?$vector@UUIListSubItem@@V?$allocator@UUIListSubItem@@@_STL@@@_STL@@QAEPAUUIListSubItem@@PAU3@@Z 3301ee19 f i UIListView.obj
 0001:0001de50       ?erase@?$vector@UUIListColumn@@V?$allocator@UUIListColumn@@@_STL@@@_STL@@QAEPAUUIListColumn@@PAU3@@Z 3301ee50 f i UIListView.obj
 0001:0001de87       ?erase@?$vector@UUIListColumn@@V?$allocator@UUIListColumn@@@_STL@@@_STL@@QAEPAUUIListColumn@@PAU3@0@Z 3301ee87 f i UIListView.obj
 0001:0001deba       ?Release@CUIScreen@@QAEHXZ 3301eeba f   UIScreen.obj
 0001:0001dec4       ?ReleaseScriptFunctionPtrs@CUIScreen@@QAEHXZ 3301eec4 f   UIScreen.obj
 0001:0001df16       ?GetName@CUIScreen@@QAEAAV?$basic_string@DU?$char_traits@D@std@@V?$allocator@D@_STL@@@_STL@@XZ 3301ef16 f   UIScreen.obj
 0001:0001df1a       ?GetWidgetList@CUIScreen@@QAEPAV?$vector@PAVCUIWidget@@V?$allocator@PAVCUIWidget@@@_STL@@@_STL@@XZ 3301ef1a f   UIScreen.obj
 0001:0001df1e       ?GetScriptFunctionPtrs@CUIScreen@@QAEHXZ 3301ef1e f   UIScreen.obj
 0001:0001df7b       ?GetWidget@CUIScreen@@QAEPAVCUIWidget@@H@Z 3301ef7b f   UIScreen.obj
 0001:0001df88       ?GetWidgetCount@CUIScreen@@QAEHXZ 3301ef88 f   UIScreen.obj
 0001:0001df92       ?Release@CUIScreen@@QAEHPAUIFunctionHandler@@@Z 3301ef92 f   UIScreen.obj
 0001:0001dff0       ?GetName@CUIScreen@@QAEHPAUIFunctionHandler@@@Z 3301eff0 f   UIScreen.obj
 0001:0001e047       ?GetWidgetCount@CUIScreen@@QAEHPAUIFunctionHandler@@@Z 3301f047 f   UIScreen.obj
 0001:0001e0a6       ?OnInit@CUIScreen@@QAEHXZ  3301f0a6 f   UIScreen.obj
 0001:0001e0ee       ?OnUpdate@CUIScreen@@QAEHXZ 3301f0ee f   UIScreen.obj
 0001:0001e131       ?OnRelease@CUIScreen@@QAEHXZ 3301f131 f   UIScreen.obj
 0001:0001e182       ?OnActivate@CUIScreen@@QAEHXZ 3301f182 f   UIScreen.obj
 0001:0001e1c5       ?OnDeactivate@CUIScreen@@QAEHXZ 3301f1c5 f   UIScreen.obj
 0001:0001e208       ?GetWidget@CUIScreen@@QAEPAVCUIWidget@@ABV?$basic_string@DU?$char_traits@D@std@@V?$allocator@D@_STL@@@_STL@@@Z 3301f208 f   UIScreen.obj
 0001:0001e23b       ?DelWidget@CUIScreen@@QAEHPAVCUIWidget@@@Z 3301f23b f   UIScreen.obj
 0001:0001e268       ?DelWidget@CUIScreen@@QAEHH@Z 3301f268 f   UIScreen.obj
 0001:0001e27a       ?DelWidget@CUIScreen@@QAEHABV?$basic_string@DU?$char_traits@D@std@@V?$allocator@D@_STL@@@_STL@@@Z 3301f27a f   UIScreen.obj
 0001:0001e2c4       ??0CUIScreen@@QAE@XZ       3301f2c4 f   UIScreen.obj
 0001:0001e324       ??1CUIScreen@@UAE@XZ       3301f324 f   UIScreen.obj
 0001:0001e345       ?AddWidget@CUIScreen@@QAEHPAVCUIWidget@@@Z 3301f345 f   UIScreen.obj
 0001:0001e387       ?AddWidget@CUIScreen@@QAEHABV?$basic_string@DU?$char_traits@D@std@@V?$allocator@D@_STL@@@_STL@@@Z 3301f387 f   UIScreen.obj
 0001:0001e3aa       ?GetClassName@CUIScreen@@QAE?AV?$basic_string@DU?$char_traits@D@std@@V?$allocator@D@_STL@@@_STL@@XZ 3301f3aa f   UIScreen.obj
 0001:0001e3ca       ?GetWidget@CUIScreen@@QAEHPAUIFunctionHandler@@@Z 3301f3ca f   UIScreen.obj
 0001:0001e578       ?AddWidget@CUIScreen@@QAEHPAUIFunctionHandler@@@Z 3301f578 f   UIScreen.obj
 0001:0001e744       ?DelWidget@CUIScreen@@QAEHPAUIFunctionHandler@@@Z 3301f744 f   UIScreen.obj
 0001:0001e910       ?InitializeTemplate@CUIScreen@@SAXPAUIScriptSystem@@@Z 3301f910 f   UIScreen.obj
 0001:0001e980       ?SetName@CUIScreen@@QAEHABV?$basic_string@DU?$char_traits@D@std@@V?$allocator@D@_STL@@@_STL@@@Z 3301f980 f   UIScreen.obj
 0001:0001e992       ??1?$_ScriptableEx@VCUIScreen@@@@UAE@XZ 3301f992 f i UIScreen.obj
 0001:0001e9c9       ??_E?$_ScriptableEx@VCUIScreen@@@@UAEPAXI@Z 3301f9c9 f i UIScreen.obj
 0001:0001e9c9       ??_G?$_ScriptableEx@VCUIScreen@@@@UAEPAXI@Z 3301f9c9 f i UIScreen.obj
 0001:0001e9e5       ??$find@PAPAVCUIScreen@@PAV1@@_STL@@YAPAPAVCUIScreen@@PAPAV1@0ABQAV1@@Z 3301f9e5 f i UISystem.obj
 0001:0001e9e5       ??$find@PAPAVCUIWidget@@PAV1@@_STL@@YAPAPAVCUIWidget@@PAPAV1@0ABQAV1@@Z 3301f9e5 f i UIScreen.obj
 0001:0001e9e5       ??$find@PAHH@_STL@@YAPAHPAH0ABH@Z 3301f9e5 f i UIListView.obj
 0001:0001ea00       ??$?8DU?$char_traits@D@std@@V?$allocator@D@_STL@@@_STL@@YA_NABV?$basic_string@DU?$char_traits@D@std@@V?$allocator@D@_STL@@@0@0@Z 3301fa00 f i UIScreen.obj
 0001:0001ea32       ?FuncThunk@?$_ScriptableEx@VCUIScreen@@@@KAHPAX@Z 3301fa32 f i UIScreen.obj
 0001:0001ea94       ??$__uninitialized_fill_n@PAP8CScriptObjectServerSlot@@AEHPAUIFunctionHandler@@@ZIP81@AEH0@Z@_STL@@YAPAP8CScriptObjectServerSlot@@AEHPAUIFunctionHandler@@@ZPAP81@AEH0@ZIABQ81@AEH0@ZABU__false_type@0@@Z 3301fa94 f i ScriptObjectServerSlot.obj
 0001:0001ea94       ??$__uninitialized_fill_n@PAP8CScriptObjectAI@@AEHPAUIFunctionHandler@@@ZIP81@AEH0@Z@_STL@@YAPAP8CScriptObjectAI@@AEHPAUIFunctionHandler@@@ZPAP81@AEH0@ZIABQ81@AEH0@ZABU__false_type@0@@Z 3301fa94 f i ScriptObjectAI.obj
 0001:0001ea94       ??$__uninitialized_fill_n@PAP8CScriptObjectGame@@AEHPAUIFunctionHandler@@@ZIP81@AEH0@Z@_STL@@YAPAP8CScriptObjectGame@@AEHPAUIFunctionHandler@@@ZPAP81@AEH0@ZIABQ81@AEH0@ZABU__false_type@0@@Z 3301fa94 f i ScriptObjectGame.obj
 0001:0001ea94       ??$__uninitialized_fill_n@PAP8CScriptObjectServer@@AEHPAUIFunctionHandler@@@ZIP81@AEH0@Z@_STL@@YAPAP8CScriptObjectServer@@AEHPAUIFunctionHandler@@@ZPAP81@AEH0@ZIABQ81@AEH0@ZABU__false_type@0@@Z 3301fa94 f i ScriptObjectServer.obj
 0001:0001ea94       ??$__uninitialized_fill_n@PAP8CScriptObjectStream@@AEHPAUIFunctionHandler@@@ZIP81@AEH0@Z@_STL@@YAPAP8CScriptObjectStream@@AEHPAUIFunctionHandler@@@ZPAP81@AEH0@ZIABQ81@AEH0@ZABU__false_type@0@@Z 3301fa94 f i ScriptObjectStream.obj
 0001:0001ea94       ??$__uninitialized_fill_n@PAP8CScriptObjectClient@@AEHPAUIFunctionHandler@@@ZIP81@AEH0@Z@_STL@@YAPAP8CScriptObjectClient@@AEHPAUIFunctionHandler@@@ZPAP81@AEH0@ZIABQ81@AEH0@ZABU__false_type@0@@Z 3301fa94 f i ScriptObjectClient.obj
 0001:0001ea94       ??$__uninitialized_fill_n@PAP8CUIScreen@@AEHPAUIFunctionHandler@@@ZIP81@AEH0@Z@_STL@@YAPAP8CUIScreen@@AEHPAUIFunctionHandler@@@ZPAP81@AEH0@ZIABQ81@AEH0@ZABU__false_type@0@@Z 3301fa94 f i UIScreen.obj
 0001:0001ea94       ??$__uninitialized_fill_n@PAP8CScriptObjectBoids@@AEHPAUIFunctionHandler@@@ZIP81@AEH0@Z@_STL@@YAPAP8CScriptObjectBoids@@AEHPAUIFunctionHandler@@@ZPAP81@AEH0@ZIABQ81@AEH0@ZABU__false_type@0@@Z 3301fa94 f i ScriptObjectBoids.obj
 0001:0001ea94       ??$__uninitialized_fill_n@PAP8CScriptObjectRenderer@@AEHPAUIFunctionHandler@@@ZIP81@AEH0@Z@_STL@@YAPAP8CScriptObjectRenderer@@AEHPAUIFunctionHandler@@@ZPAP81@AEH0@ZIABQ81@AEH0@ZABU__false_type@0@@Z 3301fa94 f i ScriptObjectRenderer.obj
 0001:0001ea94       ??$__uninitialized_fill_n@PAP8CScriptObjectUI@@AEHPAUIFunctionHandler@@@ZIP81@AEH0@Z@_STL@@YAPAP8CScriptObjectUI@@AEHPAUIFunctionHandler@@@ZPAP81@AEH0@ZIABQ81@AEH0@ZABU__false_type@0@@Z 3301fa94 f i ScriptObjectUI.obj
 0001:0001ea94       ??$__uninitialized_fill_n@PAP8CScriptObjectLanguage@@AEHPAUIFunctionHandler@@@ZIP81@AEH0@Z@_STL@@YAPAP8CScriptObjectLanguage@@AEHPAUIFunctionHandler@@@ZPAP81@AEH0@ZIABQ81@AEH0@ZABU__false_type@0@@Z 3301fa94 f i ScriptObjectLanguage.obj
 0001:0001ea94       ??$__uninitialized_fill_n@PAP8CScriptObjectInput@@AEHPAUIFunctionHandler@@@ZIP81@AEH0@Z@_STL@@YAPAP8CScriptObjectInput@@AEHPAUIFunctionHandler@@@ZPAP81@AEH0@ZIABQ81@AEH0@ZABU__false_type@0@@Z 3301fa94 f i ScriptObjectInput.obj
 0001:0001eab3       ?_M_insert_overflow@?$vector@HV?$allocator@H@_STL@@@_STL@@IAEXPAHABHABU__true_type@2@I_N@Z 3301fab3 f i UIListView.obj
 0001:0001eab3       ?_M_insert_overflow@?$vector@PAVCFlock@@V?$allocator@PAVCFlock@@@_STL@@@_STL@@IAEXPAPAVCFlock@@ABQAV3@ABU__true_type@2@I_N@Z 3301fab3 f i Flock.obj
 0001:0001eab3       ?_M_insert_overflow@?$vector@PAUIEntity@@V?$allocator@PAUIEntity@@@_STL@@@_STL@@IAEXPAPAUIEntity@@ABQAU3@ABU__true_type@2@I_N@Z 3301fab3 f i XClient.obj
 0001:0001eab3       ?_M_insert_overflow@?$vector@PAVCProjectileClass@@V?$allocator@PAVCProjectileClass@@@_STL@@@_STL@@IAEXPAPAVCProjectileClass@@ABQAV3@ABU__true_type@2@I_N@Z 3301fab3 f i WeaponSystemEx.obj
 0001:0001eab3       ?_M_insert_overflow@?$vector@KV?$allocator@K@_STL@@@_STL@@IAEXPAKABKABU__true_type@2@I_N@Z 3301fab3 f i XNetworkStats.obj
 0001:0001eab3       ?_M_insert_overflow@?$vector@PAUProperty@?$_ScriptableEx@VCScriptObjectPlayer@@@@V?$allocator@PAUProperty@?$_ScriptableEx@VCScriptObjectPlayer@@@@@_STL@@@_STL@@IAEXPAPAUProperty@?$_ScriptableEx@VCScriptObjectPlayer@@@@ABQAU34@ABU__true_type@2@I_N@Z 3301fab3 f i ScriptObjectPlayer.obj
 0001:0001eab3       ?_M_insert_overflow@?$vector@PAUIScriptObject@@V?$allocator@PAUIScriptObject@@@_STL@@@_STL@@IAEXPAPAUIScriptObject@@ABQAU3@ABU__true_type@2@I_N@Z 3301fab3 f i ScriptObjectGame.obj
 0001:0001eab3       ?_M_insert_overflow@?$vector@PAUUIListItem@@V?$allocator@PAUUIListItem@@@_STL@@@_STL@@IAEXPAPAUUIListItem@@ABQAU3@ABU__true_type@2@I_N@Z 3301fab3 f i UIListView.obj
 0001:0001eab3       ?_M_insert_overflow@?$vector@PAUProperty@?$_ScriptableEx@VCScriptObjectFireParam@@@@V?$allocator@PAUProperty@?$_ScriptableEx@VCScriptObjectFireParam@@@@@_STL@@@_STL@@IAEXPAPAUProperty@?$_ScriptableEx@VCScriptObjectFireParam@@@@ABQAU34@ABU__true_type@2@I_N@Z 3301fab3 f i ScriptObjectWeaponClass.obj
 0001:0001eab3       ?_M_insert_overflow@?$vector@PAUUIComboItem@@V?$allocator@PAUUIComboItem@@@_STL@@@_STL@@IAEXPAPAUUIComboItem@@ABQAU3@ABU__true_type@2@I_N@Z 3301fab3 f i UIComboBox.obj
 0001:0001eab3       ?_M_insert_overflow@?$vector@PAVCUIWidget@@V?$allocator@PAVCUIWidget@@@_STL@@@_STL@@IAEXPAPAVCUIWidget@@ABQAV3@ABU__true_type@2@I_N@Z 3301fab3 f i UIScreen.obj
 0001:0001eab3       ?_M_insert_overflow@?$vector@PAUSGameModDescription@@V?$allocator@PAUSGameModDescription@@@_STL@@@_STL@@IAEXPAPAUSGameModDescription@@ABQAU3@ABU__true_type@2@I_N@Z 3301fab3 f i GameMods.obj
 0001:0001eab3       ?_M_insert_overflow@?$vector@PAVCXArea@@V?$allocator@PAVCXArea@@@_STL@@@_STL@@IAEXPAPAVCXArea@@ABQAV3@ABU__true_type@2@I_N@Z 3301fab3 f i XArea.obj
 0001:0001eab3       ?_M_insert_overflow@?$vector@PAVCBoidObject@@V?$allocator@PAVCBoidObject@@@_STL@@@_STL@@IAEXPAPAVCBoidObject@@ABQAV3@ABU__true_type@2@I_N@Z 3301fab3 f i Flock.obj
 0001:0001eab3       ?_M_insert_overflow@?$vector@PAUWeaponParams@@V?$allocator@PAUWeaponParams@@@_STL@@@_STL@@IAEXPAPAUWeaponParams@@ABQAU3@ABU__true_type@2@I_N@Z 3301fab3 f i WeaponClass.obj
 0001:0001eab3       ?_M_insert_overflow@?$vector@PAVCWeaponClass@@V?$allocator@PAVCWeaponClass@@@_STL@@@_STL@@IAEXPAPAVCWeaponClass@@ABQAV3@ABU__true_type@2@I_N@Z 3301fab3 f i WeaponSystemEx.obj
 0001:0001eab3       ?_M_insert_overflow@?$vector@PAUProperty@?$_ScriptableEx@VCScriptObjectVehicle@@@@V?$allocator@PAUProperty@?$_ScriptableEx@VCScriptObjectVehicle@@@@@_STL@@@_STL@@IAEXPAPAUProperty@?$_ScriptableEx@VCScriptObjectVehicle@@@@ABQAU34@ABU__true_type@2@I_N@Z 3301fab3 f i ScriptObjectVehicle.obj
 0001:0001eab3       ?_M_insert_overflow@?$vector@PAUIStatObj@@V?$allocator@PAUIStatObj@@@_STL@@@_STL@@IAEXPAPAUIStatObj@@ABQAU3@ABU__true_type@2@I_N@Z 3301fab3 f i WeaponSystemEx.obj
 0001:0001eab3       ?_M_insert_overflow@?$vector@PAVCPlayer@@V?$allocator@PAVCPlayer@@@_STL@@@_STL@@IAEXPAPAVCPlayer@@ABQAV3@ABU__true_type@2@I_N@Z 3301fab3 f i GameEquipPacks.obj
 0001:0001eab3       ?_M_insert_overflow@?$vector@PAVCScriptObjectFireParam@@V?$allocator@PAVCScriptObjectFireParam@@@_STL@@@_STL@@IAEXPAPAVCScriptObjectFireParam@@ABQAV3@ABU__true_type@2@I_N@Z 3301fab3 f i ScriptObjectWeaponClass.obj
 0001:0001eab3       ?_M_insert_overflow@?$vector@PAVCUIScreen@@V?$allocator@PAVCUIScreen@@@_STL@@@_STL@@IAEXPAPAVCUIScreen@@ABQAV3@ABU__true_type@2@I_N@Z 3301fab3 f i UISystem.obj
 0001:0001eab3       ?_M_insert_overflow@?$vector@IV?$allocator@I@_STL@@@_STL@@IAEXPAIABIABU__true_type@2@I_N@Z 3301fab3 f i XServer.obj
 0001:0001eab3       ?_M_insert_overflow@?$vector@PAVCScriptObjectRenderer@@V?$allocator@PAVCScriptObjectRenderer@@@_STL@@@_STL@@IAEXPAPAVCScriptObjectRenderer@@ABQAV3@ABU__true_type@2@I_N@Z 3301fab3 f i ScriptObjectGame.obj
 0001:0001eab3       ?_M_insert_overflow@?$vector@PAUa2DSegment@CXArea@@V?$allocator@PAUa2DSegment@CXArea@@@_STL@@@_STL@@IAEXPAPAUa2DSegment@CXArea@@ABQAU34@ABU__true_type@2@I_N@Z 3301fab3 f i XArea.obj
 0001:0001eb3b       ?_M_insert_overflow@?$vector@P8CUIScreen@@AEHPAUIFunctionHandler@@@ZV?$allocator@P8CUIScreen@@AEHPAUIFunctionHandler@@@Z@_STL@@@_STL@@IAEXPAP8CUIScreen@@AEHPAUIFunctionHandler@@@ZABQ83@AEH0@ZABU__false_type@2@I_N@Z 3301fb3b f i UIScreen.obj
 0001:0001ec28       ?push_back@?$vector@P8CUIScreen@@AEHPAUIFunctionHandler@@@ZV?$allocator@P8CUIScreen@@AEHPAUIFunctionHandler@@@Z@_STL@@@_STL@@QAEXABQ8CUIScreen@@AEHPAUIFunctionHandler@@@Z@Z 3301fc28 f i UIScreen.obj
 0001:0001ec59       ??_ECUIScreen@@UAEPAXI@Z   3301fc59 f i UIScreen.obj
 0001:0001ec59       ??_GCUIScreen@@UAEPAXI@Z   3301fc59 f i UIScreen.obj
 0001:0001ec75       ?RegisterFunction@?$_ScriptableEx@VCUIScreen@@@@SAXPAUIScriptSystem@@PBDP8CUIScreen@@AEHPAUIFunctionHandler@@@Z@Z 3301fc75 f i UIScreen.obj
 0001:0001ecc5       ?SetValue@CUIScrollBar@@QAEHM@Z 3301fcc5 f   UIScrollBar.obj
 0001:0001ecdd       ?GetValue@CUIScrollBar@@QAEMXZ 3301fcdd f   UIScrollBar.obj
 0001:0001ed10       ?SetStep@CUIScrollBar@@QAEHM@Z 3301fd10 f   UIScrollBar.obj
 0001:0001ed20       ?GetStep@CUIScrollBar@@QAEMXZ 3301fd20 f   UIScrollBar.obj
 0001:0001ed27       ?GetType@CUIScrollBar@@QAEHXZ 3301fd27 f   UIScrollBar.obj
 0001:0001ed4c       ?MoveSlider@CUIScrollBar@@AAEHM@Z 3301fd4c f   UIScrollBar.obj
 0001:0001ef54       ?UpdateRect@CUIScrollBar@@AAEHXZ 3301ff54 f   UIScrollBar.obj
 0001:0001f1d1       ?Update@CUIScrollBar@@UAEJIIJ@Z 330201d1 f   UIScrollBar.obj
 0001:0001f7d4       ?Draw@CUIScrollBar@@UAEHH@Z 330207d4 f   UIScrollBar.obj
 0001:0001fc0f       ?GetType@CUIScrollBar@@QAEHPAUIFunctionHandler@@@Z 33020c0f f   UIScrollBar.obj
 0001:0001fc76       ?SetValue@CUIScrollBar@@QAEHPAUIFunctionHandler@@@Z 33020c76 f   UIScrollBar.obj
 0001:0001fda0       ?GetValue@CUIScrollBar@@QAEHPAUIFunctionHandler@@@Z 33020da0 f   UIScrollBar.obj
 0001:0001fe17       ?SetStep@CUIScrollBar@@QAEHPAUIFunctionHandler@@@Z 33020e17 f   UIScrollBar.obj
 0001:0001ff41       ?GetStep@CUIScrollBar@@QAEHPAUIFunctionHandler@@@Z 33020f41 f   UIScrollBar.obj
 0001:0001ffac       ?SetSliderColor@CUIScrollBar@@QAEHPAUIFunctionHandler@@@Z 33020fac f   UIScrollBar.obj
 0001:000201b0       ?GetSliderColor@CUIScrollBar@@QAEHPAUIFunctionHandler@@@Z 330211b0 f   UIScrollBar.obj
 0001:00020231       ?SetMinusColor@CUIScrollBar@@QAEHPAUIFunctionHandler@@@Z 33021231 f   UIScrollBar.obj
 0001:00020435       ?GetMinusColor@CUIScrollBar@@QAEHPAUIFunctionHandler@@@Z 33021435 f   UIScrollBar.obj
 0001:000204b6       ?SetPlusColor@CUIScrollBar@@QAEHPAUIFunctionHandler@@@Z 330214b6 f   UIScrollBar.obj
 0001:000206ba       ?GetPlusColor@CUIScrollBar@@QAEHPAUIFunctionHandler@@@Z 330216ba f   UIScrollBar.obj
 0001:0002073b       ?SetSliderSize@CUIScrollBar@@QAEHPAUIFunctionHandler@@@Z 3302173b f   UIScrollBar.obj
 0001:00020865       ?GetSliderSize@CUIScrollBar@@QAEHPAUIFunctionHandler@@@Z 33021865 f   UIScrollBar.obj
 0001:000208d0       ?SetButtonSize@CUIScrollBar@@QAEHPAUIFunctionHandler@@@Z 330218d0 f   UIScrollBar.obj
 0001:000209fa       ?GetButtonSize@CUIScrollBar@@QAEHPAUIFunctionHandler@@@Z 330219fa f   UIScrollBar.obj
 0001:00020a65       ?SetPathTexture@CUIScrollBar@@QAEHPAUIFunctionHandler@@@Z 33021a65 f   UIScrollBar.obj
 0001:00020bd8       ?GetPathTexture@CUIScrollBar@@QAEHPAUIFunctionHandler@@@Z 33021bd8 f   UIScrollBar.obj
 0001:00020c50       ?SetSliderTexture@CUIScrollBar@@QAEHPAUIFunctionHandler@@@Z 33021c50 f   UIScrollBar.obj
 0001:00020dc3       ?GetSliderTexture@CUIScrollBar@@QAEHPAUIFunctionHandler@@@Z 33021dc3 f   UIScrollBar.obj
 0001:00020e3b       ?SetSliderOverTexture@CUIScrollBar@@QAEHPAUIFunctionHandler@@@Z 33021e3b f   UIScrollBar.obj
 0001:00020fae       ?GetSliderOverTexture@CUIScrollBar@@QAEHPAUIFunctionHandler@@@Z 33021fae f   UIScrollBar.obj
 0001:00021026       ?SetMinusTexture@CUIScrollBar@@QAEHPAUIFunctionHandler@@@Z 33022026 f   UIScrollBar.obj
 0001:00021199       ?GetMinusTexture@CUIScrollBar@@QAEHPAUIFunctionHandler@@@Z 33022199 f   UIScrollBar.obj
 0001:00021211       ?SetMinusOverTexture@CUIScrollBar@@QAEHPAUIFunctionHandler@@@Z 33022211 f   UIScrollBar.obj
 0001:00021384       ?GetMinusOverTexture@CUIScrollBar@@QAEHPAUIFunctionHandler@@@Z 33022384 f   UIScrollBar.obj
 0001:000213fc       ?SetMinusDownTexture@CUIScrollBar@@QAEHPAUIFunctionHandler@@@Z 330223fc f   UIScrollBar.obj
 0001:0002156f       ?GetMinusDownTexture@CUIScrollBar@@QAEHPAUIFunctionHandler@@@Z 3302256f f   UIScrollBar.obj
 0001:000215e7       ?SetPlusTexture@CUIScrollBar@@QAEHPAUIFunctionHandler@@@Z 330225e7 f   UIScrollBar.obj
 0001:0002175a       ?GetPlusTexture@CUIScrollBar@@QAEHPAUIFunctionHandler@@@Z 3302275a f   UIScrollBar.obj
 0001:000217d2       ?SetPlusOverTexture@CUIScrollBar@@QAEHPAUIFunctionHandler@@@Z 330227d2 f   UIScrollBar.obj
 0001:00021945       ?GetPlusOverTexture@CUIScrollBar@@QAEHPAUIFunctionHandler@@@Z 33022945 f   UIScrollBar.obj
 0001:000219bd       ?SetPlusDownTexture@CUIScrollBar@@QAEHPAUIFunctionHandler@@@Z 330229bd f   UIScrollBar.obj
 0001:00021b30       ?GetPlusDownTexture@CUIScrollBar@@QAEHPAUIFunctionHandler@@@Z 33022b30 f   UIScrollBar.obj
 0001:00021ba8       ??0CUIScrollBar@@QAE@XZ    33022ba8 f   UIScrollBar.obj
 0001:00021c57       ??1CUIScrollBar@@UAE@XZ    33022c57 f   UIScrollBar.obj
 0001:00021c97       ?InitializeTemplate@CUIScrollBar@@SAXPAUIScriptSystem@@@Z 33022c97 f   UIScrollBar.obj
 0001:000221c0       ?GetClassName@CUIScrollBar@@UAE?AV?$basic_string@DU?$char_traits@D@std@@V?$allocator@D@_STL@@@_STL@@XZ 330231c0 f   UIScrollBar.obj
 0001:000221e0       ??1?$_ScriptableEx@VCUIScrollBar@@@@UAE@XZ 330231e0 f i UIScrollBar.obj
 0001:00022217       ??_G?$_ScriptableEx@VCUIScrollBar@@@@UAEPAXI@Z 33023217 f i UIScrollBar.obj
 0001:00022217       ??_E?$_ScriptableEx@VCUIScrollBar@@@@UAEPAXI@Z 33023217 f i UIScrollBar.obj
 0001:00022233       ?FuncThunk@?$_ScriptableEx@VCUIScrollBar@@@@KAHPAX@Z 33023233 f i UIScrollBar.obj
 0001:0002229c       ?_M_insert_overflow@?$vector@P8CUIScrollBar@@AEHPAUIFunctionHandler@@@ZV?$allocator@P8CUIScrollBar@@AEHPAUIFunctionHandler@@@Z@_STL@@@_STL@@IAEXPAP8CUIScrollBar@@AEHPAUIFunctionHandler@@@ZABQ83@AEH0@ZABU__false_type@2@I_N@Z 3302329c f i UIScrollBar.obj
 0001:00022389       ?push_back@?$vector@P8CUIScrollBar@@AEHPAUIFunctionHandler@@@ZV?$allocator@P8CUIScrollBar@@AEHPAUIFunctionHandler@@@Z@_STL@@@_STL@@QAEXABQ8CUIScrollBar@@AEHPAUIFunctionHandler@@@Z@Z 33023389 f i UIScrollBar.obj
 0001:000223c0       ??_ECUIScrollBar@@WNE@AEPAXI@Z 330233c0 f i UIScrollBar.obj
 0001:000223cb       ?RegisterFunction@?$_ScriptableEx@VCUIScrollBar@@@@SAXPAUIScriptSystem@@PBDP8CUIScrollBar@@AEHPAUIFunctionHandler@@@Z@Z 330233cb f i UIScrollBar.obj
 0001:0002241b       ??_ECUIScrollBar@@UAEPAXI@Z 3302341b f i UIScrollBar.obj
 0001:0002241b       ??_GCUIScrollBar@@UAEPAXI@Z 3302341b f i UIScrollBar.obj
 0001:00022437       ?SetStyle@CUIStatic@@UAEHH@Z 33023437 f   UIStatic.obj
 0001:0002243c       ?SetVAlign@CUIStatic@@QAEHH@Z 3302343c f   UIStatic.obj
 0001:0002244c       ?GetVAlign@CUIStatic@@QAEHXZ 3302344c f   UIStatic.obj
 0001:00022453       ?SetHAlign@CUIStatic@@QAEHH@Z 33023453 f   UIStatic.obj
 0001:00022463       ?GetHAlign@CUIStatic@@QAEHXZ 33023463 f   UIStatic.obj
 0001:0002246a       ?GetLineWidth@CUIStatic@@AAEMPAUUIStaticLine@@@Z 3302346a f   UIStatic.obj
 0001:0002247f       ?GetLineHeight@CUIStatic@@AAEMPAUUIStaticLine@@@Z 3302347f f   UIStatic.obj
 0001:00022497       ?GetTextRect@CUIStatic@@AAE?AUUIRect@@_N@Z 33023497 f   UIStatic.obj
 0001:00022583       ?StartAnimation@CUIStatic@@QAEHABV?$basic_string@DU?$char_traits@D@std@@V?$allocator@D@_STL@@@_STL@@@Z 33023583 f   UIStatic.obj
 0001:00022604       ?GetLineMetrics@CUIStatic@@AAEHPAUUIStaticLine@@PAUIFFont@@@Z 33023604 f   UIStatic.obj
 0001:00022860       ?GetLineListMetrics@CUIStatic@@AAEHXZ 33023860 f   UIStatic.obj
 0001:000228e0       ?GetTextWidth@CUIStatic@@AAEMXZ 330238e0 f   UIStatic.obj
 0001:00022924       ?GetTextHeight@CUIStatic@@AAEMXZ 33023924 f   UIStatic.obj
 0001:00022951       ?SetFontName@CUIStatic@@UAEHPAUIFunctionHandler@@@Z 33023951 f   UIStatic.obj
 0001:0002296e       ?SetFontSize@CUIStatic@@UAEHPAUIFunctionHandler@@@Z 3302396e f   UIStatic.obj
 0001:0002298b       ?GetText@CUIStatic@@QAEHPAUIFunctionHandler@@@Z 3302398b f   UIStatic.obj
 0001:00022a53       ?GetLine@CUIStatic@@QAEHPAUIFunctionHandler@@@Z 33023a53 f   UIStatic.obj
 0001:00022c06       ?GetLineCount@CUIStatic@@QAEHPAUIFunctionHandler@@@Z 33023c06 f   UIStatic.obj
 0001:00022c3b       ?SetVAlign@CUIStatic@@QAEHPAUIFunctionHandler@@@Z 33023c3b f   UIStatic.obj
 0001:00022d65       ?GetVAlign@CUIStatic@@QAEHPAUIFunctionHandler@@@Z 33023d65 f   UIStatic.obj
 0001:00022dcc       ?SetHAlign@CUIStatic@@QAEHPAUIFunctionHandler@@@Z 33023dcc f   UIStatic.obj
 0001:00022ef6       ?GetHAlign@CUIStatic@@QAEHPAUIFunctionHandler@@@Z 33023ef6 f   UIStatic.obj
 0001:00022f5d       ?SetTexture@CUIStatic@@QAEHPAUIFunctionHandler@@@Z 33023f5d f   UIStatic.obj
 0001:000230d0       ?GetTexture@CUIStatic@@QAEHPAUIFunctionHandler@@@Z 330240d0 f   UIStatic.obj
 0001:00023148       ?GetHScrollBar@CUIStatic@@QAEHPAUIFunctionHandler@@@Z 33024148 f   UIStatic.obj
 0001:000231c8       ?GetVScrollBar@CUIStatic@@QAEHPAUIFunctionHandler@@@Z 330241c8 f   UIStatic.obj
 0001:00023248       ?SetView@CUIStatic@@QAEHPAUIFunctionHandler@@@Z 33024248 f   UIStatic.obj
 0001:000233dc       ?SetShaderFloat@CUIStatic@@QAEHPAUIFunctionHandler@@@Z 330243dc f   UIStatic.obj
 0001:000235f3       ?SetShader@CUIStatic@@QAEHPAUIFunctionHandler@@@Z 330245f3 f   UIStatic.obj
 0001:00023752       ?SetSecondShader@CUIStatic@@QAEHPAUIFunctionHandler@@@Z 33024752 f   UIStatic.obj
 0001:000238b1       ?ReleaseModel@CUIStatic@@QAEHXZ 330248b1 f   UIStatic.obj
 0001:000238f4       ?ReleaseHatModel@CUIStatic@@QAEHXZ 330248f4 f   UIStatic.obj
 0001:00023929       ?ReleaseModel@CUIStatic@@QAEHPAUIFunctionHandler@@@Z 33024929 f   UIStatic.obj
 0001:0002398f       ?ReleaseHatModel@CUIStatic@@QAEHPAUIFunctionHandler@@@Z 3302498f f   UIStatic.obj
 0001:000239f5       ?Draw@CUIStatic@@UAEHH@Z   330249f5 f   UIStatic.obj
 0001:0002439a       ?GetClassName@CUIStatic@@UAE?AV?$basic_string@DU?$char_traits@D@std@@V?$allocator@D@_STL@@@_STL@@XZ 3302539a f   UIStatic.obj
 0001:000243ba       ?Update@CUIStatic@@UAEJIIJ@Z 330253ba f   UIStatic.obj
 0001:000248f8       ?SetAnimation@CUIStatic@@QAEHPAUIFunctionHandler@@@Z 330258f8 f   UIStatic.obj
 0001:00024a8d       ??0CUIStatic@@QAE@XZ       33025a8d f   UIStatic.obj
 0001:00024bcf       ??1CUIStatic@@UAE@XZ       33025bcf f   UIStatic.obj
 0001:00024c40       ?LoadModel@CUIStatic@@QAEHABV?$basic_string@DU?$char_traits@D@std@@V?$allocator@D@_STL@@@_STL@@@Z 33025c40 f   UIStatic.obj
 0001:00024c95       ?LoadHatModel@CUIStatic@@QAEHABV?$basic_string@DU?$char_traits@D@std@@V?$allocator@D@_STL@@@_STL@@@Z 33025c95 f   UIStatic.obj
 0001:00024d26       ?LoadModel@CUIStatic@@QAEHPAUIFunctionHandler@@@Z 33025d26 f   UIStatic.obj
 0001:00024ec8       ?LoadHatModel@CUIStatic@@QAEHPAUIFunctionHandler@@@Z 33025ec8 f   UIStatic.obj
 0001:0002506a       ?SetText@CUIStatic@@QAEHABV?$basic_string@GU?$char_traits@G@std@@V?$allocator@G@_STL@@@_STL@@@Z 3302606a f   UIStatic.obj
 0001:000250f4       ?SetText@CUIStatic@@QAEHPAUIFunctionHandler@@@Z 330260f4 f   UIStatic.obj
 0001:000252e6       ?SetLine@CUIStatic@@QAEHPAUIFunctionHandler@@@Z 330262e6 f   UIStatic.obj
 0001:000255ab       ?AddLine@CUIStatic@@QAEHPAUIFunctionHandler@@@Z 330265ab f   UIStatic.obj
 0001:0002579e       ?Clear@CUIStatic@@QAEHPAUIFunctionHandler@@@Z 3302679e f   UIStatic.obj
 0001:0002580f       ?InitializeTemplate@CUIStatic@@SAXPAUIScriptSystem@@@Z 3302680f f   UIStatic.obj
 0001:00025c53       ??1?$_ScriptableEx@VCUIStatic@@@@UAE@XZ 33026c53 f i UIStatic.obj
 0001:00025c8a       ??_G?$_ScriptableEx@VCUIStatic@@@@UAEPAXI@Z 33026c8a f i UIStatic.obj
 0001:00025c8a       ??_E?$_ScriptableEx@VCUIStatic@@@@UAEPAXI@Z 33026c8a f i UIStatic.obj
 0001:00025ca6       ?SetAngle@CCamera@@QAEXABU?$Vec3_tpl@M@@@Z 33026ca6 f i UIStatic.obj
 0001:00025cde       ?SetPos@CCamera@@QAEXABU?$Vec3_tpl@M@@@Z 33026cde f i UIStatic.obj
 0001:00025d03       ?Init@CCamera@@QAEXHHMMMM@Z 33026d03 f i UIStatic.obj
 0001:00025d4a       ??D?$color4@M@@QBE?AU0@M@Z 33026d4a f i UIButton.obj
 0001:00025d4a       ??DCFColor@@QBE?AV0@M@Z    33026d4a f i UIStatic.obj
 0001:00025d76       ??4CFColor@@QAE?AV0@ABV0@@Z 33026d76 f i UIStatic.obj
 0001:00025da3       ??1CDLight@@QAE@XZ         33026da3 f i UIStatic.obj
 0001:00025dd6       ??0?$Vec3_tpl@M@@QAE@MMM@Z 33026dd6 f i UIStatic.obj
 0001:00025def       ??4?$Matrix44_tpl@M$03$00@@QAEAAU0@ABU?$Matrix34_tpl@M@@@Z 33026def f i UIStatic.obj
 0001:00025e52       ??$?DM$02$00M@@YA?AU?$Matrix33_tpl@M$02$00@@ABU0@ABU?$Matrix33diag_tpl@M@@@Z 33026e52 f i UIStatic.obj
 0001:00025edb       ?clear@?$basic_string@DU?$char_traits@D@std@@V?$allocator@D@_STL@@@_STL@@QAEXXZ 33026edb f i UIStatic.obj
 0001:00025f02       ??0?$_STLP_alloc_proxy@PAU?$_Rb_tree_node@U?$pair@QAVCPlayer@@U?$Vec3_tpl@M@@@_STL@@@_STL@@U12@V?$allocator@U?$_Rb_tree_node@U?$pair@QAVCPlayer@@U?$Vec3_tpl@M@@@_STL@@@_STL@@@2@@_STL@@QAE@ABV?$allocator@U?$_Rb_tree_node@U?$pair@QAVCPlayer@@U?$Vec3_tpl@M@@@_STL@@@_STL@@@1@PAU?$_Rb_tree_node@U?$pair@QAVCPlayer@@U?$Vec3_tpl@M@@@_STL@@@1@@Z 33026f02 f i XPlayer.obj
 0001:00025f02       ??0?$_STLP_alloc_proxy@PAV?$basic_string@GU?$char_traits@G@std@@V?$allocator@G@_STL@@@_STL@@V12@V?$allocator@V?$basic_string@GU?$char_traits@G@std@@V?$allocator@G@_STL@@@_STL@@@2@@_STL@@QAE@ABV?$allocator@V?$basic_string@GU?$char_traits@G@std@@V?$allocator@G@_STL@@@_STL@@@1@PAV?$basic_string@GU?$char_traits@G@std@@V?$allocator@G@_STL@@@1@@Z 33026f02 f i UIListView.obj
 0001:00025f02       ??0?$_STLP_alloc_proxy@PAV?$basic_string@DU?$char_traits@D@std@@V?$allocator@D@_STL@@@_STL@@V12@V?$allocator@V?$basic_string@DU?$char_traits@D@std@@V?$allocator@D@_STL@@@_STL@@@2@@_STL@@QAE@ABV?$allocator@V?$basic_string@DU?$char_traits@D@std@@V?$allocator@D@_STL@@@_STL@@@1@PAV?$basic_string@DU?$char_traits@D@std@@V?$allocator@D@_STL@@@1@@Z 33026f02 f i ScriptObjectBoids.obj
 0001:00025f02       ??0?$_STLP_alloc_proxy@PAU?$_Rb_tree_node@U?$pair@$$CBHPAUScriptTimer@@@_STL@@@_STL@@U12@V?$allocator@U?$_Rb_tree_node@U?$pair@$$CBHPAUScriptTimer@@@_STL@@@_STL@@@2@@_STL@@QAE@ABV?$allocator@U?$_Rb_tree_node@U?$pair@$$CBHPAUScriptTimer@@@_STL@@@_STL@@@1@PAU?$_Rb_tree_node@U?$pair@$$CBHPAUScriptTimer@@@_STL@@@1@@Z 33026f02 f i ScriptTimerMgr.obj
 0001:00025f02       ??0?$_STLP_alloc_proxy@PAU?$_Rb_tree_node@U?$pair@$$CBHV?$basic_string@DU?$char_traits@D@std@@V?$allocator@D@_STL@@@_STL@@@_STL@@@_STL@@U12@V?$allocator@U?$_Rb_tree_node@U?$pair@$$CBHV?$basic_string@DU?$char_traits@D@std@@V?$allocator@D@_STL@@@_STL@@@_STL@@@_STL@@@2@@_STL@@QAE@ABV?$allocator@U?$_Rb_tree_node@U?$pair@$$CBHV?$basic_string@DU?$char_traits@D@std@@V?$allocator@D@_STL@@@_STL@@@_STL@@@_STL@@@1@PAU?$_Rb_tree_node@U?$pair@$$CBHV?$basic_string@DU?$char_traits@D@std@@V?$allocator@D@_STL@@@_STL@@@_STL@@@1@@Z 33026f02 f i XSurfaceMgr.obj
 0001:00025f02       ??0?$_STLP_alloc_proxy@PAU?$_Rb_tree_node@U?$pair@$$CBEPAVCXServerSlot@@@_STL@@@_STL@@U12@V?$allocator@U?$_Rb_tree_node@U?$pair@$$CBEPAVCXServerSlot@@@_STL@@@_STL@@@2@@_STL@@QAE@ABV?$allocator@U?$_Rb_tree_node@U?$pair@$$CBEPAVCXServerSlot@@@_STL@@@_STL@@@1@PAU?$_Rb_tree_node@U?$pair@$$CBEPAVCXServerSlot@@@_STL@@@1@@Z 33026f02 f i XServer.obj
 0001:00025f02       ??0?$_STLP_alloc_proxy@PAP8CScriptObjectGame@@AEHPAUIFunctionHandler@@@ZP81@AEH0@ZV?$allocator@P8CScriptObjectGame@@AEHPAUIFunctionHandler@@@Z@_STL@@@_STL@@QAE@ABV?$allocator@P8CScriptObjectGame@@AEHPAUIFunctionHandler@@@Z@1@PAP8CScriptObjectGame@@AEHPAUIFunctionHandler@@@Z@Z 33026f02 f i ScriptObjectGame.obj
 0001:00025f02       ??0?$_STLP_alloc_proxy@PAUSSoundInfo@@U1@V?$allocator@USSoundInfo@@@_STL@@@_STL@@QAE@ABV?$allocator@USSoundInfo@@@1@PAUSSoundInfo@@@Z 33026f02 f i XClient.obj
 0001:00025f02       ??0?$_STLP_alloc_proxy@PAPAUWeaponParams@@PAU1@V?$allocator@PAUWeaponParams@@@_STL@@@_STL@@QAE@ABV?$allocator@PAUWeaponParams@@@1@PAPAUWeaponParams@@@Z 33026f02 f i WeaponClass.obj
 0001:00025f02       ??0?$_STLP_alloc_proxy@PAU?$_List_node@PAVCPlayer@@@_STL@@U12@V?$allocator@U?$_List_node@PAVCPlayer@@@_STL@@@2@@_STL@@QAE@ABV?$allocator@U?$_List_node@PAVCPlayer@@@_STL@@@1@PAU?$_List_node@PAVCPlayer@@@1@@Z 33026f02 f i Game.obj
 0001:00025f02       ??0?$_STLP_alloc_proxy@PAGGV?$allocator@G@_STL@@@_STL@@QAE@ABV?$allocator@G@1@PAG@Z 33026f02 f i IngameDialog.obj
 0001:00025f02       ??0?$_STLP_alloc_proxy@PAU?$_List_node@UFrameRecord@CTimeDemoRecorder@@@_STL@@U12@V?$allocator@U?$_List_node@UFrameRecord@CTimeDemoRecorder@@@_STL@@@2@@_STL@@QAE@ABV?$allocator@U?$_List_node@UFrameRecord@CTimeDemoRecorder@@@_STL@@@1@PAU?$_List_node@UFrameRecord@CTimeDemoRecorder@@@1@@Z 33026f02 f i TimeDemoRecorder.obj
 0001:00025f02       ??0?$_STLP_alloc_proxy@PAPAVCProjectileClass@@PAV1@V?$allocator@PAVCProjectileClass@@@_STL@@@_STL@@QAE@ABV?$allocator@PAVCProjectileClass@@@1@PAPAVCProjectileClass@@@Z 33026f02 f i WeaponSystemEx.obj
 0001:00025f02       ??0?$_STLP_alloc_proxy@PAP8CScriptObjectPlayer@@AEHPAUIFunctionHandler@@@ZP81@AEH0@ZV?$allocator@P8CScriptObjectPlayer@@AEHPAUIFunctionHandler@@@Z@_STL@@@_STL@@QAE@ABV?$allocator@P8CScriptObjectPlayer@@AEHPAUIFunctionHandler@@@Z@1@PAP8CScriptObjectPlayer@@AEHPAUIFunctionHandler@@@Z@Z 33026f02 f i ScriptObjectPlayer.obj
 0001:00025f02       ??0?$_STLP_alloc_proxy@PAU?$_Rb_tree_node@U?$pair@$$CBV?$basic_string@DU?$char_traits@D@std@@V?$allocator@D@_STL@@@_STL@@PAX@_STL@@@_STL@@U12@V?$allocator@U?$_Rb_tree_node@U?$pair@$$CBV?$basic_string@DU?$char_traits@D@std@@V?$allocator@D@_STL@@@_STL@@PAX@_STL@@@_STL@@@2@@_STL@@QAE@ABV?$allocator@U?$_Rb_tree_node@U?$pair@$$CBV?$basic_string@DU?$char_traits@D@std@@V?$allocator@D@_STL@@@_STL@@PAX@_STL@@@_STL@@@1@PAU?$_Rb_tree_node@U?$pair@$$CBV?$basic_string@DU?$char_traits@D@std@@V?$allocator@D@_STL@@@_STL@@PAX@_STL@@@1@@Z 33026f02 f i StringTableMgr.obj
 0001:00025f02       ??0?$_STLP_alloc_proxy@PAU?$_Rb_tree_node@H@_STL@@U12@V?$allocator@U?$_Rb_tree_node@H@_STL@@@2@@_STL@@QAE@ABV?$allocator@U?$_Rb_tree_node@H@_STL@@@1@PAU?$_Rb_tree_node@H@1@@Z 33026f02 f i XSystemBase.obj
 0001:00025f02       ??0?$_STLP_alloc_proxy@PAU?$_Rb_tree_node@U?$pair@$$CBV?$basic_string@DU?$char_traits@D@std@@V?$allocator@D@_STL@@@_STL@@UcouterEntry@CPlayer@@@_STL@@@_STL@@U12@V?$allocator@U?$_Rb_tree_node@U?$pair@$$CBV?$basic_string@DU?$char_traits@D@std@@V?$allocator@D@_STL@@@_STL@@UcouterEntry@CPlayer@@@_STL@@@_STL@@@2@@_STL@@QAE@ABV?$allocator@U?$_Rb_tree_node@U?$pair@$$CBV?$basic_string@DU?$char_traits@D@std@@V?$allocator@D@_STL@@@_STL@@UcouterEntry@CPlayer@@@_STL@@@_STL@@@1@PAU?$_Rb_tree_node@U?$pair@$$CBV?$basic_string@DU?$char_traits@D@std@@V?$allocator@D@_STL@@@_STL@@UcouterEntry@CPlayer@@@_STL@@@1@@Z 33026f02 f i XPlayer.obj
 0001:00025f02       ??0?$_STLP_alloc_proxy@PAU?$_List_node@PAUSIGDId@@@_STL@@U12@V?$allocator@U?$_List_node@PAUSIGDId@@@_STL@@@2@@_STL@@QAE@ABV?$allocator@U?$_List_node@PAUSIGDId@@@_STL@@@1@PAU?$_List_node@PAUSIGDId@@@1@@Z 33026f02 f i IngameDialog.obj
 0001:00025f02       ??0?$_STLP_alloc_proxy@PAU?$_Rb_tree_node@U?$pair@$$CBHUTeam@@@_STL@@@_STL@@U12@V?$allocator@U?$_Rb_tree_node@U?$pair@$$CBHUTeam@@@_STL@@@_STL@@@2@@_STL@@QAE@ABV?$allocator@U?$_Rb_tree_node@U?$pair@$$CBHUTeam@@@_STL@@@_STL@@@1@PAU?$_Rb_tree_node@U?$pair@$$CBHUTeam@@@_STL@@@1@@Z 33026f02 f i XSystemBase.obj
 0001:00025f02       ??0?$_STLP_alloc_proxy@PAUUIStaticLine@@U1@V?$allocator@UUIStaticLine@@@_STL@@@_STL@@QAE@ABV?$allocator@UUIStaticLine@@@1@PAUUIStaticLine@@@Z 33026f02 f i UIStatic.obj
 0001:00025f02       ??0?$_STLP_alloc_proxy@PAP8CUIScrollBar@@AEHPAUIFunctionHandler@@@ZP81@AEH0@ZV?$allocator@P8CUIScrollBar@@AEHPAUIFunctionHandler@@@Z@_STL@@@_STL@@QAE@ABV?$allocator@P8CUIScrollBar@@AEHPAUIFunctionHandler@@@Z@1@PAP8CUIScrollBar@@AEHPAUIFunctionHandler@@@Z@Z 33026f02 f i UIScrollBar.obj
 0001:00025f02       ??0?$_STLP_alloc_proxy@PAU?$_Rb_tree_node@U?$pair@$$CBVCIPAddress@@USXServerInfos@@@_STL@@@_STL@@U12@V?$allocator@U?$_Rb_tree_node@U?$pair@$$CBVCIPAddress@@USXServerInfos@@@_STL@@@_STL@@@2@@_STL@@QAE@ABV?$allocator@U?$_Rb_tree_node@U?$pair@$$CBVCIPAddress@@USXServerInfos@@@_STL@@@_STL@@@1@PAU?$_Rb_tree_node@U?$pair@$$CBVCIPAddress@@USXServerInfos@@@_STL@@@1@@Z 33026f02 f i Game.obj
 0001:00025f02       ??0?$_STLP_alloc_proxy@PAUGameEvent@@U1@V?$allocator@UGameEvent@@@_STL@@@_STL@@QAE@ABV?$allocator@UGameEvent@@@1@PAUGameEvent@@@Z 33026f02 f i Game.obj
 0001:00025f02       ??0?$_STLP_alloc_proxy@PAU?$_Rb_tree_node@G@_STL@@U12@V?$allocator@U?$_Rb_tree_node@G@_STL@@@2@@_STL@@QAE@ABV?$allocator@U?$_Rb_tree_node@G@_STL@@@1@PAU?$_Rb_tree_node@G@1@@Z 33026f02 f i XSystemBase.obj
 0001:00025f02       ??0?$_STLP_alloc_proxy@PAPAUProperty@?$_ScriptableEx@VCScriptObjectFireParam@@@@PAU12@V?$allocator@PAUProperty@?$_ScriptableEx@VCScriptObjectFireParam@@@@@_STL@@@_STL@@QAE@ABV?$allocator@PAUProperty@?$_ScriptableEx@VCScriptObjectFireParam@@@@@1@PAPAUProperty@?$_ScriptableEx@VCScriptObjectFireParam@@@@@Z 33026f02 f i ScriptObjectWeaponClass.obj
 0001:00025f02       ??0?$_STLP_alloc_proxy@PAP8CScriptObjectServerSlot@@AEHPAUIFunctionHandler@@@ZP81@AEH0@ZV?$allocator@P8CScriptObjectServerSlot@@AEHPAUIFunctionHandler@@@Z@_STL@@@_STL@@QAE@ABV?$allocator@P8CScriptObjectServerSlot@@AEHPAUIFunctionHandler@@@Z@1@PAP8CScriptObjectServerSlot@@AEHPAUIFunctionHandler@@@Z@Z 33026f02 f i ScriptObjectServerSlot.obj
 0001:00025f02       ??0?$_STLP_alloc_proxy@PAP8CUICheckBox@@AEHPAUIFunctionHandler@@@ZP81@AEH0@ZV?$allocator@P8CUICheckBox@@AEHPAUIFunctionHandler@@@Z@_STL@@@_STL@@QAE@ABV?$allocator@P8CUICheckBox@@AEHPAUIFunctionHandler@@@Z@1@PAP8CUICheckBox@@AEHPAUIFunctionHandler@@@Z@Z 33026f02 f i UICheckBox.obj
 0001:00025f02       ??0?$_STLP_alloc_proxy@PAP8CScriptObjectServer@@AEHPAUIFunctionHandler@@@ZP81@AEH0@ZV?$allocator@P8CScriptObjectServer@@AEHPAUIFunctionHandler@@@Z@_STL@@@_STL@@QAE@ABV?$allocator@P8CScriptObjectServer@@AEHPAUIFunctionHandler@@@Z@1@PAP8CScriptObjectServer@@AEHPAUIFunctionHandler@@@Z@Z 33026f02 f i ScriptObjectServer.obj
 0001:00025f02       ??0?$_STLP_alloc_proxy@PAU?$_Rb_tree_node@U?$pair@$$CBGH@_STL@@@_STL@@U12@V?$allocator@U?$_Rb_tree_node@U?$pair@$$CBGH@_STL@@@_STL@@@2@@_STL@@QAE@ABV?$allocator@U?$_Rb_tree_node@U?$pair@$$CBGH@_STL@@@_STL@@@1@PAU?$_Rb_tree_node@U?$pair@$$CBGH@_STL@@@1@@Z 33026f02 f i XServerSlot.obj
 0001:00025f02       ??0?$_STLP_alloc_proxy@PAPAUSGameModDescription@@PAU1@V?$allocator@PAUSGameModDescription@@@_STL@@@_STL@@QAE@ABV?$allocator@PAUSGameModDescription@@@1@PAPAUSGameModDescription@@@Z 33026f02 f i GameMods.obj
 0001:00025f02       ??0?$_STLP_alloc_proxy@PAUUIListSubItem@@U1@V?$allocator@UUIListSubItem@@@_STL@@@_STL@@QAE@ABV?$allocator@UUIListSubItem@@@1@PAUUIListSubItem@@@Z 33026f02 f i UIListView.obj
 0001:00025f02       ??0?$_STLP_alloc_proxy@PAP8CUIComboBox@@AEHPAUIFunctionHandler@@@ZP81@AEH0@ZV?$allocator@P8CUIComboBox@@AEHPAUIFunctionHandler@@@Z@_STL@@@_STL@@QAE@ABV?$allocator@P8CUIComboBox@@AEHPAUIFunctionHandler@@@Z@1@PAP8CUIComboBox@@AEHPAUIFunctionHandler@@@Z@Z 33026f02 f i UIComboBox.obj
 0001:00025f02       ??0?$_STLP_alloc_proxy@PAU?$_Rb_tree_node@U?$pair@$$CBV?$basic_string@DU?$char_traits@D@std@@V?$allocator@D@_STL@@@_STL@@UActionInfo@@@_STL@@@_STL@@U12@V?$allocator@U?$_Rb_tree_node@U?$pair@$$CBV?$basic_string@DU?$char_traits@D@std@@V?$allocator@D@_STL@@@_STL@@UActionInfo@@@_STL@@@_STL@@@2@@_STL@@QAE@ABV?$allocator@U?$_Rb_tree_node@U?$pair@$$CBV?$basic_string@DU?$char_traits@D@std@@V?$allocator@D@_STL@@@_STL@@UActionInfo@@@_STL@@@_STL@@@1@PAU?$_Rb_tree_node@U?$pair@$$CBV?$basic_string@DU?$char_traits@D@std@@V?$allocator@D@_STL@@@_STL@@UActionInfo@@@_STL@@@1@@Z 33026f02 f i Game.obj
 0001:00025f02       ??0?$_STLP_alloc_proxy@PAPAVCUIWidget@@PAV1@V?$allocator@PAVCUIWidget@@@_STL@@@_STL@@QAE@ABV?$allocator@PAVCUIWidget@@@1@PAPAVCUIWidget@@@Z 33026f02 f i UIScreen.obj
 0001:00025f02       ??0?$_STLP_alloc_proxy@PAP8CScriptObjectLanguage@@AEHPAUIFunctionHandler@@@ZP81@AEH0@ZV?$allocator@P8CScriptObjectLanguage@@AEHPAUIFunctionHandler@@@Z@_STL@@@_STL@@QAE@ABV?$allocator@P8CScriptObjectLanguage@@AEHPAUIFunctionHandler@@@Z@1@PAP8CScriptObjectLanguage@@AEHPAUIFunctionHandler@@@Z@Z 33026f02 f i ScriptObjectLanguage.obj
 0001:00025f02       ??0?$_STLP_alloc_proxy@PAVCIPAddress@@V1@V?$allocator@VCIPAddress@@@_STL@@@_STL@@QAE@ABV?$allocator@VCIPAddress@@@1@PAVCIPAddress@@@Z 33026f02 f i ScriptObjectGame.obj
 0001:00025f02       ??0?$_STLP_alloc_proxy@PAP8CUIVideoPanel@@AEHPAUIFunctionHandler@@@ZP81@AEH0@ZV?$allocator@P8CUIVideoPanel@@AEHPAUIFunctionHandler@@@Z@_STL@@@_STL@@QAE@ABV?$allocator@P8CUIVideoPanel@@AEHPAUIFunctionHandler@@@Z@1@PAP8CUIVideoPanel@@AEHPAUIFunctionHandler@@@Z@Z 33026f02 f i UIVideoPanel.obj
 0001:00025f02       ??0?$_STLP_alloc_proxy@PAU?$_Rb_tree_node@U?$pair@$$CBV?$basic_string@DU?$char_traits@D@std@@V?$allocator@D@_STL@@@_STL@@PAUITagPoint@@@_STL@@@_STL@@U12@V?$allocator@U?$_Rb_tree_node@U?$pair@$$CBV?$basic_string@DU?$char_traits@D@std@@V?$allocator@D@_STL@@@_STL@@PAUITagPoint@@@_STL@@@_STL@@@2@@_STL@@QAE@ABV?$allocator@U?$_Rb_tree_node@U?$pair@$$CBV?$basic_string@DU?$char_traits@D@std@@V?$allocator@D@_STL@@@_STL@@PAUITagPoint@@@_STL@@@_STL@@@1@PAU?$_Rb_tree_node@U?$pair@$$CBV?$basic_string@DU?$char_traits@D@std@@V?$allocator@D@_STL@@@_STL@@PAUITagPoint@@@_STL@@@1@@Z 33026f02 f i XServer.obj
 0001:00025f02       ??0?$_STLP_alloc_proxy@PAU?$_Rb_tree_node@U?$pair@$$CBHUSMatProps@@@_STL@@@_STL@@U12@V?$allocator@U?$_Rb_tree_node@U?$pair@$$CBHUSMatProps@@@_STL@@@_STL@@@2@@_STL@@QAE@ABV?$allocator@U?$_Rb_tree_node@U?$pair@$$CBHUSMatProps@@@_STL@@@_STL@@@1@PAU?$_Rb_tree_node@U?$pair@$$CBHUSMatProps@@@_STL@@@1@@Z 33026f02 f i XSurfaceMgr.obj
 0001:00025f02       ??0?$_STLP_alloc_proxy@PAU?$_Rb_tree_node@U?$pair@$$CBHH@_STL@@@_STL@@U12@V?$allocator@U?$_Rb_tree_node@U?$pair@$$CBHH@_STL@@@_STL@@@2@@_STL@@QAE@ABV?$allocator@U?$_Rb_tree_node@U?$pair@$$CBHH@_STL@@@_STL@@@1@PAU?$_Rb_tree_node@U?$pair@$$CBHH@_STL@@@1@@Z 33026f02 f i XSystemBase.obj
 0001:00025f02       ??0?$_STLP_alloc_proxy@PAUSTableEntry@CSynched2DTable@@U12@V?$allocator@USTableEntry@CSynched2DTable@@@_STL@@@_STL@@QAE@ABV?$allocator@USTableEntry@CSynched2DTable@@@1@PAUSTableEntry@CSynched2DTable@@@Z 33026f02 f i Synched2DTable.obj
 0001:00025f02       ??0?$_STLP_alloc_proxy@PAUAISIGNAL@@U1@V?$allocator@UAISIGNAL@@@_STL@@@_STL@@QAE@ABV?$allocator@UAISIGNAL@@@1@PAUAISIGNAL@@@Z 33026f02 f i XVehicleProxy.obj
 0001:00025f02       ??0?$_STLP_alloc_proxy@PAPAUIEntity@@PAU1@V?$allocator@PAUIEntity@@@_STL@@@_STL@@QAE@ABV?$allocator@PAUIEntity@@@1@PAPAUIEntity@@@Z 33026f02 f i XClient.obj
 0001:00025f02       ??0?$_STLP_alloc_proxy@PAP8CUIListView@@AEHPAUIFunctionHandler@@@ZP81@AEH0@ZV?$allocator@P8CUIListView@@AEHPAUIFunctionHandler@@@Z@_STL@@@_STL@@QAE@ABV?$allocator@P8CUIListView@@AEHPAUIFunctionHandler@@@Z@1@PAP8CUIListView@@AEHPAUIFunctionHandler@@@Z@Z 33026f02 f i UIListView.obj
 0001:00025f02       ??0?$_STLP_alloc_proxy@PAPAVCFlock@@PAV1@V?$allocator@PAVCFlock@@@_STL@@@_STL@@QAE@ABV?$allocator@PAVCFlock@@@1@PAPAVCFlock@@@Z 33026f02 f i Flock.obj
 0001:00025f02       ??0?$_STLP_alloc_proxy@PAU?$_Rb_tree_node@V?$basic_string@DU?$char_traits@D@std@@V?$allocator@D@_STL@@@_STL@@@_STL@@U12@V?$allocator@U?$_Rb_tree_node@V?$basic_string@DU?$char_traits@D@std@@V?$allocator@D@_STL@@@_STL@@@_STL@@@2@@_STL@@QAE@ABV?$allocator@U?$_Rb_tree_node@V?$basic_string@DU?$char_traits@D@std@@V?$allocator@D@_STL@@@_STL@@@_STL@@@1@PAU?$_Rb_tree_node@V?$basic_string@DU?$char_traits@D@std@@V?$allocator@D@_STL@@@_STL@@@1@@Z 33026f02 f i XSystemBase.obj
 0001:00025f02       ??0?$_STLP_alloc_proxy@PAVBannedID@@V1@V?$allocator@VBannedID@@@_STL@@@_STL@@QAE@ABV?$allocator@VBannedID@@@1@PAVBannedID@@@Z 33026f02 f i XServer.obj
 0001:00025f02       ??0?$_STLP_alloc_proxy@PAP8CScriptObjectUI@@AEHPAUIFunctionHandler@@@ZP81@AEH0@ZV?$allocator@P8CScriptObjectUI@@AEHPAUIFunctionHandler@@@Z@_STL@@@_STL@@QAE@ABV?$allocator@P8CScriptObjectUI@@AEHPAUIFunctionHandler@@@Z@1@PAP8CScriptObjectUI@@AEHPAUIFunctionHandler@@@Z@Z 33026f02 f i ScriptObjectUI.obj
 0001:00025f02       ??0?$_STLP_alloc_proxy@PAPAUIStatObj@@PAU1@V?$allocator@PAUIStatObj@@@_STL@@@_STL@@QAE@ABV?$allocator@PAUIStatObj@@@1@PAPAUIStatObj@@@Z 33026f02 f i WeaponSystemEx.obj
 0001:00025f02       ??0?$_STLP_alloc_proxy@PAKKV?$allocator@K@_STL@@@_STL@@QAE@ABV?$allocator@K@1@PAK@Z 33026f02 f i XNetworkStats.obj
 0001:00025f02       ??0?$_STLP_alloc_proxy@PAP8CUIEditBox@@AEHPAUIFunctionHandler@@@ZP81@AEH0@ZV?$allocator@P8CUIEditBox@@AEHPAUIFunctionHandler@@@Z@_STL@@@_STL@@QAE@ABV?$allocator@P8CUIEditBox@@AEHPAUIFunctionHandler@@@Z@1@PAP8CUIEditBox@@AEHPAUIFunctionHandler@@@Z@Z 33026f02 f i UIEditBox.obj
 0001:00025f02       ??0?$_STLP_alloc_proxy@PAIIV?$allocator@I@_STL@@@_STL@@QAE@ABV?$allocator@I@1@PAI@Z 33026f02 f i XServer.obj
 0001:00025f02       ??0?$_STLP_alloc_proxy@PAPAUUIComboItem@@PAU1@V?$allocator@PAUUIComboItem@@@_STL@@@_STL@@QAE@ABV?$allocator@PAUUIComboItem@@@1@PAPAUUIComboItem@@@Z 33026f02 f i UIComboBox.obj
 0001:00025f02       ??0?$_STLP_alloc_proxy@PAPAUa2DSegment@CXArea@@PAU12@V?$allocator@PAUa2DSegment@CXArea@@@_STL@@@_STL@@QAE@ABV?$allocator@PAUa2DSegment@CXArea@@@1@PAPAUa2DSegment@CXArea@@@Z 33026f02 f i XArea.obj
 0001:00025f02       ??0?$_STLP_alloc_proxy@PAU?$_Rb_tree_node@U?$pair@$$CBV?$basic_string@DU?$char_traits@D@std@@V?$allocator@D@_STL@@@_STL@@M@_STL@@@_STL@@U12@V?$allocator@U?$_Rb_tree_node@U?$pair@$$CBV?$basic_string@DU?$char_traits@D@std@@V?$allocator@D@_STL@@@_STL@@M@_STL@@@_STL@@@2@@_STL@@QAE@ABV?$allocator@U?$_Rb_tree_node@U?$pair@$$CBV?$basic_string@DU?$char_traits@D@std@@V?$allocator@D@_STL@@@_STL@@M@_STL@@@_STL@@@1@PAU?$_Rb_tree_node@U?$pair@$$CBV?$basic_string@DU?$char_traits@D@std@@V?$allocator@D@_STL@@@_STL@@M@_STL@@@1@@Z 33026f02 f i XPlayer.obj
 0001:00025f02       ??0?$_STLP_alloc_proxy@PAPAVCWeaponClass@@PAV1@V?$allocator@PAVCWeaponClass@@@_STL@@@_STL@@QAE@ABV?$allocator@PAVCWeaponClass@@@1@PAPAVCWeaponClass@@@Z 33026f02 f i WeaponSystemEx.obj
 0001:00025f02       ??0?$_STLP_alloc_proxy@PAPAUProperty@?$_ScriptableEx@VCScriptObjectVehicle@@@@PAU12@V?$allocator@PAUProperty@?$_ScriptableEx@VCScriptObjectVehicle@@@@@_STL@@@_STL@@QAE@ABV?$allocator@PAUProperty@?$_ScriptableEx@VCScriptObjectVehicle@@@@@1@PAPAUProperty@?$_ScriptableEx@VCScriptObjectVehicle@@@@@Z 33026f02 f i ScriptObjectVehicle.obj
 0001:00025f02       ??0?$_STLP_alloc_proxy@PAU?$_List_node@VCNetEntityInfo@@@_STL@@U12@V?$allocator@U?$_List_node@VCNetEntityInfo@@@_STL@@@2@@_STL@@QAE@ABV?$allocator@U?$_List_node@VCNetEntityInfo@@@_STL@@@1@PAU?$_List_node@VCNetEntityInfo@@@1@@Z 33026f02 f i XSnapshot.obj
 0001:00025f02       ??0?$_STLP_alloc_proxy@PAU?$_Rb_tree_node@U?$pair@$$CBV?$basic_string@DU?$char_traits@D@std@@V?$allocator@D@_STL@@@_STL@@PAVCTagPoint@@@_STL@@@_STL@@U12@V?$allocator@U?$_Rb_tree_node@U?$pair@$$CBV?$basic_string@DU?$char_traits@D@std@@V?$allocator@D@_STL@@@_STL@@PAVCTagPoint@@@_STL@@@_STL@@@2@@_STL@@QAE@ABV?$allocator@U?$_Rb_tree_node@U?$pair@$$CBV?$basic_string@DU?$char_traits@D@std@@V?$allocator@D@_STL@@@_STL@@PAVCTagPoint@@@_STL@@@_STL@@@1@PAU?$_Rb_tree_node@U?$pair@$$CBV?$basic_string@DU?$char_traits@D@std@@V?$allocator@D@_STL@@@_STL@@PAVCTagPoint@@@_STL@@@1@@Z 33026f02 f i Game.obj
 0001:00025f02       ??0?$_STLP_alloc_proxy@PAUEntityEventTarget@@U1@V?$allocator@UEntityEventTarget@@@_STL@@@_STL@@QAE@ABV?$allocator@UEntityEventTarget@@@1@PAUEntityEventTarget@@@Z 33026f02 f i XSystemBase.obj
 0001:00025f02       ??0?$_STLP_alloc_proxy@PAP8CScriptObjectClient@@AEHPAUIFunctionHandler@@@ZP81@AEH0@ZV?$allocator@P8CScriptObjectClient@@AEHPAUIFunctionHandler@@@Z@_STL@@@_STL@@QAE@ABV?$allocator@P8CScriptObjectClient@@AEHPAUIFunctionHandler@@@Z@1@PAP8CScriptObjectClient@@AEHPAUIFunctionHandler@@@Z@Z 33026f02 f i ScriptObjectClient.obj
 0001:00025f02       ??0?$_STLP_alloc_proxy@PAP8CScriptObjectVehicle@@AEHPAUIFunctionHandler@@@ZP81@AEH0@ZV?$allocator@P8CScriptObjectVehicle@@AEHPAUIFunctionHandler@@@Z@_STL@@@_STL@@QAE@ABV?$allocator@P8CScriptObjectVehicle@@AEHPAUIFunctionHandler@@@Z@1@PAP8CScriptObjectVehicle@@AEHPAUIFunctionHandler@@@Z@Z 33026f02 f i ScriptObjectVehicle.obj
 0001:00025f02       ??0?$_STLP_alloc_proxy@PAPAVCXArea@@PAV1@V?$allocator@PAVCXArea@@@_STL@@@_STL@@QAE@ABV?$allocator@PAVCXArea@@@1@PAPAVCXArea@@@Z 33026f02 f i XArea.obj
 0001:00025f02       ??0?$_STLP_alloc_proxy@PAP8CScriptObjectSpectator@@AEHPAUIFunctionHandler@@@ZP81@AEH0@ZV?$allocator@P8CScriptObjectSpectator@@AEHPAUIFunctionHandler@@@Z@_STL@@@_STL@@QAE@ABV?$allocator@P8CScriptObjectSpectator@@AEHPAUIFunctionHandler@@@Z@1@PAP8CScriptObjectSpectator@@AEHPAUIFunctionHandler@@@Z@Z 33026f02 f i ScriptObjectSpectator.obj
 0001:00025f02       ??0?$_STLP_alloc_proxy@PAPAV?$basic_string@DU?$char_traits@D@std@@V?$allocator@D@_STL@@@_STL@@PAV12@V?$allocator@PAV?$basic_string@DU?$char_traits@D@std@@V?$allocator@D@_STL@@@_STL@@@2@@_STL@@QAE@ABV?$allocator@PAV?$basic_string@DU?$char_traits@D@std@@V?$allocator@D@_STL@@@_STL@@@1@PAPAV?$basic_string@DU?$char_traits@D@std@@V?$allocator@D@_STL@@@1@@Z 33026f02 f i Game.obj
 0001:00025f02       ??0?$_STLP_alloc_proxy@PAP8CScriptObjectRenderer@@AEHPAUIFunctionHandler@@@ZP81@AEH0@ZV?$allocator@P8CScriptObjectRenderer@@AEHPAUIFunctionHandler@@@Z@_STL@@@_STL@@QAE@ABV?$allocator@P8CScriptObjectRenderer@@AEHPAUIFunctionHandler@@@Z@1@PAP8CScriptObjectRenderer@@AEHPAUIFunctionHandler@@@Z@Z 33026f02 f i ScriptObjectRenderer.obj
 0001:00025f02       ??0?$_STLP_alloc_proxy@PAU?$_Rb_tree_node@U?$pair@$$CBHUtWeaponPersistentData@@@_STL@@@_STL@@U12@V?$allocator@U?$_Rb_tree_node@U?$pair@$$CBHUtWeaponPersistentData@@@_STL@@@_STL@@@2@@_STL@@QAE@ABV?$allocator@U?$_Rb_tree_node@U?$pair@$$CBHUtWeaponPersistentData@@@_STL@@@_STL@@@1@PAU?$_Rb_tree_node@U?$pair@$$CBHUtWeaponPersistentData@@@_STL@@@1@@Z 33026f02 f i Game.obj
 0001:00025f02       ??0?$_STLP_alloc_proxy@PADDV?$allocator@D@_STL@@@_STL@@QAE@ABV?$allocator@D@1@PAD@Z 33026f02 f i IngameDialog.obj
 0001:00025f02       ??0?$_STLP_alloc_proxy@PAP8CScriptObjectInput@@AEHPAUIFunctionHandler@@@ZP81@AEH0@ZV?$allocator@P8CScriptObjectInput@@AEHPAUIFunctionHandler@@@Z@_STL@@@_STL@@QAE@ABV?$allocator@P8CScriptObjectInput@@AEHPAUIFunctionHandler@@@Z@1@PAP8CScriptObjectInput@@AEHPAUIFunctionHandler@@@Z@Z 33026f02 f i ScriptObjectInput.obj
 0001:00025f02       ??0?$_STLP_alloc_proxy@PAU?$_List_node@USDirtyItem@CSynched2DTable@@@_STL@@U12@V?$allocator@U?$_List_node@USDirtyItem@CSynched2DTable@@@_STL@@@2@@_STL@@QAE@ABV?$allocator@U?$_List_node@USDirtyItem@CSynched2DTable@@@_STL@@@1@PAU?$_List_node@USDirtyItem@CSynched2DTable@@@1@@Z 33026f02 f i Synched2DTable.obj
 0001:00025f02       ??0?$_STLP_alloc_proxy@PAHHV?$allocator@H@_STL@@@_STL@@QAE@ABV?$allocator@H@1@PAH@Z 33026f02 f i UIListView.obj
 0001:00025f02       ??0?$_STLP_alloc_proxy@PAUUIListColumn@@U1@V?$allocator@UUIListColumn@@@_STL@@@_STL@@QAE@ABV?$allocator@UUIListColumn@@@1@PAUUIListColumn@@@Z 33026f02 f i UIListView.obj
 0001:00025f02       ??0?$_STLP_alloc_proxy@PAU?$_Rb_tree_node@U?$pair@$$CBHUWeaponInfo@@@_STL@@@_STL@@U12@V?$allocator@U?$_Rb_tree_node@U?$pair@$$CBHUWeaponInfo@@@_STL@@@_STL@@@2@@_STL@@QAE@ABV?$allocator@U?$_Rb_tree_node@U?$pair@$$CBHUWeaponInfo@@@_STL@@@_STL@@@1@PAU?$_Rb_tree_node@U?$pair@$$CBHUWeaponInfo@@@_STL@@@1@@Z 33026f02 f i XPlayer.obj
 0001:00025f02       ??0?$_STLP_alloc_proxy@PAPAUUIListItem@@PAU1@V?$allocator@PAUUIListItem@@@_STL@@@_STL@@QAE@ABV?$allocator@PAUUIListItem@@@1@PAPAUUIListItem@@@Z 33026f02 f i UIListView.obj
 0001:00025f02       ??0?$_STLP_alloc_proxy@PAP8CScriptObjectAI@@AEHPAUIFunctionHandler@@@ZP81@AEH0@ZV?$allocator@P8CScriptObjectAI@@AEHPAUIFunctionHandler@@@Z@_STL@@@_STL@@QAE@ABV?$allocator@P8CScriptObjectAI@@AEHPAUIFunctionHandler@@@Z@1@PAP8CScriptObjectAI@@AEHPAUIFunctionHandler@@@Z@Z 33026f02 f i ScriptObjectAI.obj
 0001:00025f02       ??0?$_STLP_alloc_proxy@PAPAVCPlayer@@PAV1@V?$allocator@PAVCPlayer@@@_STL@@@_STL@@QAE@ABV?$allocator@PAVCPlayer@@@1@PAPAVCPlayer@@@Z 33026f02 f i GameEquipPacks.obj
 0001:00025f02       ??0?$_STLP_alloc_proxy@PAUSCountSize@CXNetworkStats@@U12@V?$allocator@USCountSize@CXNetworkStats@@@_STL@@@_STL@@QAE@ABV?$allocator@USCountSize@CXNetworkStats@@@1@PAUSCountSize@CXNetworkStats@@@Z 33026f02 f i XNetworkStats.obj
 0001:00025f02       ??0?$_STLP_alloc_proxy@PAP8CScriptObjectWeaponClass@@AEHPAUIFunctionHandler@@@ZP81@AEH0@ZV?$allocator@P8CScriptObjectWeaponClass@@AEHPAUIFunctionHandler@@@Z@_STL@@@_STL@@QAE@ABV?$allocator@P8CScriptObjectWeaponClass@@AEHPAUIFunctionHandler@@@Z@1@PAP8CScriptObjectWeaponClass@@AEHPAUIFunctionHandler@@@Z@Z 33026f02 f i ScriptObjectWeaponClass.obj
 0001:00025f02       ??0?$_STLP_alloc_proxy@PAUUIListImage@@U1@V?$allocator@UUIListImage@@@_STL@@@_STL@@QAE@ABV?$allocator@UUIListImage@@@1@PAUUIListImage@@@Z 33026f02 f i UIListView.obj
 0001:00025f02       ??0?$_STLP_alloc_proxy@PAPAVCUIScreen@@PAV1@V?$allocator@PAVCUIScreen@@@_STL@@@_STL@@QAE@ABV?$allocator@PAVCUIScreen@@@1@PAPAVCUIScreen@@@Z 33026f02 f i UISystem.obj
 0001:00025f02       ??0?$_STLP_alloc_proxy@PAP8CUIScreen@@AEHPAUIFunctionHandler@@@ZP81@AEH0@ZV?$allocator@P8CUIScreen@@AEHPAUIFunctionHandler@@@Z@_STL@@@_STL@@QAE@ABV?$allocator@P8CUIScreen@@AEHPAUIFunctionHandler@@@Z@1@PAP8CUIScreen@@AEHPAUIFunctionHandler@@@Z@Z 33026f02 f i UIScreen.obj
 0001:00025f02       ??0?$_STLP_alloc_proxy@PAPAUProperty@?$_ScriptableEx@VCScriptObjectPlayer@@@@PAU12@V?$allocator@PAUProperty@?$_ScriptableEx@VCScriptObjectPlayer@@@@@_STL@@@_STL@@QAE@ABV?$allocator@PAUProperty@?$_ScriptableEx@VCScriptObjectPlayer@@@@@1@PAPAUProperty@?$_ScriptableEx@VCScriptObjectPlayer@@@@@Z 33026f02 f i ScriptObjectPlayer.obj
 0001:00025f02       ??0?$_STLP_alloc_proxy@PAP8CScriptObjectAdvCamSystem@@AEHPAUIFunctionHandler@@@ZP81@AEH0@ZV?$allocator@P8CScriptObjectAdvCamSystem@@AEHPAUIFunctionHandler@@@Z@_STL@@@_STL@@QAE@ABV?$allocator@P8CScriptObjectAdvCamSystem@@AEHPAUIFunctionHandler@@@Z@1@PAP8CScriptObjectAdvCamSystem@@AEHPAUIFunctionHandler@@@Z@Z 33026f02 f i ScriptObjectAdvCamSystem.obj
 0001:00025f02       ??0?$_STLP_alloc_proxy@PAUSTableLine@CSynched2DTable@@U12@V?$allocator@USTableLine@CSynched2DTable@@@_STL@@@_STL@@QAE@ABV?$allocator@USTableLine@CSynched2DTable@@@1@PAUSTableLine@CSynched2DTable@@@Z 33026f02 f i Synched2DTable.obj
 0001:00025f02       ??0?$_STLP_alloc_proxy@IV?$basic_string@DU?$char_traits@D@std@@V?$allocator@D@_STL@@@_STL@@V?$allocator@V?$basic_string@DU?$char_traits@D@std@@V?$allocator@D@_STL@@@_STL@@@2@@_STL@@QAE@ABV?$allocator@V?$basic_string@DU?$char_traits@D@std@@V?$allocator@D@_STL@@@_STL@@@1@I@Z 33026f02 f i Game.obj
 0001:00025f02       ??0?$_STLP_alloc_proxy@PAP8CScriptObjectSynched2DTable@@AEHPAUIFunctionHandler@@@ZP81@AEH0@ZV?$allocator@P8CScriptObjectSynched2DTable@@AEHPAUIFunctionHandler@@@Z@_STL@@@_STL@@QAE@ABV?$allocator@P8CScriptObjectSynched2DTable@@AEHPAUIFunctionHandler@@@Z@1@PAP8CScriptObjectSynched2DTable@@AEHPAUIFunctionHandler@@@Z@Z 33026f02 f i ScriptObjectSynched2DTable.obj
 0001:00025f02       ??0?$_STLP_alloc_proxy@PAPAVCScriptObjectRenderer@@PAV1@V?$allocator@PAVCScriptObjectRenderer@@@_STL@@@_STL@@QAE@ABV?$allocator@PAVCScriptObjectRenderer@@@1@PAPAVCScriptObjectRenderer@@@Z 33026f02 f i ScriptObjectGame.obj
 0001:00025f02       ??0?$_STLP_alloc_proxy@PAPAUIScriptObject@@PAU1@V?$allocator@PAUIScriptObject@@@_STL@@@_STL@@QAE@ABV?$allocator@PAUIScriptObject@@@1@PAPAUIScriptObject@@@Z 33026f02 f i ScriptObjectGame.obj
 0001:00025f02       ??0?$_STLP_alloc_proxy@PAP8CScriptObjectBoids@@AEHPAUIFunctionHandler@@@ZP81@AEH0@ZV?$allocator@P8CScriptObjectBoids@@AEHPAUIFunctionHandler@@@Z@_STL@@@_STL@@QAE@ABV?$allocator@P8CScriptObjectBoids@@AEHPAUIFunctionHandler@@@Z@1@PAP8CScriptObjectBoids@@AEHPAUIFunctionHandler@@@Z@Z 33026f02 f i ScriptObjectBoids.obj
 0001:00025f02       ??0?$_STLP_alloc_proxy@PAU?$_Rb_tree_node@U?$pair@$$CBV?$basic_string@DU?$char_traits@D@std@@V?$allocator@D@_STL@@@_STL@@H@_STL@@@_STL@@U12@V?$allocator@U?$_Rb_tree_node@U?$pair@$$CBV?$basic_string@DU?$char_traits@D@std@@V?$allocator@D@_STL@@@_STL@@H@_STL@@@_STL@@@2@@_STL@@QAE@ABV?$allocator@U?$_Rb_tree_node@U?$pair@$$CBV?$basic_string@DU?$char_traits@D@std@@V?$allocator@D@_STL@@@_STL@@H@_STL@@@_STL@@@1@PAU?$_Rb_tree_node@U?$pair@$$CBV?$basic_string@DU?$char_traits@D@std@@V?$allocator@D@_STL@@@_STL@@H@_STL@@@1@@Z 33026f02 f i Game.obj
 0001:00025f02       ??0?$_STLP_alloc_proxy@PAU?$_Rb_tree_node@U?$pair@$$CBEUSDirtylist@CSynched2DTable@@@_STL@@@_STL@@U12@V?$allocator@U?$_Rb_tree_node@U?$pair@$$CBEUSDirtylist@CSynched2DTable@@@_STL@@@_STL@@@2@@_STL@@QAE@ABV?$allocator@U?$_Rb_tree_node@U?$pair@$$CBEUSDirtylist@CSynched2DTable@@@_STL@@@_STL@@@1@PAU?$_Rb_tree_node@U?$pair@$$CBEUSDirtylist@CSynched2DTable@@@_STL@@@1@@Z 33026f02 f i Synched2DTable.obj
 0001:00025f02       ??0?$_STLP_alloc_proxy@PAP8CUIButton@@AEHPAUIFunctionHandler@@@ZP81@AEH0@ZV?$allocator@P8CUIButton@@AEHPAUIFunctionHandler@@@Z@_STL@@@_STL@@QAE@ABV?$allocator@P8CUIButton@@AEHPAUIFunctionHandler@@@Z@1@PAP8CUIButton@@AEHPAUIFunctionHandler@@@Z@Z 33026f02 f i UIButton.obj
 0001:00025f02       ??0?$_STLP_alloc_proxy@PAPAVCBoidObject@@PAV1@V?$allocator@PAVCBoidObject@@@_STL@@@_STL@@QAE@ABV?$allocator@PAVCBoidObject@@@1@PAPAVCBoidObject@@@Z 33026f02 f i Flock.obj
 0001:00025f02       ??0?$_STLP_alloc_proxy@PAU?$_Rb_tree_node@U?$pair@$$CBV?$basic_string@DU?$char_traits@D@std@@V?$allocator@D@_STL@@@_STL@@UMatDesc@CXSurfaceMgr@@@_STL@@@_STL@@U12@V?$allocator@U?$_Rb_tree_node@U?$pair@$$CBV?$basic_string@DU?$char_traits@D@std@@V?$allocator@D@_STL@@@_STL@@UMatDesc@CXSurfaceMgr@@@_STL@@@_STL@@@2@@_STL@@QAE@ABV?$allocator@U?$_Rb_tree_node@U?$pair@$$CBV?$basic_string@DU?$char_traits@D@std@@V?$allocator@D@_STL@@@_STL@@UMatDesc@CXSurfaceMgr@@@_STL@@@_STL@@@1@PAU?$_Rb_tree_node@U?$pair@$$CBV?$basic_string@DU?$char_traits@D@std@@V?$allocator@D@_STL@@@_STL@@UMatDesc@CXSurfaceMgr@@@_STL@@@1@@Z 33026f02 f i XSurfaceMgr.obj
 0001:00025f02       ??0?$_STLP_alloc_proxy@PAUtag_Vtx@@U1@V?$allocator@Utag_Vtx@@@_STL@@@_STL@@QAE@ABV?$allocator@Utag_Vtx@@@1@PAUtag_Vtx@@@Z 33026f02 f i ScriptObjectRenderer.obj
 0001:00025f02       ??0?$_STLP_alloc_proxy@PAP8CScriptObjectStream@@AEHPAUIFunctionHandler@@@ZP81@AEH0@ZV?$allocator@P8CScriptObjectStream@@AEHPAUIFunctionHandler@@@Z@_STL@@@_STL@@QAE@ABV?$allocator@P8CScriptObjectStream@@AEHPAUIFunctionHandler@@@Z@1@PAP8CScriptObjectStream@@AEHPAUIFunctionHandler@@@Z@Z 33026f02 f i ScriptObjectStream.obj
 0001:00025f02       ??0?$_STLP_alloc_proxy@PAU?$_List_node@VCEntityStreamData@@@_STL@@U12@V?$allocator@U?$_List_node@VCEntityStreamData@@@_STL@@@2@@_STL@@QAE@ABV?$allocator@U?$_List_node@VCEntityStreamData@@@_STL@@@1@PAU?$_List_node@VCEntityStreamData@@@1@@Z 33026f02 f i XSystemBase.obj
 0001:00025f02       ??0?$_STLP_alloc_proxy@PAU?$_List_node@H@_STL@@U12@V?$allocator@U?$_List_node@H@_STL@@@2@@_STL@@QAE@ABV?$allocator@U?$_List_node@H@_STL@@@1@PAU?$_List_node@H@1@@Z 33026f02 f i XVehicle.obj
 0001:00025f02       ??0?$_STLP_alloc_proxy@PAU?$_List_node@V?$basic_string@DU?$char_traits@D@std@@V?$allocator@D@_STL@@@_STL@@@_STL@@U12@V?$allocator@U?$_List_node@V?$basic_string@DU?$char_traits@D@std@@V?$allocator@D@_STL@@@_STL@@@_STL@@@2@@_STL@@QAE@ABV?$allocator@U?$_List_node@V?$basic_string@DU?$char_traits@D@std@@V?$allocator@D@_STL@@@_STL@@@_STL@@@1@PAU?$_List_node@V?$basic_string@DU?$char_traits@D@std@@V?$allocator@D@_STL@@@_STL@@@1@@Z 33026f02 f i WeaponSystemEx.obj
 0001:00025f02       ??0?$_STLP_alloc_proxy@PAP8CUIStatic@@AEHPAUIFunctionHandler@@@ZP81@AEH0@ZV?$allocator@P8CUIStatic@@AEHPAUIFunctionHandler@@@Z@_STL@@@_STL@@QAE@ABV?$allocator@P8CUIStatic@@AEHPAUIFunctionHandler@@@Z@1@PAP8CUIStatic@@AEHPAUIFunctionHandler@@@Z@Z 33026f02 f i UIStatic.obj
 0001:00025f02       ??0?$_STLP_alloc_proxy@PAPAVCScriptObjectFireParam@@PAV1@V?$allocator@PAVCScriptObjectFireParam@@@_STL@@@_STL@@QAE@ABV?$allocator@PAVCScriptObjectFireParam@@@1@PAPAVCScriptObjectFireParam@@@Z 33026f02 f i ScriptObjectWeaponClass.obj
 0001:00025f02       ??0?$_STLP_alloc_proxy@PAU?$_Rb_tree_node@U?$pair@$$CBGUEntityClass@@@_STL@@@_STL@@U12@V?$allocator@U?$_Rb_tree_node@U?$pair@$$CBGUEntityClass@@@_STL@@@_STL@@@2@@_STL@@QAE@ABV?$allocator@U?$_Rb_tree_node@U?$pair@$$CBGUEntityClass@@@_STL@@@_STL@@@1@PAU?$_Rb_tree_node@U?$pair@$$CBGUEntityClass@@@_STL@@@1@@Z 33026f02 f i EntityClassRegistry.obj
 0001:00025f02       ??0?$_STLP_alloc_proxy@PAUSFoundSaveGame@@U1@V?$allocator@USFoundSaveGame@@@_STL@@@_STL@@QAE@ABV?$allocator@USFoundSaveGame@@@1@PAUSFoundSaveGame@@@Z 33026f02 f i ScriptObjectGame.obj
 0001:00025f0d       ??0?$Vec3_tpl@M@@QAE@XZ    33026f0d f i UIStatic.obj
 0001:00025f0d       ??0Plane@@QAE@XZ           33026f0d f i UIStatic.obj
 0001:00025f10       ??0CCamera@@QAE@XZ         33026f10 f i UIStatic.obj
 0001:0002612c       ?ConvertToRad@@YA?AU?$Ang3_tpl@M@@ABU1@@Z 3302712c f i UIStatic.obj
 0001:00026171       ??0COrthoNormalBasis@@QAE@XZ 33027171 f i UIStatic.obj
 0001:000261c6       ??0CDLight@@QAE@XZ         330271c6 f i UIStatic.obj
 0001:0002626b       ??0SRendParams@@QAE@XZ     3302726b f i UIStatic.obj
 0001:000262a5       ?FuncThunk@?$_ScriptableEx@VCUIStatic@@@@KAHPAX@Z 330272a5 f i UIStatic.obj
 0001:0002630e       ?deallocate@?$allocator@USFoundSaveGame@@@_STL@@QAEXPAUSFoundSaveGame@@I@Z 3302730e f i ScriptObjectGame.obj
 0001:0002630e       ?deallocate@?$allocator@UUIStaticLine@@@_STL@@QAEXPAUUIStaticLine@@I@Z 3302730e f i UIStatic.obj
 0001:0002632b       ?CryViewMatrix@@YA?AU?$Matrix33_tpl@M$02$00@@ABU?$Ang3_tpl@M@@@Z 3302732b f i UIStatic.obj
 0001:000265c7       ??1?$_Vector_base@USFoundSaveGame@@V?$allocator@USFoundSaveGame@@@_STL@@@_STL@@QAE@XZ 330275c7 f i ScriptObjectGame.obj
 0001:000265c7       ??1?$_Vector_base@UUIStaticLine@@V?$allocator@UUIStaticLine@@@_STL@@@_STL@@QAE@XZ 330275c7 f i UIStatic.obj
 0001:000265e6       ?Update@CCamera@@QAEXHH@Z  330275e6 f i UIStatic.obj
 0001:00027923       ?_M_insert_overflow@?$vector@P8CUIStatic@@AEHPAUIFunctionHandler@@@ZV?$allocator@P8CUIStatic@@AEHPAUIFunctionHandler@@@Z@_STL@@@_STL@@IAEXPAP8CUIStatic@@AEHPAUIFunctionHandler@@@ZABQ83@AEH0@ZABU__false_type@2@I_N@Z 33028923 f i UIStatic.obj
 0001:00027a10       ??1UIStaticLine@@QAE@XZ    33028a10 f i UIStatic.obj
 0001:00027a18       ?push_back@?$vector@P8CUIStatic@@AEHPAUIFunctionHandler@@@ZV?$allocator@P8CUIStatic@@AEHPAUIFunctionHandler@@@Z@_STL@@@_STL@@QAEXABQ8CUIStatic@@AEHPAUIFunctionHandler@@@Z@Z 33028a18 f i UIStatic.obj
 0001:00027a4f       ?RegisterFunction@?$_ScriptableEx@VCUIStatic@@@@SAXPAUIScriptSystem@@PBDP8CUIStatic@@AEHPAUIFunctionHandler@@@Z@Z 33028a4f f i UIStatic.obj
 0001:00027a9f       ??$_Destroy@PAUUIStaticLine@@@_STL@@YAXPAUUIStaticLine@@0@Z 33028a9f f i UIStatic.obj
 0001:00027ab8       ??1?$vector@UUIStaticLine@@V?$allocator@UUIStaticLine@@@_STL@@@_STL@@QAE@XZ 33028ab8 f i UIStatic.obj
 0001:00027acf       ?_M_clear@?$vector@UUIStaticLine@@V?$allocator@UUIStaticLine@@@_STL@@@_STL@@IAEXXZ 33028acf f i UIStatic.obj
 0001:00027af8       ??_ECUIStatic@@WNE@AEPAXI@Z 33028af8 f i UIStatic.obj
 0001:00027b03       ??0UIStaticLine@@QAE@ABU0@@Z 33028b03 f i UIStatic.obj
 0001:00027b41       ??_ECUIStatic@@UAEPAXI@Z   33028b41 f i UIStatic.obj
 0001:00027b41       ??_GCUIStatic@@UAEPAXI@Z   33028b41 f i UIStatic.obj
 0001:00027b5d       ??$_Construct@UUIStaticLine@@U1@@_STL@@YAXPAUUIStaticLine@@ABU1@@Z 33028b5d f i UIStatic.obj
 0001:00027b8a       ??$__uninitialized_copy@PAUUIStaticLine@@PAU1@@_STL@@YAPAUUIStaticLine@@PAU1@00ABU__false_type@0@@Z 33028b8a f i UIStatic.obj
 0001:00027bea       ??$__uninitialized_fill_n@PAUUIStaticLine@@IU1@@_STL@@YAPAUUIStaticLine@@PAU1@IABU1@ABU__false_type@0@@Z 33028bea f i UIStatic.obj
 0001:00027c4a       ??4UIStaticLine@@QAEAAU0@ABU0@@Z 33028c4a f i UIStatic.obj
 0001:00027c91       ?_M_insert_overflow@?$vector@UUIStaticLine@@V?$allocator@UUIStaticLine@@@_STL@@@_STL@@IAEXPAUUIStaticLine@@ABU3@ABU__false_type@2@I_N@Z 33028c91 f i UIStatic.obj
 0001:00027d9a       ??$__copy@PAUUIStaticLine@@PAU1@H@_STL@@YAPAUUIStaticLine@@PAU1@00ABUrandom_access_iterator_tag@0@PAH@Z 33028d9a f i UIStatic.obj
 0001:00027dcc       ?push_back@?$vector@UUIStaticLine@@V?$allocator@UUIStaticLine@@@_STL@@@_STL@@QAEXABUUIStaticLine@@@Z 33028dcc f i UIStatic.obj
 0001:00027e03       ??$__copy_ptrs@PAUUIStaticLine@@PAU1@@_STL@@YAPAUUIStaticLine@@PAU1@00ABU__false_type@0@@Z 33028e03 f i UIStatic.obj
 0001:00027e20       ?erase@?$vector@UUIStaticLine@@V?$allocator@UUIStaticLine@@@_STL@@@_STL@@QAEPAUUIStaticLine@@PAU3@@Z 33028e20 f i UIStatic.obj
 0001:00027e57       ?erase@?$vector@UUIStaticLine@@V?$allocator@UUIStaticLine@@@_STL@@@_STL@@QAEPAUUIStaticLine@@PAU3@0@Z 33028e57 f i UIStatic.obj
 0001:00027e8a       ??0UISkinTexture@@QAE@H@Z  33028e8a f i UISystem.obj
 0001:00027eaf       ?UIM_DWORD_TO_FLOAT@@YAMI@Z 33028eaf f i UISystem.obj
 0001:00027ecf       ?SortZCallback@CUISystem@@CA_NPAVCUIWidget@@0@Z 33028ecf f i UISystem.obj
 0001:00027fb3       ?InitializeTemplates@CUISystem@@AAEHXZ 33028fb3 f   UISystem.obj
 0001:00028006       ?ResetKeyRepeat@CUISystem@@QAEHXZ 33029006 f   UISystem.obj
 0001:00028023       ?Enable@CUISystem@@QAEHXZ  33029023 f   UISystem.obj
 0001:00028044       ?Disable@CUISystem@@QAEHXZ 33029044 f   UISystem.obj
 0001:0002804c       ?IsEnabled@CUISystem@@QAEHXZ 3302904c f   UISystem.obj
 0001:00028056       ?GetWidgetScriptObject@CUISystem@@QAEPAUIScriptObject@@PAVCUIWidget@@@Z 33029056 f   UISystem.obj
 0001:00028065       ?GetWidgetList@CUISystem@@QAEPAV?$vector@PAVCUIWidget@@V?$allocator@PAVCUIWidget@@@_STL@@@_STL@@XZ 33029065 f   UISystem.obj
 0001:0002806c       ?GetScreenList@CUISystem@@QAEPAV?$vector@PAVCUIScreen@@V?$allocator@PAVCUIScreen@@@_STL@@@_STL@@XZ 3302906c f   UISystem.obj
 0001:00028073       ?IsScreenActive@CUISystem@@QAEHPAVCUIScreen@@@Z 33029073 f   UISystem.obj
 0001:0002807e       ?GetChildList@CUISystem@@QAEPAV?$vector@PAVCUIWidget@@V?$allocator@PAVCUIWidget@@@_STL@@@_STL@@XZ 3302907e f   UISystem.obj
 0001:00028085       ?SetBackground@CUISystem@@QAEHH@Z 33029085 f   UISystem.obj
 0001:00028092       ?GetBackground@CUISystem@@QAEHXZ 33029092 f   UISystem.obj
 0001:00028096       ?SetBackgroundColor@CUISystem@@QAEHABU?$color4@M@@@Z 33029096 f   UISystem.obj
 0001:000280ab       ?GetBackgroundColor@CUISystem@@QAEHPAU?$color4@M@@@Z 330290ab f   UISystem.obj
 0001:000280c0       ?ShowBackground@CUISystem@@QAEHXZ 330290c0 f   UISystem.obj
 0001:000280c8       ?HideBackground@CUISystem@@QAEHXZ 330290c8 f   UISystem.obj
 0001:000280d0       ?IsBackgroundVisible@CUISystem@@QAE_NXZ 330290d0 f   UISystem.obj
 0001:000280d9       ?SetGreyedColor@CUISystem@@QAEHABU?$color4@M@@@Z 330290d9 f   UISystem.obj
 0001:000280ee       ?GetGreyedColor@CUISystem@@QAEHPAU?$color4@M@@@Z 330290ee f   UISystem.obj
 0001:00028103       ?SetMouseCursor@CUISystem@@QAEHH@Z 33029103 f   UISystem.obj
 0001:00028166       ?GetMouseCursor@CUISystem@@QAEHXZ 33029166 f   UISystem.obj
 0001:0002816a       ?SetMouseCursorColor@CUISystem@@QAEHABU?$color4@M@@@Z 3302916a f   UISystem.obj
 0001:0002817f       ?GetMouseCursorColor@CUISystem@@QAEHPAU?$color4@M@@@Z 3302917f f   UISystem.obj
 0001:00028194       ?SetMouseCursorSize@CUISystem@@QAEHMM@Z 33029194 f   UISystem.obj
 0001:000281a8       ?GetMouseCursorSize@CUISystem@@QAEHPAM0@Z 330291a8 f   UISystem.obj
 0001:000281c0       ?ShowMouseCursor@CUISystem@@QAEHXZ 330291c0 f   UISystem.obj
 0001:000281c7       ?HideMouseCursor@CUISystem@@QAEHXZ 330291c7 f   UISystem.obj
 0001:000281cf       ?IsMouseCursorVisible@CUISystem@@QAE_NXZ 330291cf f   UISystem.obj
 0001:000281d6       ?SetMouseXY@CUISystem@@QAEHMM@Z 330291d6 f   UISystem.obj
 0001:00028214       ?CaptureMouse@CUISystem@@QAEHPAVCUIWidget@@@Z 33029214 f   UISystem.obj
 0001:00028234       ?ReleaseMouse@CUISystem@@QAEHXZ 33029234 f   UISystem.obj
 0001:0002823f       ?GetIdleTime@CUISystem@@QAEMXZ 3302923f f   UISystem.obj
 0001:0002828b       ?GetWidgetParent@CUISystem@@QAEPAVCUIWidget@@PAV2@@Z 3302928b f   UISystem.obj
 0001:00028298       ?GetWidgetRect@CUISystem@@QAEAAUUIRect@@PAVCUIWidget@@@Z 33029298 f   UISystem.obj
 0001:000282a2       ?GetFocus@CUISystem@@QAEPAVCUIWidget@@XZ 330292a2 f   UISystem.obj
 0001:000282a9       ?SetFocusScreen@CUISystem@@QAEHPAVCUIScreen@@@Z 330292a9 f   UISystem.obj
 0001:000282b9       ?GetFocusScreen@CUISystem@@QAEPAVCUIScreen@@XZ 330292b9 f   UISystem.obj
 0001:000282c0       ?GetAlignedTextXY@CUISystem@@QAEHPAM0PAUIFFont@@ABUUIRect@@PBGHH@Z 330292c0 f   UISystem.obj
 0001:0002836a       ?GetAbsoluteXY@CUISystem@@QAEHPAM0MMPAVCUIWidget@@@Z 3302936a f   UISystem.obj
 0001:0002839f       ?GetRelativeXY@CUISystem@@QAEHPAM0MMPAVCUIWidget@@@Z 3302939f f   UISystem.obj
 0001:000283d8       ?IntersectRect@CUISystem@@QAEHPAUUIRect@@U2@1@Z 330293d8 f   UISystem.obj
 0001:000284bf       ?PointInRect@CUISystem@@QAE_NABUUIRect@@MM@Z 330294bf f   UISystem.obj
 0001:00028508       ?EndDraw@CUISystem@@QAEHXZ 33029508 f   UISystem.obj
 0001:00028570       ?AdjustWidth@CUISystem@@QAEMM@Z 33029570 f   UISystem.obj
 0001:000285cb       ?AdjustHeight@CUISystem@@QAEMM@Z 330295cb f   UISystem.obj
 0001:00028626       ?GetWidgetCanvas@CUISystem@@QAEHPAUUIRect@@PAVCUIWidget@@@Z 33029626 f   UISystem.obj
 0001:0002871f       ?ShowWidget@CUISystem@@QAEHPAVCUIWidget@@@Z 3302971f f   UISystem.obj
 0001:0002872d       ?HideWidget@CUISystem@@QAEHPAVCUIWidget@@@Z 3302972d f   UISystem.obj
 0001:0002873b       ?IsWidgetVisible@CUISystem@@QAEHPAVCUIWidget@@@Z 3302973b f   UISystem.obj
 0001:00028748       ?EnableWidget@CUISystem@@QAEHPAVCUIWidget@@@Z 33029748 f   UISystem.obj
 0001:00028756       ?DisableWidget@CUISystem@@QAEHPAVCUIWidget@@@Z 33029756 f   UISystem.obj
 0001:00028764       ?IsWidgetEnabled@CUISystem@@QAEHPAVCUIWidget@@@Z 33029764 f   UISystem.obj
 0001:00028771       ?SetScissor@CUISystem@@QAEHPBUUIRect@@@Z 33029771 f   UISystem.obj
 0001:0002891a       ?DrawTextA@CUISystem@@QAEHABUUIRect@@HHPAUIFFont@@PBG_N@Z 3302991a f   UISystem.obj
 0001:00028973       ?DrawImage@CUISystem@@QAEHABUUIRect@@HPBMABU?$color4@M@@@Z 33029973 f   UISystem.obj
 0001:00028bca       ?DrawSkin@CUISystem@@QAEHABUUIRect@@ABUUISkinTexture@@ABU?$color4@M@@H@Z 33029bca f   UISystem.obj
 0001:00028c54       ?ResetInput@CUISystem@@QAEHXZ 33029c54 f   UISystem.obj
 0001:00028c69       ?OnZChanged@CUISystem@@QAEHPAVCUIWidget@@@Z 33029c69 f   UISystem.obj
 0001:00028c75       ?OnTabStopChanged@CUISystem@@QAEHPAVCUIWidget@@@Z 33029c75 f   UISystem.obj
 0001:00028c81       ?RetrieveColor@CUISystem@@QAEHPAU?$color4@M@@PAD@Z 33029c81 f   UISystem.obj
 0001:00028d83       ?RetrieveRect@CUISystem@@QAEHPAUUIRect@@PAD@Z 33029d83 f   UISystem.obj
 0001:00028e71       ?RetrieveTexRect@CUISystem@@QAEHPAMHPAD@Z 33029e71 f   UISystem.obj
 0001:00029030       ?ConvertToString@CUISystem@@QAEHPADABU?$color4@M@@@Z 3302a030 f   UISystem.obj
 0001:00029081       ?ConvertToString@CUISystem@@QAEHPADABUUIRect@@@Z 3302a081 f   UISystem.obj
 0001:000290ba       ?DeleteWidget@CUISystem@@AAEXPAVCUIWidget@@@Z 3302a0ba f   UISystem.obj
 0001:000290cb       ?IsReserved@CUISystem@@AAE_NPBD@Z 3302a0cb f   UISystem.obj
 0001:000290fc       ?IsOnFocusScreen@CUISystem@@AAE_NPAVCUIWidget@@@Z 3302a0fc f   UISystem.obj
 0001:0002913a       ?GetWidget@CUISystem@@QAEPAVCUIWidget@@H@Z 3302a13a f   UISystem.obj
 0001:0002914a       ?GetWidgetCount@CUISystem@@QAEHXZ 3302a14a f   UISystem.obj
 0001:0002915c       ?GetScreen@CUISystem@@QAEPAVCUIScreen@@H@Z 3302a15c f   UISystem.obj
 0001:0002916c       ?GetScreenCount@CUISystem@@QAEHXZ 3302a16c f   UISystem.obj
 0001:0002917e       ?GetActiveScreenCount@CUISystem@@QAEHXZ 3302a17e f   UISystem.obj
 0001:00029182       ?DeactivateAllScreens@CUISystem@@QAEHXZ 3302a182 f   UISystem.obj
 0001:000291b2       ?GetChild@CUISystem@@QAEPAVCUIWidget@@H@Z 3302a1b2 f   UISystem.obj
 0001:000291c2       ?GetChildCount@CUISystem@@QAEHXZ 3302a1c2 f   UISystem.obj
 0001:000291d4       ?GetMouseXY@CUISystem@@QAE?AU?$Vec2_tpl@M@@XZ 3302a1d4 f   UISystem.obj
 0001:000291fe       ?GetTabStop@CUISystem@@QAEPAVCUIWidget@@H@Z 3302a1fe f   UISystem.obj
 0001:0002920e       ?SetTopMostWidget@CUISystem@@QAEHPAVCUIWidget@@@Z 3302a20e f   UISystem.obj
 0001:0002923b       ?GetTopMostWidget@CUISystem@@QAEPAVCUIWidget@@XZ 3302a23b f   UISystem.obj
 0001:00029245       ?GetSelectionColor@CUISystem@@QAE?AU?$color4@M@@ABU2@0@Z 3302a245 f   UISystem.obj
 0001:000292c9       ?GetIFont@CUISystem@@QAEPAUIFFont@@ABUUIFont@@@Z 3302a2c9 f   UISystem.obj
 0001:00029351       ?AdjustRect@CUISystem@@QAEHPAUUIRect@@U2@M_N@Z 3302a351 f   UISystem.obj
 0001:000293d0       ?FindWidgetAt@CUISystem@@QAEPAVCUIWidget@@MM@Z 3302a3d0 f   UISystem.obj
 0001:000294d6       ?ResetDraw@CUISystem@@QAEHXZ 3302a4d6 f   UISystem.obj
 0001:00029513       ?DrawMouseCursor@CUISystem@@QAEHMM@Z 3302a513 f   UISystem.obj
 0001:000295b5       ?DrawQuad@CUISystem@@QAEHABUUIRect@@ABU?$color4@M@@@Z 3302a5b5 f   UISystem.obj
 0001:000296c8       ?DrawGreyedQuad@CUISystem@@QAEHABUUIRect@@ABU?$color4@M@@H@Z 3302a6c8 f   UISystem.obj
 0001:00029712       ?DrawImage@CUISystem@@QAEHABUUIRect@@ABUUISkinTexture@@ABU?$color4@M@@@Z 3302a712 f   UISystem.obj
 0001:0002972f       ?DrawEmboss@CUISystem@@QAEHABUUIRect@@ABU?$color4@M@@1_NM@Z 3302a72f f   UISystem.obj
 0001:00029864       ?DrawShadow@CUISystem@@QAEHABUUIRect@@ABU?$color4@M@@MPAVCUIWidget@@@Z 3302a864 f   UISystem.obj
 0001:00029934       ?DrawButton@CUISystem@@QAEHABUUIRect@@ABU?$color4@M@@M_N@Z 3302a934 f   UISystem.obj
 0001:000299e2       ?RetrieveTextureAttribute@CUISystem@@QAEHPAUUISkinTexture@@PAUIScriptObject@@PBD2@Z 3302a9e2 f   UISystem.obj
 0001:00029c19       ?ConvertToString@CUISystem@@QAEHPADABV?$basic_string@GU?$char_traits@G@std@@V?$allocator@G@_STL@@@_STL@@H@Z 3302ac19 f   UISystem.obj
 0001:00029c72       ?GetWidget@CUISystem@@QAEPAVCUIWidget@@ABV?$basic_string@DU?$char_traits@D@std@@V?$allocator@D@_STL@@@_STL@@@Z 3302ac72 f   UISystem.obj
 0001:00029cb4       ?WidgetExist@CUISystem@@QAEHPAVCUIWidget@@@Z 3302acb4 f   UISystem.obj
 0001:00029cdc       ?GetScreen@CUISystem@@QAEPAVCUIScreen@@ABV?$basic_string@DU?$char_traits@D@std@@V?$allocator@D@_STL@@@_STL@@@Z 3302acdc f   UISystem.obj
 0001:00029d13       ?GetChild@CUISystem@@QAEPAVCUIWidget@@ABV?$basic_string@DU?$char_traits@D@std@@V?$allocator@D@_STL@@@_STL@@@Z 3302ad13 f   UISystem.obj
 0001:00029d4a       ?DelChild@CUISystem@@QAEHPAVCUIWidget@@@Z 3302ad4a f   UISystem.obj
 0001:00029d7d       ?DelChild@CUISystem@@QAEHH@Z 3302ad7d f   UISystem.obj
 0001:00029d92       ?DelChild@CUISystem@@QAEHABV?$basic_string@DU?$char_traits@D@std@@V?$allocator@D@_STL@@@_STL@@@Z 3302ad92 f   UISystem.obj
 0001:00029dd6       ?SendMessageA@CUISystem@@QAEJPAVCUIWidget@@HIJ@Z 3302add6 f   UISystem.obj
 0001:0002a0d3       ?BroadcastMessage@CUISystem@@QAEJHIJ@Z 3302b0d3 f   UISystem.obj
 0001:0002a118       ?SetTopMostWidget@CUISystem@@QAEHABV?$basic_string@DU?$char_traits@D@std@@V?$allocator@D@_STL@@@_STL@@@Z 3302b118 f   UISystem.obj
 0001:0002a134       ?SetFocus@CUISystem@@QAEHPAVCUIWidget@@@Z 3302b134 f   UISystem.obj
 0001:0002a1cd       ?SetFocus@CUISystem@@QAEHAAV?$basic_string@DU?$char_traits@D@std@@V?$allocator@D@_STL@@@_STL@@@Z 3302b1cd f   UISystem.obj
 0001:0002a1e8       ?SetFocusScreen@CUISystem@@QAEHAAV?$basic_string@DU?$char_traits@D@std@@V?$allocator@D@_STL@@@_STL@@@Z 3302b1e8 f   UISystem.obj
 0001:0002a201       ?BeginDraw@CUISystem@@QAEHPAVCUIWidget@@@Z 3302b201 f   UISystem.obj
 0001:0002a25d       ?DrawBackground@CUISystem@@QAEHXZ 3302b25d f   UISystem.obj
 0001:0002a2a2       ?DrawBorder@CUISystem@@QAEHABUUIRect@@ABUUIBorder@@@Z 3302b2a2 f   UISystem.obj
 0001:0002a491       ?DrawFocus@CUISystem@@QAEHABUUIRect@@ABU?$color4@M@@M@Z 3302b491 f   UISystem.obj
 0001:0002a4cc       ?DrawToolTip@CUISystem@@QAEHXZ 3302b4cc f   UISystem.obj
 0001:0002a67b       ?DestroyWidget@CUISystem@@QAEHPAVCUIWidget@@@Z 3302b67b f   UISystem.obj
 0001:0002a6d1       ?DestroyScreen@CUISystem@@QAEHPAVCUIScreen@@@Z 3302b6d1 f   UISystem.obj
 0001:0002a719       ?DefaultUpdate@CUISystem@@SAJPAVCUIWidget@@IIJ@Z 3302b719 f   UISystem.obj
 0001:0002a990       ?GetWidget@CUISystem@@QAEPAVCUIWidget@@ABV?$basic_string@DU?$char_traits@D@std@@V?$allocator@D@_STL@@@_STL@@0@Z 3302b990 f   UISystem.obj
 0001:0002a9ce       ?SendMessageA@CUISystem@@QAEJAAV?$basic_string@DU?$char_traits@D@std@@V?$allocator@D@_STL@@@_STL@@ABV23@HIJ@Z 3302b9ce f   UISystem.obj
 0001:0002a9f9       ?NextTabStop@CUISystem@@QAEHXZ 3302b9f9 f   UISystem.obj
 0001:0002aabf       ?PrevTabStop@CUISystem@@QAEHXZ 3302babf f   UISystem.obj
 0001:0002ab82       ?LastTabStop@CUISystem@@QAEHXZ 3302bb82 f   UISystem.obj
 0001:0002ac00       ?SetFocus@CUISystem@@QAEHAAV?$basic_string@DU?$char_traits@D@std@@V?$allocator@D@_STL@@@_STL@@0@Z 3302bc00 f   UISystem.obj
 0001:0002ac1f       ?OnInputEvent@CUISystem@@EAE_NABUSInputEvent@@@Z 3302bc1f f   UISystem.obj
 0001:0002ae16       ?FirstTabStop@CUISystem@@QAEHXZ 3302be16 f   UISystem.obj
 0001:0002ae80       ?ActivateScreen@CUISystem@@QAEHPAVCUIScreen@@@Z 3302be80 f   UISystem.obj
 0001:0002aefc       ?DeactivateScreen@CUISystem@@QAEHPAVCUIScreen@@@Z 3302befc f   UISystem.obj
 0001:0002af6e       ?ActivateAllScreens@CUISystem@@QAEHXZ 3302bf6e f   UISystem.obj
 0001:0002af98       ??1CUISystem@@QAE@XZ       3302bf98 f   UISystem.obj
 0001:0002b009       ?AddChild@CUISystem@@QAEHPAVCUIWidget@@@Z 3302c009 f   UISystem.obj
 0001:0002b040       ?UnloadAllModels@CUISystem@@QAEHXZ 3302c040 f   UISystem.obj
 0001:0002b0e4       ?ReloadAllModels@CUISystem@@QAEHXZ 3302c0e4 f   UISystem.obj
 0001:0002b177       ?StopAllVideo@CUISystem@@QAEHXZ 3302c177 f   UISystem.obj
 0001:0002b1f2       ?ReleaseTemplates@CUISystem@@AAEHXZ 3302c1f2 f   UISystem.obj
 0001:0002b223       ?Release@CUISystem@@QAEHXZ 3302c223 f   UISystem.obj
 0001:0002b2cd       ?ShutDown@CUISystem@@UAEX_N@Z 3302c2cd f   UISystem.obj
 0001:0002b2d5       ?SortChildrenByZ@CUISystem@@AAEHXZ 3302c2d5 f   UISystem.obj
 0001:0002b337       ?SortTabStop@CUISystem@@AAEHXZ 3302c337 f   UISystem.obj
 0001:0002b354       ?ConvertToWString@CUISystem@@QAEHAAV?$basic_string@GU?$char_traits@G@std@@V?$allocator@G@_STL@@@_STL@@PBD@Z 3302c354 f   UISystem.obj
 0001:0002b3c1       ?ConvertToWString@CUISystem@@QAEHAAV?$basic_string@GU?$char_traits@G@std@@V?$allocator@G@_STL@@@_STL@@PAUIFunctionHandler@@H@Z 3302c3c1 f   UISystem.obj
 0001:0002b41c       ?ConvertToString@CUISystem@@QAEHAAV?$basic_string@DU?$char_traits@D@std@@V?$allocator@D@_STL@@@_STL@@ABV?$basic_string@GU?$char_traits@G@std@@V?$allocator@G@_STL@@@3@@Z 3302c41c f   UISystem.obj
 0001:0002b448       ?StripControlCodes@CUISystem@@QAEHAAV?$basic_string@GU?$char_traits@G@std@@V?$allocator@G@_STL@@@_STL@@ABV23@@Z 3302c448 f   UISystem.obj
 0001:0002b490       ?StripControlCodes@CUISystem@@QAEHAAV?$basic_string@DU?$char_traits@D@std@@V?$allocator@D@_STL@@@_STL@@ABV?$basic_string@GU?$char_traits@G@std@@V?$allocator@G@_STL@@@3@@Z 3302c490 f   UISystem.obj
 0001:0002b4d8       ?StripControlCodes@CUISystem@@QAEHAAV?$basic_string@DU?$char_traits@D@std@@V?$allocator@D@_STL@@@_STL@@ABV23@@Z 3302c4d8 f   UISystem.obj
 0001:0002b519       ?Draw@CUISystem@@UAEXXZ    3302c519 f   UISystem.obj
 0001:0002b725       ?GetWidgetText@CUISystem@@QAE?AV?$basic_string@GU?$char_traits@G@std@@V?$allocator@G@_STL@@@_STL@@PAVCUIWidget@@@Z 3302c725 f   UISystem.obj
 0001:0002b838       ?RetrieveCommonAttribute@CUISystem@@QAEHPAUIScriptObject@@PAVCUIWidget@@@Z 3302c838 f   UISystem.obj
 0001:0002be09       ?RetrieveTextAttribute@CUISystem@@QAEHPAVCUIWidget@@PAUIScriptObject@@ABV?$basic_string@DU?$char_traits@D@std@@V?$allocator@D@_STL@@@_STL@@@Z 3302ce09 f   UISystem.obj
 0001:0002c007       ?SetupStaticFromTable@CUISystem@@QAEHPAVCUIStatic@@PAUIScriptObject@@@Z 3302d007 f   UISystem.obj
 0001:0002c457       ?SetupButtonFromTable@CUISystem@@QAEHPAVCUIButton@@PAUIScriptObject@@@Z 3302d457 f   UISystem.obj
 0001:0002c642       ?SetupEditBoxFromTable@CUISystem@@QAEHPAVCUIEditBox@@PAUIScriptObject@@@Z 3302d642 f   UISystem.obj
 0001:0002caa0       ?SetupScrollBarFromTable@CUISystem@@QAEHPAVCUIScrollBar@@PAUIScriptObject@@@Z 3302daa0 f   UISystem.obj
 0001:0002ccc2       ?SetupListViewFromTable@CUISystem@@QAEHPAVCUIListView@@PAUIScriptObject@@@Z 3302dcc2 f   UISystem.obj
 0001:0002cf98       ?SetupCheckBoxFromTable@CUISystem@@QAEHPAVCUICheckBox@@PAUIScriptObject@@@Z 3302df98 f   UISystem.obj
 0001:0002d1f6       ?SetupComboBoxFromTable@CUISystem@@QAEHPAVCUIComboBox@@PAUIScriptObject@@@Z 3302e1f6 f   UISystem.obj
 0001:0002d4ef       ?SetupVideoPanelFromTable@CUISystem@@QAEHPAVCUIVideoPanel@@PAUIScriptObject@@@Z 3302e4ef f   UISystem.obj
 0001:0002d7e7       ?Create@CUISystem@@QAEHPAUIGame@@PAUISystem@@PAUIScriptSystem@@ABV?$basic_string@DU?$char_traits@D@std@@V?$allocator@D@_STL@@@_STL@@_N@Z 3302e7e7 f   UISystem.obj
 0001:0002d974       ?Reset@CUISystem@@QAEHXZ   3302e974 f   UISystem.obj
 0001:0002db75       ?Reload@CUISystem@@QAEHH@Z 3302eb75 f   UISystem.obj
 0001:0002dd82       ?CreateScreen@CUISystem@@QAEHPAPAVCUIScreen@@ABV?$basic_string@DU?$char_traits@D@std@@V?$allocator@D@_STL@@@_STL@@@Z 3302ed82 f   UISystem.obj
 0001:0002ddf6       ?InitializeWidget@CUISystem@@AAEHPAVCUIWidget@@0ABV?$basic_string@DU?$char_traits@D@std@@V?$allocator@D@_STL@@@_STL@@ABUUIRect@@HH@Z 3302edf6 f   UISystem.obj
 0001:0002deaf       ??0CUISystem@@QAE@XZ       3302eeaf f   UISystem.obj
 0001:0002dfa8       ?Update@CUISystem@@UAEXXZ  3302efa8 f   UISystem.obj
 0001:0002e9ca       ?CreateStatic@CUISystem@@QAEHPAPAVCUIStatic@@PAVCUIWidget@@ABV?$basic_string@DU?$char_traits@D@std@@V?$allocator@D@_STL@@@_STL@@ABUUIRect@@HHABV?$basic_string@GU?$char_traits@G@std@@V?$allocator@G@_STL@@@5@@Z 3302f9ca f   UISystem.obj
 0001:0002ea5a       ?CreateButton@CUISystem@@QAEHPAPAVCUIButton@@PAVCUIWidget@@ABV?$basic_string@DU?$char_traits@D@std@@V?$allocator@D@_STL@@@_STL@@ABUUIRect@@HHABV?$basic_string@GU?$char_traits@G@std@@V?$allocator@G@_STL@@@5@@Z 3302fa5a f   UISystem.obj
 0001:0002eae2       ?CreateEditBox@CUISystem@@QAEHPAPAVCUIEditBox@@PAVCUIWidget@@ABV?$basic_string@DU?$char_traits@D@std@@V?$allocator@D@_STL@@@_STL@@ABUUIRect@@HHABV?$basic_string@GU?$char_traits@G@std@@V?$allocator@G@_STL@@@5@@Z 3302fae2 f   UISystem.obj
 0001:0002eb76       ?CreateScrollBar@CUISystem@@QAEHPAPAVCUIScrollBar@@PAVCUIWidget@@ABV?$basic_string@DU?$char_traits@D@std@@V?$allocator@D@_STL@@@_STL@@ABUUIRect@@HHH@Z 3302fb76 f   UISystem.obj
 0001:0002ec2d       ?CreateListView@CUISystem@@QAEHPAPAVCUIListView@@PAVCUIWidget@@ABV?$basic_string@DU?$char_traits@D@std@@V?$allocator@D@_STL@@@_STL@@ABUUIRect@@HH@Z 3302fc2d f   UISystem.obj
 0001:0002eca5       ?CreateCheckBox@CUISystem@@QAEHPAPAVCUICheckBox@@PAVCUIWidget@@ABV?$basic_string@DU?$char_traits@D@std@@V?$allocator@D@_STL@@@_STL@@ABUUIRect@@HH@Z 3302fca5 f   UISystem.obj
 0001:0002ed1d       ?CreateComboBox@CUISystem@@QAEHPAPAVCUIComboBox@@PAVCUIWidget@@ABV?$basic_string@DU?$char_traits@D@std@@V?$allocator@D@_STL@@@_STL@@ABUUIRect@@HH@Z 3302fd1d f   UISystem.obj
 0001:0002edc0       ?CreateVideoPanel@CUISystem@@QAEHPAPAVCUIVideoPanel@@PAVCUIWidget@@ABV?$basic_string@DU?$char_traits@D@std@@V?$allocator@D@_STL@@@_STL@@ABUUIRect@@HH@Z 3302fdc0 f   UISystem.obj
 0001:0002ee38       ?InheritParentAttributes@CUISystem@@QAEHPAVCUIWidget@@0@Z 3302fe38 f   UISystem.obj
 0001:0002ee8e       ?CreateStaticFromTable@CUISystem@@QAEHPAPAVCUIStatic@@PAVCUIWidget@@ABUUIRect@@PAUIScriptObject@@ABV?$basic_string@DU?$char_traits@D@std@@V?$allocator@D@_STL@@@_STL@@@Z 3302fe8e f   UISystem.obj
 0001:0002ef55       ?CreateButtonFromTable@CUISystem@@QAEHPAPAVCUIButton@@PAVCUIWidget@@ABUUIRect@@PAUIScriptObject@@ABV?$basic_string@DU?$char_traits@D@std@@V?$allocator@D@_STL@@@_STL@@@Z 3302ff55 f   UISystem.obj
 0001:0002f01c       ?CreateEditBoxFromTable@CUISystem@@QAEHPAPAVCUIEditBox@@PAVCUIWidget@@ABUUIRect@@PAUIScriptObject@@ABV?$basic_string@DU?$char_traits@D@std@@V?$allocator@D@_STL@@@_STL@@@Z 3303001c f   UISystem.obj
 0001:0002f0e3       ?CreateScrollBarFromTable@CUISystem@@QAEHPAPAVCUIScrollBar@@PAVCUIWidget@@ABUUIRect@@PAUIScriptObject@@ABV?$basic_string@DU?$char_traits@D@std@@V?$allocator@D@_STL@@@_STL@@@Z 330300e3 f   UISystem.obj
 0001:0002f159       ?CreateListViewFromTable@CUISystem@@QAEHPAPAVCUIListView@@PAVCUIWidget@@ABUUIRect@@PAUIScriptObject@@ABV?$basic_string@DU?$char_traits@D@std@@V?$allocator@D@_STL@@@_STL@@@Z 33030159 f   UISystem.obj
 0001:0002f1cd       ?CreateCheckBoxFromTable@CUISystem@@QAEHPAPAVCUICheckBox@@PAVCUIWidget@@ABUUIRect@@PAUIScriptObject@@ABV?$basic_string@DU?$char_traits@D@std@@V?$allocator@D@_STL@@@_STL@@@Z 330301cd f   UISystem.obj
 0001:0002f241       ?CreateComboBoxFromTable@CUISystem@@QAEHPAPAVCUIComboBox@@PAVCUIWidget@@ABUUIRect@@PAUIScriptObject@@ABV?$basic_string@DU?$char_traits@D@std@@V?$allocator@D@_STL@@@_STL@@@Z 33030241 f   UISystem.obj
 0001:0002f2b5       ?CreateVideoPanelFromTable@CUISystem@@QAEHPAPAVCUIVideoPanel@@PAVCUIWidget@@ABUUIRect@@PAUIScriptObject@@ABV?$basic_string@DU?$char_traits@D@std@@V?$allocator@D@_STL@@@_STL@@@Z 330302b5 f   UISystem.obj
 0001:0002f329       ?ConvertToWString@CUISystem@@QAEHAAV?$basic_string@GU?$char_traits@G@std@@V?$allocator@G@_STL@@@_STL@@H@Z 33030329 f   UISystem.obj
 0001:0002f352       ?CreateObjectFromTable@CUISystem@@QAEHPAPAVCUIWidget@@PAV2@PAVCUIScreen@@PAUIScriptObject@@ABV?$basic_string@DU?$char_traits@D@std@@V?$allocator@D@_STL@@@_STL@@@Z 33030352 f   UISystem.obj
 0001:0002f9b9       ?CreateScreenFromTable@CUISystem@@QAEHPAPAVCUIScreen@@ABV?$basic_string@DU?$char_traits@D@std@@V?$allocator@D@_STL@@@_STL@@PAUIScriptObject@@@Z 330309b9 f   UISystem.obj
 0001:0002fba0       ?__CRYTEKDLL_TRACE@@YAXPBDZZ 33030ba0 f i UISystem.obj
 0001:0002fbd8       ??1?$_ScriptableEx@VCScriptObjectUI@@@@UAE@XZ 33030bd8 f i UISystem.obj
 0001:0002fc0f       ??_G?$_ScriptableEx@VCScriptObjectUI@@@@UAEPAXI@Z 33030c0f f i UISystem.obj
 0001:0002fc0f       ??_E?$_ScriptableEx@VCScriptObjectUI@@@@UAEPAXI@Z 33030c0f f i UISystem.obj
 0001:0002fc2b       ??H?$color4@M@@QBE?AU0@ABU0@@Z 33030c2b f i UISystem.obj
 0001:0002fc57       ??G?$color4@M@@QBE?AU0@ABU0@@Z 33030c57 f i UISystem.obj
 0001:0002fc83       ??$?DM@@YA?AU?$color4@M@@MABU0@@Z 33030c83 f i UISystem.obj
 0001:0002fcb0       ??$__find@PAHH@_STL@@YAPAHPAH0ABHABUrandom_access_iterator_tag@0@@Z 33030cb0 f i UIListView.obj
 0001:0002fcb0       ??$__find@PAPAVCUIWidget@@PAV1@@_STL@@YAPAPAVCUIWidget@@PAPAV1@0ABQAV1@ABUrandom_access_iterator_tag@0@@Z 33030cb0 f i UIScreen.obj
 0001:0002fcb0       ??$__find@PAPAVCUIScreen@@PAV1@@_STL@@YAPAPAVCUIScreen@@PAPAV1@0ABQAV1@ABUrandom_access_iterator_tag@0@@Z 33030cb0 f i UISystem.obj
 0001:0002fd17       ??$__median@PAVCUIWidget@@P6A_NPAV1@0@Z@_STL@@YAABQAVCUIWidget@@ABQAV1@00P6A_NPAV1@1@Z@Z 33030d17 f i UISystem.obj
 0001:0002fd17       ??$__median@PAUUIListItem@@P6A_NPBU1@0@Z@_STL@@YAABQAUUIListItem@@ABQAU1@00P6A_NPBU1@1@Z@Z 33030d17 f i UIListView.obj
 0001:0002fd76       ??$__unguarded_linear_insert@PAPAVCUIWidget@@PAV1@P6A_NPAV1@0@Z@_STL@@YAXPAPAVCUIWidget@@PAV1@P6A_N11@Z@Z 33030d76 f i UISystem.obj
 0001:0002fd76       ??$__unguarded_linear_insert@PAPAUUIListItem@@PAU1@P6A_NPBU1@0@Z@_STL@@YAXPAPAUUIListItem@@PAU1@P6A_NPBU1@2@Z@Z 33030d76 f i UIListView.obj
 0001:0002fd76       ??$__unguarded_linear_insert@PAPAUUIComboItem@@PAU1@P6A_NPAU1@0@Z@_STL@@YAXPAPAUUIComboItem@@PAU1@P6A_N11@Z@Z 33030d76 f i UIComboBox.obj
 0001:0002fda2       ??$__push_heap@PAPAVCUIWidget@@HPAV1@P6A_NPAV1@0@Z@_STL@@YAXPAPAVCUIWidget@@HHPAV1@P6A_N11@Z@Z 33030da2 f i UISystem.obj
 0001:0002fda2       ??$__push_heap@PAPAUUIListItem@@HPAU1@P6A_NPBU1@0@Z@_STL@@YAXPAPAUUIListItem@@HHPAU1@P6A_NPBU1@2@Z@Z 33030da2 f i UIListView.obj
 0001:0002fdeb       ??1CFrameProfilerSection@@QAE@XZ 33030deb f i UISystem.obj
 0001:0002fe02       ??0UIBorder@@QAE@ABU0@@Z   33030e02 f i UISystem.obj
 0001:0002fe29       ?SortTabStopCallback@CUISystem@@CA_NPAVCUIWidget@@0@Z 33030e29 f i UISystem.obj
 0001:0002febd       ??0CScriptObjectUI@@QAE@XZ 33030ebd f i UISystem.obj
 0001:0002fef2       ??_ECScriptObjectUI@@UAEPAXI@Z 33030ef2 f i UISystem.obj
 0001:0002fef2       ??_GCScriptObjectUI@@UAEPAXI@Z 33030ef2 f i UISystem.obj
 0001:0002ff0e       ??1CScriptObjectUI@@UAE@XZ 33030f0e f i UISystem.obj
 0001:0002ff19       ?Init@?$_ScriptableEx@VCUIStatic@@@@QAEXPAUIScriptSystem@@PAVCUIStatic@@@Z 33030f19 f i UISystem.obj
 0001:0002ff85       ?Init@?$_ScriptableEx@VCUIButton@@@@QAEXPAUIScriptSystem@@PAVCUIButton@@@Z 33030f85 f i UISystem.obj
 0001:0002fff1       ?Init@?$_ScriptableEx@VCUIEditBox@@@@QAEXPAUIScriptSystem@@PAVCUIEditBox@@@Z 33030ff1 f i UISystem.obj
 0001:0003005d       ?Init@?$_ScriptableEx@VCUIScrollBar@@@@QAEXPAUIScriptSystem@@PAVCUIScrollBar@@@Z 3303105d f i UISystem.obj
 0001:000300c9       ?Init@?$_ScriptableEx@VCUIListView@@@@QAEXPAUIScriptSystem@@PAVCUIListView@@@Z 330310c9 f i UISystem.obj
 0001:00030135       ?Init@?$_ScriptableEx@VCUICheckBox@@@@QAEXPAUIScriptSystem@@PAVCUICheckBox@@@Z 33031135 f i UISystem.obj
 0001:000301a1       ?Init@?$_ScriptableEx@VCUIComboBox@@@@QAEXPAUIScriptSystem@@PAVCUIComboBox@@@Z 330311a1 f i UISystem.obj
 0001:0003020d       ?Init@?$_ScriptableEx@VCUIVideoPanel@@@@QAEXPAUIScriptSystem@@PAVCUIVideoPanel@@@Z 3303120d f i UISystem.obj
 0001:00030279       ?Init@?$_ScriptableEx@VCUIScreen@@@@QAEXPAUIScriptSystem@@PAVCUIScreen@@@Z 33031279 f i UISystem.obj
 0001:000302e5       ??$?8DU?$char_traits@D@std@@V?$allocator@D@_STL@@@_STL@@YA_NABV?$basic_string@DU?$char_traits@D@std@@V?$allocator@D@_STL@@@0@PBD@Z 330312e5 f i UISystem.obj
 0001:00030317       ??0CFrameProfiler@@QAE@PAUISystem@@PBDW4EProfiledSubsystem@@@Z 33031317 f i UISystem.obj
 0001:0003039a       ??$__unguarded_partition@PAPAUUIListItem@@PAU1@P6A_NPBU1@0@Z@_STL@@YAPAPAUUIListItem@@PAPAU1@0PAU1@P6A_NPBU1@2@Z@Z 3303139a f i UIListView.obj
 0001:0003039a       ??$__unguarded_partition@PAPAVCUIWidget@@PAV1@P6A_NPAV1@0@Z@_STL@@YAPAPAVCUIWidget@@PAPAV1@0PAV1@P6A_N11@Z@Z 3303139a f i UISystem.obj
 0001:000303dd       ??$__make_heap@PAPAUUIListItem@@P6A_NPBU1@0@ZPAU1@H@_STL@@YAXPAPAUUIListItem@@0P6A_NPBU1@1@Z0PAH@Z 330313dd f i UIListView.obj
 0001:000303dd       ??$__make_heap@PAPAVCUIWidget@@P6A_NPAV1@0@ZPAV1@H@_STL@@YAXPAPAVCUIWidget@@0P6A_NPAV1@1@Z0PAH@Z 330313dd f i UISystem.obj
 0001:00030419       ??$__insertion_sort@PAPAUUIComboItem@@P6A_NPAU1@0@Z@_STL@@YAXPAPAUUIComboItem@@0P6A_NPAU1@1@Z@Z 33031419 f i UIComboBox.obj
 0001:00030419       ??$__insertion_sort@PAPAVCUIWidget@@P6A_NPAV1@0@Z@_STL@@YAXPAPAVCUIWidget@@0P6A_NPAV1@1@Z@Z 33031419 f i UISystem.obj
 0001:00030419       ??$__insertion_sort@PAPAUUIListItem@@P6A_NPBU1@0@Z@_STL@@YAXPAPAUUIListItem@@0P6A_NPBU1@1@Z@Z 33031419 f i UIListView.obj
 0001:00030446       ??$make_heap@PAPAUUIListItem@@P6A_NPBU1@0@Z@_STL@@YAXPAPAUUIListItem@@0P6A_NPBU1@1@Z@Z 33031446 f i UIListView.obj
 0001:00030446       ??$make_heap@PAPAVCUIWidget@@P6A_NPAV1@0@Z@_STL@@YAXPAPAVCUIWidget@@0P6A_NPAV1@1@Z@Z 33031446 f i UISystem.obj
 0001:0003045f       ??$pop_heap@PAPAVCUIWidget@@P6A_NPAV1@0@Z@_STL@@YAXPAPAVCUIWidget@@0P6A_NPAV1@1@Z@Z 3303145f f i UISystem.obj
 0001:0003045f       ??$pop_heap@PAPAUUIListItem@@P6A_NPBU1@0@Z@_STL@@YAXPAPAUUIListItem@@0P6A_NPBU1@1@Z@Z 3303145f f i UIListView.obj
 0001:00030476       ?_M_fill_insert@?$vector@KV?$allocator@K@_STL@@@_STL@@QAEXPAKIABK@Z 33031476 f i XNetworkStats.obj
 0001:00030476       ?_M_fill_insert@?$vector@PAVCUIScreen@@V?$allocator@PAVCUIScreen@@@_STL@@@_STL@@QAEXPAPAVCUIScreen@@IABQAV3@@Z 33031476 f i UISystem.obj
 0001:00030476       ?_M_fill_insert@?$vector@PAVCUIWidget@@V?$allocator@PAVCUIWidget@@@_STL@@@_STL@@QAEXPAPAVCUIWidget@@IABQAV3@@Z 33031476 f i UISystem.obj
 0001:0003054d       ?reserve@?$vector@PAVCUIWidget@@V?$allocator@PAVCUIWidget@@@_STL@@@_STL@@QAEXI@Z 3303154d f i UISystem.obj
 0001:0003054d       ?reserve@?$vector@PAVCUIScreen@@V?$allocator@PAVCUIScreen@@@_STL@@@_STL@@QAEXI@Z 3303154d f i UISystem.obj
 0001:000305b3       ??$__final_insertion_sort@PAPAVCUIWidget@@P6A_NPAV1@0@Z@_STL@@YAXPAPAVCUIWidget@@0P6A_NPAV1@1@Z@Z 330315b3 f i UISystem.obj
 0001:000305b3       ??$__final_insertion_sort@PAPAUUIListItem@@P6A_NPBU1@0@Z@_STL@@YAXPAPAUUIListItem@@0P6A_NPBU1@1@Z@Z 330315b3 f i UIListView.obj
 0001:000305f7       ??$sort_heap@PAPAVCUIWidget@@P6A_NPAV1@0@Z@_STL@@YAXPAPAVCUIWidget@@0P6A_NPAV1@1@Z@Z 330315f7 f i UISystem.obj
 0001:00030632       ??$__partial_sort@PAPAVCUIWidget@@PAV1@P6A_NPAV1@0@Z@_STL@@YAXPAPAVCUIWidget@@000P6A_NPAV1@1@Z@Z 33031632 f i UISystem.obj
 0001:0003068b       ?Init@CUISystem@@UAE_NXZ   3303168b f i UISystem.obj
 0001:0003068b       ?IsSaveable@CGameObject@@UAE_NXZ 3303168b f i Flock.obj
 0001:0003068b       ?Init@CFlock@@UAE_NXZ      3303168b f i BugsFlock.obj
 0001:0003068e       ?SetFlags@CUISystem@@UAEXH@Z 3303168e f i UISystem.obj
 0001:00030698       ?GetFlags@CUISystem@@UAEHXZ 33031698 f i UISystem.obj
 0001:00030698       ?GetType@EventPlayerCmd@@UAE?AW4EventType@@XZ 33031698 f i GameEvents.obj
 0001:00030698       ?GetPhysics@CXObjectProxy@@EAEPAVIPhysicalEntity@@XZ 33031698 f i XObjectProxy.obj
 0001:00030698       ?GetScriptObject@CFlock@@UAEPAUIScriptObject@@XZ 33031698 f i BugsFlock.obj
 0001:0003069b       ?ReleaseTemplate@?$_ScriptableEx@VCUIStatic@@@@SAXXZ 3303169b f i UISystem.obj
 0001:00030709       ?ReleaseTemplate@?$_ScriptableEx@VCUIButton@@@@SAXXZ 33031709 f i UISystem.obj
 0001:00030777       ?ReleaseTemplate@?$_ScriptableEx@VCUIEditBox@@@@SAXXZ 33031777 f i UISystem.obj
 0001:000307e5       ?ReleaseTemplate@?$_ScriptableEx@VCUIScrollBar@@@@SAXXZ 330317e5 f i UISystem.obj
 0001:00030853       ?ReleaseTemplate@?$_ScriptableEx@VCUIListView@@@@SAXXZ 33031853 f i UISystem.obj
 0001:000308c1       ?ReleaseTemplate@?$_ScriptableEx@VCUICheckBox@@@@SAXXZ 330318c1 f i UISystem.obj
 0001:0003092f       ?ReleaseTemplate@?$_ScriptableEx@VCUIComboBox@@@@SAXXZ 3303192f f i UISystem.obj
 0001:0003099d       ?ReleaseTemplate@?$_ScriptableEx@VCUIVideoPanel@@@@SAXXZ 3303199d f i UISystem.obj
 0001:00030a0b       ?ReleaseTemplate@?$_ScriptableEx@VCUIScreen@@@@SAXXZ 33031a0b f i UISystem.obj
 0001:00030a79       ?resize@?$vector@KV?$allocator@K@_STL@@@_STL@@QAEXIK@Z 33031a79 f i XNetworkStats.obj
 0001:00030a79       ?resize@?$vector@PAVCUIWidget@@V?$allocator@PAVCUIWidget@@@_STL@@@_STL@@QAEXIPAVCUIWidget@@@Z 33031a79 f i UISystem.obj
 0001:00030a79       ?resize@?$vector@PAVCUIScreen@@V?$allocator@PAVCUIScreen@@@_STL@@@_STL@@QAEXIPAVCUIScreen@@@Z 33031a79 f i UISystem.obj
 0001:00030ab8       ??$partial_sort@PAPAVCUIWidget@@P6A_NPAV1@0@Z@_STL@@YAXPAPAVCUIWidget@@00P6A_NPAV1@1@Z@Z 33031ab8 f i UISystem.obj
 0001:00030ad3       ??$append@PAG@?$basic_string@GU?$char_traits@G@std@@V?$allocator@G@_STL@@@_STL@@AAEAAV01@PAG0ABUforward_iterator_tag@1@@Z 33031ad3 f i IngameDialog.obj
 0001:00030ad3       ??$append@PBG@?$basic_string@GU?$char_traits@G@std@@V?$allocator@G@_STL@@@_STL@@AAEAAV01@PBG0ABUforward_iterator_tag@1@@Z 33031ad3 f i UISystem.obj
 0001:00030bc6       ?reserve@?$basic_string@DU?$char_traits@D@std@@V?$allocator@D@_STL@@@_STL@@QAEXI@Z 33031bc6 f i UISystem.obj
 0001:00030c2a       ??$__introsort_loop@PAPAVCUIWidget@@PAV1@HP6A_NPAV1@0@Z@_STL@@YAXPAPAVCUIWidget@@00HP6A_NPAV1@1@Z@Z 33031c2a f i UISystem.obj
 0001:00030ca6       ?push_back@?$basic_string@DU?$char_traits@D@std@@V?$allocator@D@_STL@@@_STL@@QAEXD@Z 33031ca6 f i UISystem.obj
 0001:00030cf8       ??$sort@PAPAVCUIWidget@@P6A_NPAV1@0@Z@_STL@@YAXPAPAVCUIWidget@@0P6A_NPAV1@1@Z@Z 33031cf8 f i UISystem.obj
 0001:00030d3b       ??0UIFont@@QAE@XZ          33031d3b f i UISystem.obj
 0001:00030d99       ?assign@?$basic_string@GU?$char_traits@G@std@@V?$allocator@G@_STL@@@_STL@@QAEAAV12@PBG0@Z 33031d99 f i UISystem.obj
 0001:00030e04       ??4?$basic_string@GU?$char_traits@G@std@@V?$allocator@G@_STL@@@_STL@@QAEAAV01@PBG@Z 33031e04 f i UISystem.obj
 0001:00030e25       ??4UIFont@@QAEAAU0@ABU0@@Z 33031e25 f i UISystem.obj
 0001:00030e58       ?InitBink@CUIVideoPanel@@QAEHXZ 33031e58 f   UIVideoPanel.obj
 0001:00030f35       ?Stop@CUIVideoPanel@@QAEHXZ 33031f35 f   UIVideoPanel.obj
 0001:00030f8a       ?Pause@CUIVideoPanel@@QAEH_N@Z 33031f8a f   UIVideoPanel.obj
 0001:00030fcf       ?IsPlaying@CUIVideoPanel@@QAEHXZ 33031fcf f   UIVideoPanel.obj
 0001:00030ff0       ?IsPaused@CUIVideoPanel@@QAEHXZ 33031ff0 f   UIVideoPanel.obj
 0001:00031011       ?SetVolume@CUIVideoPanel@@QAEHHM@Z 33032011 f   UIVideoPanel.obj
 0001:00031067       ?SetPan@CUIVideoPanel@@QAEHHM@Z 33032067 f   UIVideoPanel.obj
 0001:000310d3       ?SetFrameRate@CUIVideoPanel@@QAEHH@Z 330320d3 f   UIVideoPanel.obj
 0001:000310fb       ?EnableVideo@CUIVideoPanel@@QAEH_N@Z 330320fb f   UIVideoPanel.obj
 0001:00031119       ?EnableAudio@CUIVideoPanel@@QAEH_N@Z 33032119 f   UIVideoPanel.obj
 0001:00031137       ?Draw@CUIVideoPanel@@UAEHH@Z 33032137 f   UIVideoPanel.obj
 0001:00031406       ?OnError@CUIVideoPanel@@QAEHPBD@Z 33032406 f   UIVideoPanel.obj
 0001:0003149a       ?OnFinished@CUIVideoPanel@@QAEHXZ 3303249a f   UIVideoPanel.obj
 0001:00031522       ?Stop@CUIVideoPanel@@QAEHPAUIFunctionHandler@@@Z 33032522 f   UIVideoPanel.obj
 0001:0003158a       ?Pause@CUIVideoPanel@@QAEHPAUIFunctionHandler@@@Z 3303258a f   UIVideoPanel.obj
 0001:000316da       ?IsPlaying@CUIVideoPanel@@QAEHPAUIFunctionHandler@@@Z 330326da f   UIVideoPanel.obj
 0001:0003174b       ?IsPaused@CUIVideoPanel@@QAEHPAUIFunctionHandler@@@Z 3303274b f   UIVideoPanel.obj
 0001:000317bc       ?SetVolume@CUIVideoPanel@@QAEHPAUIFunctionHandler@@@Z 330327bc f   UIVideoPanel.obj
 0001:0003191b       ?SetPan@CUIVideoPanel@@QAEHPAUIFunctionHandler@@@Z 3303291b f   UIVideoPanel.obj
 0001:00031a7a       ?SetFrameRate@CUIVideoPanel@@QAEHPAUIFunctionHandler@@@Z 33032a7a f   UIVideoPanel.obj
 0001:00031bc5       ?EnableVideo@CUIVideoPanel@@QAEHPAUIFunctionHandler@@@Z 33032bc5 f   UIVideoPanel.obj
 0001:00031d15       ?EnableAudio@CUIVideoPanel@@QAEHPAUIFunctionHandler@@@Z 33032d15 f   UIVideoPanel.obj
 0001:00031e65       ?LoadVideo@CUIVideoPanel@@QAEHABV?$basic_string@DU?$char_traits@D@std@@V?$allocator@D@_STL@@@_STL@@_N@Z 33032e65 f   UIVideoPanel.obj
 0001:000320ab       ?Update@CUIVideoPanel@@UAEJIIJ@Z 330330ab f   UIVideoPanel.obj
 0001:00032425       ?Play@CUIVideoPanel@@QAEHXZ 33033425 f   UIVideoPanel.obj
 0001:0003247a       ?Play@CUIVideoPanel@@QAEHPAUIFunctionHandler@@@Z 3303347a f   UIVideoPanel.obj
 0001:000324e2       ??0CUIVideoPanel@@QAE@XZ   330334e2 f   UIVideoPanel.obj
 0001:00032586       ?GetClassName@CUIVideoPanel@@UAE?AV?$basic_string@DU?$char_traits@D@std@@V?$allocator@D@_STL@@@_STL@@XZ 33033586 f   UIVideoPanel.obj
 0001:000325a6       ?LoadVideo@CUIVideoPanel@@QAEHPAUIFunctionHandler@@@Z 330335a6 f   UIVideoPanel.obj
 0001:00032820       ?ReleaseVideo@CUIVideoPanel@@QAEHXZ 33033820 f   UIVideoPanel.obj
 0001:00032893       ?ReleaseVideo@CUIVideoPanel@@QAEHPAUIFunctionHandler@@@Z 33033893 f   UIVideoPanel.obj
 0001:000328fb       ??1CUIVideoPanel@@UAE@XZ   330338fb f   UIVideoPanel.obj
 0001:00032956       ?InitializeTemplate@CUIVideoPanel@@SAXPAUIScriptSystem@@@Z 33033956 f   UIVideoPanel.obj
 0001:00032ccc       ??1?$_ScriptableEx@VCUIVideoPanel@@@@UAE@XZ 33033ccc f i UIVideoPanel.obj
 0001:00032d03       ??_G?$_ScriptableEx@VCUIVideoPanel@@@@UAEPAXI@Z 33033d03 f i UIVideoPanel.obj
 0001:00032d03       ??_E?$_ScriptableEx@VCUIVideoPanel@@@@UAEPAXI@Z 33033d03 f i UIVideoPanel.obj
 0001:00032d1f       ?FuncThunk@?$_ScriptableEx@VCUIVideoPanel@@@@KAHPAX@Z 33033d1f f i UIVideoPanel.obj
 0001:00032d88       ?_M_insert_overflow@?$vector@P8CUIVideoPanel@@AEHPAUIFunctionHandler@@@ZV?$allocator@P8CUIVideoPanel@@AEHPAUIFunctionHandler@@@Z@_STL@@@_STL@@IAEXPAP8CUIVideoPanel@@AEHPAUIFunctionHandler@@@ZABQ83@AEH0@ZABU__false_type@2@I_N@Z 33033d88 f i UIVideoPanel.obj
 0001:00032e75       ?push_back@?$vector@P8CUIVideoPanel@@AEHPAUIFunctionHandler@@@ZV?$allocator@P8CUIVideoPanel@@AEHPAUIFunctionHandler@@@Z@_STL@@@_STL@@QAEXABQ8CUIVideoPanel@@AEHPAUIFunctionHandler@@@Z@Z 33033e75 f i UIVideoPanel.obj
 0001:00032eac       ?RegisterFunction@?$_ScriptableEx@VCUIVideoPanel@@@@SAXPAUIScriptSystem@@PBDP8CUIVideoPanel@@AEHPAUIFunctionHandler@@@Z@Z 33033eac f i UIVideoPanel.obj
 0001:00032efc       ??_ECUIVideoPanel@@WNE@AEPAXI@Z 33033efc f i UIVideoPanel.obj
 0001:00032f07       ?GetScriptObject@CUIEditBox@@UAEPAUIScriptObject@@XZ 33033f07 f i UIEditBox.obj
 0001:00032f07       ?GetScriptObject@CUIComboBox@@UAEPAUIScriptObject@@XZ 33033f07 f i UIComboBox.obj
 0001:00032f07       ?GetScriptObject@CUIButton@@UAEPAUIScriptObject@@XZ 33033f07 f i UIButton.obj
 0001:00032f07       ?GetScriptObject@CUIListView@@UAEPAUIScriptObject@@XZ 33033f07 f i UIListView.obj
 0001:00032f07       ?GetScriptObject@CUIVideoPanel@@UAEPAUIScriptObject@@XZ 33033f07 f i UIVideoPanel.obj
 0001:00032f07       ?GetScriptObject@CUIScrollBar@@UAEPAUIScriptObject@@XZ 33033f07 f i UIScrollBar.obj
 0001:00032f07       ?GetScriptObject@CUIStatic@@UAEPAUIScriptObject@@XZ 33033f07 f i UIStatic.obj
 0001:00032f07       ?GetScriptObject@CUICheckBox@@UAEPAUIScriptObject@@XZ 33033f07 f i UICheckBox.obj
 0001:00032f0e       ??_GCUIVideoPanel@@UAEPAXI@Z 33033f0e f i UIVideoPanel.obj
 0001:00032f0e       ??_ECUIVideoPanel@@UAEPAXI@Z 33033f0e f i UIVideoPanel.obj
 0001:00032f2a       ?SortCallback@CUIWidget@@KA_NPAV1@0@Z 33033f2a f i UIWidget.obj
 0001:00032f4a       ?GetName@CUIWidget@@UAEAAV?$basic_string@DU?$char_traits@D@std@@V?$allocator@D@_STL@@@_STL@@XZ 33033f4a f   UIWidget.obj
 0001:00032f4e       ?GetChildList@CUIWidget@@UAEPAV?$vector@PAVCUIWidget@@V?$allocator@PAVCUIWidget@@@_STL@@@_STL@@XZ 33033f4e f   UIWidget.obj
 0001:00032f52       ?GetFlags@CUIWidget@@UAEHXZ 33033f52 f   UIWidget.obj
 0001:00032f56       ?SetFlags@CUIWidget@@UAEHH@Z 33033f56 f   UIWidget.obj
 0001:00032f63       ?GetStyle@CUIWidget@@UAEHXZ 33033f63 f   UIWidget.obj
 0001:00032f67       ?SetStyle@CUIWidget@@UAEHH@Z 33033f67 f   UIWidget.obj
 0001:00032f74       ?GetRect@CUIWidget@@UAEHPAUUIRect@@@Z 33033f74 f   UIWidget.obj
 0001:00032fc7       ?SetRect@CUIWidget@@UAEHABUUIRect@@_N@Z 33033fc7 f   UIWidget.obj
 0001:00033023       ?GetBorder@CUIWidget@@UAEHPAUUIBorder@@@Z 33034023 f   UIWidget.obj
 0001:00033039       ?SetBorder@CUIWidget@@UAEHABUUIBorder@@@Z 33034039 f   UIWidget.obj
 0001:0003304f       ?GetZ@CUIWidget@@UAEHXZ    3303404f f   UIWidget.obj
 0001:00033053       ?SetZ@CUIWidget@@UAEHH@Z   33034053 f   UIWidget.obj
 0001:00033077       ?GetTabStop@CUIWidget@@UAEHXZ 33034077 f   UIWidget.obj
 0001:0003307b       ?SetTabStop@CUIWidget@@UAEHH@Z 3303407b f   UIWidget.obj
 0001:00033094       ?Release@CUIWidget@@UAEHPAUIFunctionHandler@@@Z 33034094 f   UIWidget.obj
 0001:000330a8       ?GetChild@CUIWidget@@UAEPAV1@H@Z 330340a8 f   UIWidget.obj
 0001:000330b5       ?GetChildCount@CUIWidget@@UAEHXZ 330340b5 f   UIWidget.obj
 0001:000330bf       ?DelChild@CUIWidget@@UAEHH@Z 330340bf f   UIWidget.obj
 0001:000330d3       ?Release@CUIWidget@@UAEHXZ 330340d3 f   UIWidget.obj
 0001:00033128       ?OnInit@CUIWidget@@UAEHXZ  33034128 f   UIWidget.obj
 0001:00033222       ?OnRelease@CUIWidget@@UAEHXZ 33034222 f   UIWidget.obj
 0001:0003331c       ?OnKeyDown@CUIWidget@@UAEHH@Z 3303431c f   UIWidget.obj
 0001:00033422       ?OnKeyUp@CUIWidget@@UAEHH@Z 33034422 f   UIWidget.obj
 0001:00033528       ?OnKeyPressed@CUIWidget@@UAEHH@Z 33034528 f   UIWidget.obj
 0001:0003362e       ?OnMouseEnter@CUIWidget@@UAEHXZ 3303462e f   UIWidget.obj
 0001:00033728       ?OnMouseLeave@CUIWidget@@UAEHXZ 33034728 f   UIWidget.obj
 0001:00033822       ?OnMouseDown@CUIWidget@@UAEHHMM@Z 33034822 f   UIWidget.obj
 0001:00033944       ?OnMouseUp@CUIWidget@@UAEHHMM@Z 33034944 f   UIWidget.obj
 0001:00033a66       ?OnMouseClick@CUIWidget@@UAEHHMM@Z 33034a66 f   UIWidget.obj
 0001:00033b88       ?OnMouseDblClick@CUIWidget@@UAEHHMM@Z 33034b88 f   UIWidget.obj
 0001:00033caa       ?OnMouseOver@CUIWidget@@UAEHMMMM@Z 33034caa f   UIWidget.obj
 0001:00033dde       ?OnMouseMove@CUIWidget@@UAEHMMMM@Z 33034dde f   UIWidget.obj
 0001:00033f12       ?OnGotFocus@CUIWidget@@UAEHXZ 33034f12 f   UIWidget.obj
 0001:0003400c       ?OnLostFocus@CUIWidget@@UAEHXZ 3303500c f   UIWidget.obj
 0001:00034106       ?OnSized@CUIWidget@@UAEHXZ 33035106 f   UIWidget.obj
 0001:00034200       ?OnMoved@CUIWidget@@UAEHXZ 33035200 f   UIWidget.obj
 0001:000342fa       ?OnChanged@CUIWidget@@UAEHXZ 330352fa f   UIWidget.obj
 0001:000343f4       ?OnCommand@CUIWidget@@UAEHXZ 330353f4 f   UIWidget.obj
 0001:000344ee       ?GetName@CUIWidget@@UAEHPAUIFunctionHandler@@@Z 330354ee f   UIWidget.obj
 0001:00034555       ?GetScreen@CUIWidget@@UAEHPAUIFunctionHandler@@@Z 33035555 f   UIWidget.obj
 0001:000345c7       ?GetChildCount@CUIWidget@@UAEHPAUIFunctionHandler@@@Z 330355c7 f   UIWidget.obj
 0001:0003462c       ?SetRect@CUIWidget@@UAEHPAUIFunctionHandler@@@Z 3303562c f   UIWidget.obj
 0001:000347f8       ?GetRect@CUIWidget@@UAEHPAUIFunctionHandler@@@Z 330357f8 f   UIWidget.obj
 0001:00034877       ?SetColor@CUIWidget@@UAEHPAUIFunctionHandler@@@Z 33035877 f   UIWidget.obj
 0001:00034a79       ?GetColor@CUIWidget@@UAEHPAUIFunctionHandler@@@Z 33035a79 f   UIWidget.obj
 0001:00034af8       ?SetBorderColor@CUIWidget@@UAEHPAUIFunctionHandler@@@Z 33035af8 f   UIWidget.obj
 0001:00034cfa       ?GetBorderColor@CUIWidget@@UAEHPAUIFunctionHandler@@@Z 33035cfa f   UIWidget.obj
 0001:00034d79       ?SetBorderSize@CUIWidget@@UAEHPAUIFunctionHandler@@@Z 33035d79 f   UIWidget.obj
 0001:00034ea2       ?GetBorderSize@CUIWidget@@UAEHPAUIFunctionHandler@@@Z 33035ea2 f   UIWidget.obj
 0001:00034f08       ?SetBorderStyle@CUIWidget@@UAEHPAUIFunctionHandler@@@Z 33035f08 f   UIWidget.obj
 0001:00035031       ?GetBorderStyle@CUIWidget@@UAEHPAUIFunctionHandler@@@Z 33036031 f   UIWidget.obj
 0001:00035093       ?GetFontName@CUIWidget@@UAEHPAUIFunctionHandler@@@Z 33036093 f   UIWidget.obj
 0001:000350f9       ?GetFontEffect@CUIWidget@@UAEHPAUIFunctionHandler@@@Z 330360f9 f   UIWidget.obj
 0001:0003515f       ?SetFontColor@CUIWidget@@UAEHPAUIFunctionHandler@@@Z 3303615f f   UIWidget.obj
 0001:00035364       ?GetFontColor@CUIWidget@@UAEHPAUIFunctionHandler@@@Z 33036364 f   UIWidget.obj
 0001:000353e6       ?SetFontSize@CUIWidget@@UAEHPAUIFunctionHandler@@@Z 330363e6 f   UIWidget.obj
 0001:00035512       ?GetFontSize@CUIWidget@@UAEHPAUIFunctionHandler@@@Z 33036512 f   UIWidget.obj
 0001:0003557b       ?SetMouseCursor@CUIWidget@@UAEHPAUIFunctionHandler@@@Z 3303657b f   UIWidget.obj
 0001:000356f0       ?GetMouseCursor@CUIWidget@@UAEHPAUIFunctionHandler@@@Z 330366f0 f   UIWidget.obj
 0001:00035763       ?SetToolTip@CUIWidget@@UAEHPAUIFunctionHandler@@@Z 33036763 f   UIWidget.obj
 0001:000357d7       ?SetGreyedColor@CUIWidget@@UAEHPAUIFunctionHandler@@@Z 330367d7 f   UIWidget.obj
 0001:000359d9       ?GetGreyedColor@CUIWidget@@UAEHPAUIFunctionHandler@@@Z 330369d9 f   UIWidget.obj
 0001:00035a58       ?SetGreyedBlend@CUIWidget@@UAEHPAUIFunctionHandler@@@Z 33036a58 f   UIWidget.obj
 0001:00035b81       ?GetGreyedBlend@CUIWidget@@UAEHPAUIFunctionHandler@@@Z 33036b81 f   UIWidget.obj
 0001:00035be3       ?GetChild@CUIWidget@@UAEPAV1@ABV?$basic_string@DU?$char_traits@D@std@@V?$allocator@D@_STL@@@_STL@@@Z 33036be3 f   UIWidget.obj
 0001:00035c14       ?DelChild@CUIWidget@@UAEHPAV1@@Z 33036c14 f   UIWidget.obj
 0001:00035c41       ?DelChild@CUIWidget@@UAEHABV?$basic_string@DU?$char_traits@D@std@@V?$allocator@D@_STL@@@_STL@@@Z 33036c41 f   UIWidget.obj
 0001:00035c7f       ?AddChild@CUIWidget@@UAEHPAV1@@Z 33036c7f f   UIWidget.obj
 0001:00035cb0       ?DrawChildren@CUIWidget@@MAEHXZ 33036cb0 f   UIWidget.obj
 0001:00035d34       ?SortChildrenByZ@CUIWidget@@MAEHXZ 33036d34 f   UIWidget.obj
 0001:00035d4b       ??0CUIWidget@@QAE@XZ       33036d4b f   UIWidget.obj
 0001:00035e35       ?GetChild@CUIWidget@@UAEHPAUIFunctionHandler@@@Z 33036e35 f   UIWidget.obj
 0001:00036030       ?SetName@CUIWidget@@UAEHABV?$basic_string@DU?$char_traits@D@std@@V?$allocator@D@_STL@@@_STL@@@Z 33037030 f   UIWidget.obj
 0001:00036042       ?SetFontName@CUIWidget@@UAEHPAUIFunctionHandler@@@Z 33037042 f   UIWidget.obj
 0001:0003618a       ?SetFontEffect@CUIWidget@@UAEHPAUIFunctionHandler@@@Z 3303718a f   UIWidget.obj
 0001:000362d2       ?GetToolTip@CUIWidget@@UAEHMMAAV?$basic_string@GU?$char_traits@G@std@@V?$allocator@G@_STL@@@_STL@@@Z 330372d2 f   UIWidget.obj
 0001:000362e8       ?SetPlayerA@CScriptObjectAdvCamSystem@@QAEHPAUIFunctionHandler@@@Z 330372e8 f   ScriptObjectAdvCamSystem.obj
 0001:00036359       ?GetPlayerA@CScriptObjectAdvCamSystem@@QAEHPAUIFunctionHandler@@@Z 33037359 f   ScriptObjectAdvCamSystem.obj
 0001:000363ae       ?SetPlayerB@CScriptObjectAdvCamSystem@@QAEHPAUIFunctionHandler@@@Z 330373ae f   ScriptObjectAdvCamSystem.obj
 0001:0003641f       ?GetPlayerB@CScriptObjectAdvCamSystem@@QAEHPAUIFunctionHandler@@@Z 3303741f f   ScriptObjectAdvCamSystem.obj
 0001:00036474       ?SetMaxRadius@CScriptObjectAdvCamSystem@@QAEHPAUIFunctionHandler@@@Z 33037474 f   ScriptObjectAdvCamSystem.obj
 0001:000364ea       ?SetMinRadius@CScriptObjectAdvCamSystem@@QAEHPAUIFunctionHandler@@@Z 330374ea f   ScriptObjectAdvCamSystem.obj
 0001:00036560       ?Create@CScriptObjectAdvCamSystem@@QAE_NPAUIScriptSystem@@PAVCAdvCamSystem@@@Z 33037560 f   ScriptObjectAdvCamSystem.obj
 0001:00036589       ?InitializeTemplate@CScriptObjectAdvCamSystem@@SAXPAUIScriptSystem@@@Z 33037589 f   ScriptObjectAdvCamSystem.obj
 0001:00036614       ?Init@?$_ScriptableEx@VCScriptObjectAdvCamSystem@@@@QAEXPAUIScriptSystem@@PAVCScriptObjectAdvCamSystem@@@Z 33037614 f i ScriptObjectAdvCamSystem.obj
 0001:00036680       ?FuncThunk@?$_ScriptableEx@VCScriptObjectAdvCamSystem@@@@KAHPAX@Z 33037680 f i ScriptObjectAdvCamSystem.obj
 0001:000366e9       ?_M_insert_overflow@?$vector@P8CScriptObjectAdvCamSystem@@AEHPAUIFunctionHandler@@@ZV?$allocator@P8CScriptObjectAdvCamSystem@@AEHPAUIFunctionHandler@@@Z@_STL@@@_STL@@IAEXPAP8CScriptObjectAdvCamSystem@@AEHPAUIFunctionHandler@@@ZABQ83@AEH0@ZABU__false_type@2@I_N@Z 330376e9 f i ScriptObjectAdvCamSystem.obj
 0001:000367d6       ?push_back@?$vector@P8CScriptObjectAdvCamSystem@@AEHPAUIFunctionHandler@@@ZV?$allocator@P8CScriptObjectAdvCamSystem@@AEHPAUIFunctionHandler@@@Z@_STL@@@_STL@@QAEXABQ8CScriptObjectAdvCamSystem@@AEHPAUIFunctionHandler@@@Z@Z 330377d6 f i ScriptObjectAdvCamSystem.obj
 0001:0003680d       ?RegisterFunction@?$_ScriptableEx@VCScriptObjectAdvCamSystem@@@@SAXPAUIScriptSystem@@PBDP8CScriptObjectAdvCamSystem@@AEHPAUIFunctionHandler@@@Z@Z 3303780d f i ScriptObjectAdvCamSystem.obj
 0001:0003685d       ??0AIBalanceStats@@QAE@XZ  3303785d f i ScriptObjectAI.obj
 0001:0003688e       ??0AgentParameters@@QAE@XZ 3303788e f i ScriptObjectAI.obj
 0001:000368f6       ?CreateGoalPipe@CScriptObjectAI@@QAEHPAUIFunctionHandler@@@Z 330378f6 f   ScriptObjectAI.obj
 0001:0003695f       ?Log@CScriptObjectAI@@QAEHPAUIFunctionHandler@@@Z 3303795f f   ScriptObjectAI.obj
 0001:000369bd       ?Signal@CScriptObjectAI@@QAEHPAUIFunctionHandler@@@Z 330379bd f   ScriptObjectAI.obj
 0001:00036a89       ?GetGroupCount@CScriptObjectAI@@QAEHPAUIFunctionHandler@@@Z 33037a89 f   ScriptObjectAI.obj
 0001:00036b3e       ?GetAttentionTargetOf@CScriptObjectAI@@QAEHPAUIFunctionHandler@@@Z 33037b3e f   ScriptObjectAI.obj
 0001:00036c4b       ?ReloadAll@CScriptObjectAI@@QAEHPAUIFunctionHandler@@@Z 33037c4b f   ScriptObjectAI.obj
 0001:00036c57       ?MakePuppetIgnorant@CScriptObjectAI@@QAEHPAUIFunctionHandler@@@Z 33037c57 f   ScriptObjectAI.obj
 0001:00036d20       ?SetAssesmentMultiplier@CScriptObjectAI@@QAEHPAUIFunctionHandler@@@Z 33037d20 f   ScriptObjectAI.obj
 0001:00036db6       ?SetSpeciesThreatMultiplier@CScriptObjectAI@@QAEHPAUIFunctionHandler@@@Z 33037db6 f   ScriptObjectAI.obj
 0001:00036e34       ?GetGroupOf@CScriptObjectAI@@QAEHPAUIFunctionHandler@@@Z 33037e34 f   ScriptObjectAI.obj
 0001:00036ee0       ?GetAnchor@CScriptObjectAI@@QAEHPAUIFunctionHandler@@@Z 33037ee0 f   ScriptObjectAI.obj
 0001:00036f9f       ?GetPerception@CScriptObjectAI@@QAEHPAUIFunctionHandler@@@Z 33037f9f f   ScriptObjectAI.obj
 0001:00037013       ?Cloak@CScriptObjectAI@@QAEHPAUIFunctionHandler@@@Z 33038013 f   ScriptObjectAI.obj
 0001:0003701f       ?DeCloak@CScriptObjectAI@@QAEHPAUIFunctionHandler@@@Z 3303801f f   ScriptObjectAI.obj
 0001:0003702b       ?SetTheSkip@CScriptObjectAI@@QAEHPAUIFunctionHandler@@@Z 3303802b f   ScriptObjectAI.obj
 0001:000370be       ?SetAllowedDeathCount@CScriptObjectAI@@QAEHPAUIFunctionHandler@@@Z 330380be f   ScriptObjectAI.obj
 0001:0003713a       ?Checkpoint@CScriptObjectAI@@QAEHPAUIFunctionHandler@@@Z 3303813a f   ScriptObjectAI.obj
 0001:00037165       ?RegisterPlayerHit@CScriptObjectAI@@QAEHPAUIFunctionHandler@@@Z 33038165 f   ScriptObjectAI.obj
 0001:00037190       ?FireOverride@CScriptObjectAI@@QAEHPAUIFunctionHandler@@@Z 33038190 f   ScriptObjectAI.obj
 0001:00037235       ?EnablePuppetMovement@CScriptObjectAI@@QAEHPAUIFunctionHandler@@@Z 33038235 f   ScriptObjectAI.obj
 0001:000372dc       ?IsMoving@CScriptObjectAI@@QAEHPAUIFunctionHandler@@@Z 330382dc f   ScriptObjectAI.obj
 0001:00037368       ??0CScriptObjectAI@@QAE@XZ 33038368 f   ScriptObjectAI.obj
 0001:0003737c       ??1CScriptObjectAI@@UAE@XZ 3303837c f   ScriptObjectAI.obj
 0001:00037387       ?AIBind@CScriptObjectAI@@QAEHPAUIFunctionHandler@@@Z 33038387 f   ScriptObjectAI.obj
 0001:0003744e       ?GetStats@CScriptObjectAI@@QAEHPAUIFunctionHandler@@@Z 3303844e f   ScriptObjectAI.obj
 0001:00037630       ?Init@CScriptObjectAI@@QAEXPAUIScriptSystem@@PAUISystem@@PAVCXGame@@@Z 33038630 f   ScriptObjectAI.obj
 0001:00037b59       ?SoundEvent@CScriptObjectAI@@QAEHPAUIFunctionHandler@@@Z 33038b59 f   ScriptObjectAI.obj
 0001:00037c9b       ?FreeSignal@CScriptObjectAI@@QAEHPAUIFunctionHandler@@@Z 33038c9b f   ScriptObjectAI.obj
 0001:00037d81       ?FindObjectOfType@CScriptObjectAI@@QAEHPAUIFunctionHandler@@@Z 33038d81 f   ScriptObjectAI.obj
 0001:00037fcd       ?RegisterWithAI@CScriptObjectAI@@QAEHPAUIFunctionHandler@@@Z 33038fcd f   ScriptObjectAI.obj
 0001:00038a52       ?CreateBoundObject@CScriptObjectAI@@QAEHPAUIFunctionHandler@@@Z 33039a52 f   ScriptObjectAI.obj
 0001:00038b6a       ?EnableNodesInSphere@CScriptObjectAI@@QAEHPAUIFunctionHandler@@@Z 33039b6a f   ScriptObjectAI.obj
 0001:00038c71       ?ProjectileShoot@CScriptObjectAI@@QAEHPAUIFunctionHandler@@@Z 33039c71 f   ScriptObjectAI.obj
 0001:000390fc       ?PushGoal@CScriptObjectAI@@QAEHPAUIFunctionHandler@@@Z 3303a0fc f   ScriptObjectAI.obj
 0001:000396af       ?InitializeTemplate@CScriptObjectAI@@SAXPAUIScriptSystem@@@Z 3303a6af f   ScriptObjectAI.obj
 0001:000398ab       ??1?$_ScriptableEx@VCScriptObjectAI@@@@UAE@XZ 3303a8ab f i ScriptObjectAI.obj
 0001:000398e2       ??_E?$_ScriptableEx@VCScriptObjectAI@@@@UAEPAXI@Z 3303a8e2 f i ScriptObjectAI.obj
 0001:000398e2       ??_G?$_ScriptableEx@VCScriptObjectAI@@@@UAEPAXI@Z 3303a8e2 f i ScriptObjectAI.obj
 0001:000398fe       ?Set@CScriptObjectVector@@QAEXABU?$Vec3_tpl@M@@@Z 3303a8fe f i ScriptObjectAI.obj
 0001:00039961       ??1_SmartScriptObject@@QAE@XZ 3303a961 f i UIListView.obj
 0001:00039961       ??1CScriptObjectVector@@QAE@XZ 3303a961 f i ScriptObjectAI.obj
 0001:00039961       ??1CScriptObjectColor@@QAE@XZ 3303a961 f i ScriptObjectServer.obj
 0001:00039970       ?InitGlobal@?$_ScriptableEx@VCScriptObjectAI@@@@QAEXPAUIScriptSystem@@PBDPAVCScriptObjectAI@@@Z 3303a970 f i ScriptObjectAI.obj
 0001:000399e7       ??0pe_player_dimensions@@QAE@XZ 3303a9e7 f i ScriptObjectAI.obj
 0001:00039a07       ??0pe_status_dynamics@@QAE@XZ 3303aa07 f i ScriptObjectAI.obj
 0001:00039a75       ?Get@CScriptObjectVector@@QAE?AU?$Vec3_tpl@M@@XZ 3303aa75 f i ScriptObjectAI.obj
 0001:00039ae4       ??_ECScriptObjectAI@@UAEPAXI@Z 3303aae4 f i ScriptObjectAI.obj
 0001:00039ae4       ??_GCScriptObjectAI@@UAEPAXI@Z 3303aae4 f i ScriptObjectAI.obj
 0001:00039b00       ?FuncThunk@?$_ScriptableEx@VCScriptObjectAI@@@@KAHPAX@Z 3303ab00 f i ScriptObjectAI.obj
 0001:00039b62       ?_M_insert_overflow@?$vector@P8CScriptObjectAI@@AEHPAUIFunctionHandler@@@ZV?$allocator@P8CScriptObjectAI@@AEHPAUIFunctionHandler@@@Z@_STL@@@_STL@@IAEXPAP8CScriptObjectAI@@AEHPAUIFunctionHandler@@@ZABQ83@AEH0@ZABU__false_type@2@I_N@Z 3303ab62 f i ScriptObjectAI.obj
 0001:00039c4f       ??0GoalParameters@@QAE@XZ  3303ac4f f i ScriptObjectAI.obj
 0001:00039c70       ??1GoalParameters@@QAE@XZ  3303ac70 f i ScriptObjectAI.obj
 0001:00039c78       ?push_back@?$vector@P8CScriptObjectAI@@AEHPAUIFunctionHandler@@@ZV?$allocator@P8CScriptObjectAI@@AEHPAUIFunctionHandler@@@Z@_STL@@@_STL@@QAEXABQ8CScriptObjectAI@@AEHPAUIFunctionHandler@@@Z@Z 3303ac78 f i ScriptObjectAI.obj
 0001:00039ca9       ?RegisterFunction@?$_ScriptableEx@VCScriptObjectAI@@@@SAXPAUIScriptSystem@@PBDP8CScriptObjectAI@@AEHPAUIFunctionHandler@@@Z@Z 3303aca9 f i ScriptObjectAI.obj
 0001:00039cf9       ?SetFlockName@CScriptObjectBoids@@QAEHPAUIFunctionHandler@@@Z 3303acf9 f   ScriptObjectBoids.obj
 0001:00039db0       ?RemoveFlock@CScriptObjectBoids@@QAEHPAUIFunctionHandler@@@Z 3303adb0 f   ScriptObjectBoids.obj
 0001:00039e3d       ?EnableFlock@CScriptObjectBoids@@QAEHPAUIFunctionHandler@@@Z 3303ae3d f   ScriptObjectBoids.obj
 0001:00039ef6       ?SetFlockPercentEnabled@CScriptObjectBoids@@QAEHPAUIFunctionHandler@@@Z 3303aef6 f   ScriptObjectBoids.obj
 0001:00039fb2       ??0CScriptObjectBoids@@QAE@XZ 3303afb2 f   ScriptObjectBoids.obj
 0001:00039fc6       ??1CScriptObjectBoids@@UAE@XZ 3303afc6 f   ScriptObjectBoids.obj
 0001:00039fd1       ?Init@CScriptObjectBoids@@QAEXPAUIScriptSystem@@PAUISystem@@PAVCFlockManager@@@Z 3303afd1 f   ScriptObjectBoids.obj
 0001:00039ff5       ?SetFlockPos@CScriptObjectBoids@@QAEHPAUIFunctionHandler@@@Z 3303aff5 f   ScriptObjectBoids.obj
 0001:0003a0f2       ?ReadParamsTable@CScriptObjectBoids@@AAE_NPAUIScriptObject@@AAUSBoidContext@@AAUSBoidsCreateContext@@@Z 3303b0f2 f   ScriptObjectBoids.obj
 0001:0003a4f7       ?CommonCreateFlock@CScriptObjectBoids@@AAEHPAUIFunctionHandler@@H@Z 3303b4f7 f   ScriptObjectBoids.obj
 0001:0003a750       ?CreateBirdsFlock@CScriptObjectBoids@@QAEHPAUIFunctionHandler@@@Z 3303b750 f   ScriptObjectBoids.obj
 0001:0003a75e       ?CreateFishFlock@CScriptObjectBoids@@QAEHPAUIFunctionHandler@@@Z 3303b75e f   ScriptObjectBoids.obj
 0001:0003a76c       ?CreateBugsFlock@CScriptObjectBoids@@QAEHPAUIFunctionHandler@@@Z 3303b76c f   ScriptObjectBoids.obj
 0001:0003a77a       ?SetFlockParams@CScriptObjectBoids@@QAEHPAUIFunctionHandler@@@Z 3303b77a f   ScriptObjectBoids.obj
 0001:0003a9ad       ?InitializeTemplate@CScriptObjectBoids@@SAXPAUIScriptSystem@@@Z 3303b9ad f   ScriptObjectBoids.obj
 0001:0003aa50       ??1?$_ScriptableEx@VCScriptObjectBoids@@@@UAE@XZ 3303ba50 f i ScriptObjectBoids.obj
 0001:0003aa87       ??_G?$_ScriptableEx@VCScriptObjectBoids@@@@UAEPAXI@Z 3303ba87 f i ScriptObjectBoids.obj
 0001:0003aa87       ??_E?$_ScriptableEx@VCScriptObjectBoids@@@@UAEPAXI@Z 3303ba87 f i ScriptObjectBoids.obj
 0001:0003aaa3       ?InitGlobal@?$_ScriptableEx@VCScriptObjectBoids@@@@QAEXPAUIScriptSystem@@PBDPAVCScriptObjectBoids@@@Z 3303baa3 f i ScriptObjectBoids.obj
 0001:0003ab1a       ??_ECScriptObjectBoids@@UAEPAXI@Z 3303bb1a f i ScriptObjectBoids.obj
 0001:0003ab1a       ??_GCScriptObjectBoids@@UAEPAXI@Z 3303bb1a f i ScriptObjectBoids.obj
 0001:0003ab36       ??1?$_Vector_base@USTableLine@CSynched2DTable@@V?$allocator@USTableLine@CSynched2DTable@@@_STL@@@_STL@@QAE@XZ 3303bb36 f i Synched2DTable.obj
 0001:0003ab36       ??1?$_Vector_base@USCountSize@CXNetworkStats@@V?$allocator@USCountSize@CXNetworkStats@@@_STL@@@_STL@@QAE@XZ 3303bb36 f i XNetworkStats.obj
 0001:0003ab36       ??1?$_Vector_base@V?$basic_string@GU?$char_traits@G@std@@V?$allocator@G@_STL@@@_STL@@V?$allocator@V?$basic_string@GU?$char_traits@G@std@@V?$allocator@G@_STL@@@_STL@@@2@@_STL@@QAE@XZ 3303bb36 f i UIListView.obj
 0001:0003ab36       ??1?$_Vector_base@UGameEvent@@V?$allocator@UGameEvent@@@_STL@@@_STL@@QAE@XZ 3303bb36 f i Game.obj
 0001:0003ab36       ??1?$_Vector_base@V?$basic_string@DU?$char_traits@D@std@@V?$allocator@D@_STL@@@_STL@@V?$allocator@V?$basic_string@DU?$char_traits@D@std@@V?$allocator@D@_STL@@@_STL@@@2@@_STL@@QAE@XZ 3303bb36 f i ScriptObjectBoids.obj
 0001:0003ab55       ?FuncThunk@?$_ScriptableEx@VCScriptObjectBoids@@@@KAHPAX@Z 3303bb55 f i ScriptObjectBoids.obj
 0001:0003abb7       ?allocate@?$allocator@USCountSize@CXNetworkStats@@@_STL@@QAEPAUSCountSize@CXNetworkStats@@IPBX@Z 3303bbb7 f i XNetworkStats.obj
 0001:0003abb7       ?allocate@?$allocator@V?$basic_string@DU?$char_traits@D@std@@V?$allocator@D@_STL@@@_STL@@@_STL@@QAEPAV?$basic_string@DU?$char_traits@D@std@@V?$allocator@D@_STL@@@2@IPBX@Z 3303bbb7 f i ScriptObjectBoids.obj
 0001:0003abb7       ?allocate@?$allocator@USTableLine@CSynched2DTable@@@_STL@@QAEPAUSTableLine@CSynched2DTable@@IPBX@Z 3303bbb7 f i Synched2DTable.obj
 0001:0003abb7       ?allocate@?$allocator@V?$basic_string@GU?$char_traits@G@std@@V?$allocator@G@_STL@@@_STL@@@_STL@@QAEPAV?$basic_string@GU?$char_traits@G@std@@V?$allocator@G@_STL@@@2@IPBX@Z 3303bbb7 f i UIListView.obj
 0001:0003abb7       ?allocate@?$allocator@UGameEvent@@@_STL@@QAEPAUGameEvent@@IPBX@Z 3303bbb7 f i GameEvents.obj
 0001:0003abd3       ?_M_insert_overflow@?$vector@P8CScriptObjectBoids@@AEHPAUIFunctionHandler@@@ZV?$allocator@P8CScriptObjectBoids@@AEHPAUIFunctionHandler@@@Z@_STL@@@_STL@@IAEXPAP8CScriptObjectBoids@@AEHPAUIFunctionHandler@@@ZABQ83@AEH0@ZABU__false_type@2@I_N@Z 3303bbd3 f i ScriptObjectBoids.obj
 0001:0003acc0       ?push_back@?$vector@P8CScriptObjectBoids@@AEHPAUIFunctionHandler@@@ZV?$allocator@P8CScriptObjectBoids@@AEHPAUIFunctionHandler@@@Z@_STL@@@_STL@@QAEXABQ8CScriptObjectBoids@@AEHPAUIFunctionHandler@@@Z@Z 3303bcc0 f i ScriptObjectBoids.obj
 0001:0003acf1       ?RegisterFunction@?$_ScriptableEx@VCScriptObjectBoids@@@@SAXPAUIScriptSystem@@PBDP8CScriptObjectBoids@@AEHPAUIFunctionHandler@@@Z@Z 3303bcf1 f i ScriptObjectBoids.obj
 0001:0003ad41       ??$_Destroy@PAV?$basic_string@DU?$char_traits@D@std@@V?$allocator@D@_STL@@@_STL@@@_STL@@YAXPAV?$basic_string@DU?$char_traits@D@std@@V?$allocator@D@_STL@@@0@0@Z 3303bd41 f i ScriptObjectBoids.obj
 0001:0003ad5a       ??1?$vector@V?$basic_string@DU?$char_traits@D@std@@V?$allocator@D@_STL@@@_STL@@V?$allocator@V?$basic_string@DU?$char_traits@D@std@@V?$allocator@D@_STL@@@_STL@@@2@@_STL@@QAE@XZ 3303bd5a f i ScriptObjectBoids.obj
 0001:0003ad71       ?_M_clear@?$vector@V?$basic_string@DU?$char_traits@D@std@@V?$allocator@D@_STL@@@_STL@@V?$allocator@V?$basic_string@DU?$char_traits@D@std@@V?$allocator@D@_STL@@@_STL@@@2@@_STL@@IAEXXZ 3303bd71 f i ScriptObjectBoids.obj
 0001:0003ad9a       ??$_Construct@V?$basic_string@DU?$char_traits@D@std@@V?$allocator@D@_STL@@@_STL@@V12@@_STL@@YAXPAV?$basic_string@DU?$char_traits@D@std@@V?$allocator@D@_STL@@@0@ABV10@@Z 3303bd9a f i ScriptObjectBoids.obj
 0001:0003adc7       ??0SBoidsCreateContext@@QAE@XZ 3303bdc7 f i ScriptObjectBoids.obj
 0001:0003ae0c       ??1SBoidsCreateContext@@QAE@XZ 3303be0c f i ScriptObjectBoids.obj
 0001:0003ae28       ??$__uninitialized_copy@PAV?$basic_string@DU?$char_traits@D@std@@V?$allocator@D@_STL@@@_STL@@PAV12@@_STL@@YAPAV?$basic_string@DU?$char_traits@D@std@@V?$allocator@D@_STL@@@0@PAV10@00ABU__false_type@0@@Z 3303be28 f i ScriptObjectBoids.obj
 0001:0003ae88       ??$__uninitialized_fill_n@PAV?$basic_string@DU?$char_traits@D@std@@V?$allocator@D@_STL@@@_STL@@IV12@@_STL@@YAPAV?$basic_string@DU?$char_traits@D@std@@V?$allocator@D@_STL@@@0@PAV10@IABV10@ABU__false_type@0@@Z 3303be88 f i ScriptObjectBoids.obj
 0001:0003aee8       ??$__copy@PAV?$basic_string@DU?$char_traits@D@std@@V?$allocator@D@_STL@@@_STL@@PAV12@H@_STL@@YAPAV?$basic_string@DU?$char_traits@D@std@@V?$allocator@D@_STL@@@0@PAV10@00ABUrandom_access_iterator_tag@0@PAH@Z 3303bee8 f i ScriptObjectBoids.obj
 0001:0003af1a       ?_M_insert_overflow@?$vector@V?$basic_string@DU?$char_traits@D@std@@V?$allocator@D@_STL@@@_STL@@V?$allocator@V?$basic_string@DU?$char_traits@D@std@@V?$allocator@D@_STL@@@_STL@@@2@@_STL@@IAEXPAV?$basic_string@DU?$char_traits@D@std@@V?$allocator@D@_STL@@@2@ABV32@ABU__false_type@2@I_N@Z 3303bf1a f i ScriptObjectBoids.obj
 0001:0003b01f       ??$__copy_ptrs@PAV?$basic_string@DU?$char_traits@D@std@@V?$allocator@D@_STL@@@_STL@@PAV12@@_STL@@YAPAV?$basic_string@DU?$char_traits@D@std@@V?$allocator@D@_STL@@@0@PAV10@00ABU__false_type@0@@Z 3303c01f f i ScriptObjectBoids.obj
 0001:0003b03c       ?push_back@?$vector@V?$basic_string@DU?$char_traits@D@std@@V?$allocator@D@_STL@@@_STL@@V?$allocator@V?$basic_string@DU?$char_traits@D@std@@V?$allocator@D@_STL@@@_STL@@@2@@_STL@@QAEXABV?$basic_string@DU?$char_traits@D@std@@V?$allocator@D@_STL@@@2@@Z 3303c03c f i ScriptObjectBoids.obj
 0001:0003b073       ?erase@?$vector@V?$basic_string@DU?$char_traits@D@std@@V?$allocator@D@_STL@@@_STL@@V?$allocator@V?$basic_string@DU?$char_traits@D@std@@V?$allocator@D@_STL@@@_STL@@@2@@_STL@@QAEPAV?$basic_string@DU?$char_traits@D@std@@V?$allocator@D@_STL@@@2@PAV32@0@Z 3303c073 f i ScriptObjectBoids.obj
 0001:0003b0a6       ?GetGameStartTime@CScriptObjectClient@@QAEHPAUIFunctionHandler@@@Z 3303c0a6 f   ScriptObjectClient.obj
 0001:0003b10b       ?GetGameState@CScriptObjectClient@@QAEHPAUIFunctionHandler@@@Z 3303c10b f   ScriptObjectClient.obj
 0001:0003b163       ?GetGameStateString@CScriptObjectClient@@QAEHPAUIFunctionHandler@@@Z 3303c163 f   ScriptObjectClient.obj
 0001:0003b21c       ?SetBitsPerSecond@CScriptObjectClient@@QAEHPAUIFunctionHandler@@@Z 3303c21c f   ScriptObjectClient.obj
 0001:0003b289       ?SetUpdateRate@CScriptObjectClient@@QAEHPAUIFunctionHandler@@@Z 3303c289 f   ScriptObjectClient.obj
 0001:0003b2f6       ?SendCommand@CScriptObjectClient@@QAEHPAUIFunctionHandler@@@Z 3303c2f6 f   ScriptObjectClient.obj
 0001:0003b363       ?GetSoundsEventsPos@CScriptObjectClient@@QAEHPAUIFunctionHandler@@@Z 3303c363 f   ScriptObjectClient.obj
 0001:0003b3d2       ?GetServerCPUTargetName@CScriptObjectClient@@QAEHPAUIFunctionHandler@@@Z 3303c3d2 f   ScriptObjectClient.obj
 0001:0003b42e       ?GetServerOSTargetName@CScriptObjectClient@@QAEHPAUIFunctionHandler@@@Z 3303c42e f   ScriptObjectClient.obj
 0001:0003b48a       ??0CScriptObjectClient@@QAE@XZ 3303c48a f   ScriptObjectClient.obj
 0001:0003b4a1       ??1CScriptObjectClient@@UAE@XZ 3303c4a1 f   ScriptObjectClient.obj
 0001:0003b4e3       ?GetPing@CScriptObjectClient@@QAEHPAUIFunctionHandler@@@Z 3303c4e3 f   ScriptObjectClient.obj
 0001:0003b53c       ?Create@CScriptObjectClient@@QAEXPAUIScriptSystem@@PAVCXGame@@PAVCXClient@@@Z 3303c53c f   ScriptObjectClient.obj
 0001:0003b56d       ?CallVote@CScriptObjectClient@@QAEHPAUIFunctionHandler@@@Z 3303c56d f   ScriptObjectClient.obj
 0001:0003b648       ?Vote@CScriptObjectClient@@QAEHPAUIFunctionHandler@@@Z 3303c648 f   ScriptObjectClient.obj
 0001:0003b75a       ?Kill@CScriptObjectClient@@QAEHPAUIFunctionHandler@@@Z 3303c75a f   ScriptObjectClient.obj
 0001:0003b7f4       ?JoinTeamRequest@CScriptObjectClient@@QAEHPAUIFunctionHandler@@@Z 3303c7f4 f   ScriptObjectClient.obj
 0001:0003b8f7       ?SetName@CScriptObjectClient@@QAEHPAUIFunctionHandler@@@Z 3303c8f7 f   ScriptObjectClient.obj
 0001:0003ba5e       ?AIState@CScriptObjectClient@@QAEHPAUIFunctionHandler@@@Z 3303ca5e f   ScriptObjectClient.obj
 0001:0003bad0       ?Say@CScriptObjectClient@@QAEHPAUIFunctionHandler@@@Z 3303cad0 f   ScriptObjectClient.obj
 0001:0003bc04       ?SayTeam@CScriptObjectClient@@QAEHPAUIFunctionHandler@@@Z 3303cc04 f   ScriptObjectClient.obj
 0001:0003bdc8       ?SayOne@CScriptObjectClient@@QAEHPAUIFunctionHandler@@@Z 3303cdc8 f   ScriptObjectClient.obj
 0001:0003bf87       ?InitializeTemplate@CScriptObjectClient@@SAXPAUIScriptSystem@@@Z 3303cf87 f   ScriptObjectClient.obj
 0001:0003c101       ??1CStream@@UAE@XZ         3303d101 f i ScriptObjectClient.obj
 0001:0003c12c       ?Resize@CStream@@QAE_NI@Z  3303d12c f i ScriptObjectClient.obj
 0001:0003c1b9       ??_ECStream@@UAEPAXI@Z     3303d1b9 f i ScriptObjectClient.obj
 0001:0003c1b9       ??_GCStream@@UAEPAXI@Z     3303d1b9 f i ScriptObjectClient.obj
 0001:0003c1d5       ?SetBits@CStream@@QAE_NPAEII@Z 3303d1d5 f i ScriptObjectClient.obj
 0001:0003c285       ?WriteBits@CStream@@QAE_NPAEI@Z 3303d285 f i ScriptObjectClient.obj
 0001:0003c2ae       ?Reset@CStream@@QAEXXZ     3303d2ae f i ScriptObjectClient.obj
 0001:0003c2f1       ?Write@CStream@@QAE_NPBD@Z 3303d2f1 f i ScriptObjectClient.obj
 0001:0003c316       ??1?$_ScriptableEx@VCScriptObjectClient@@@@UAE@XZ 3303d316 f i ScriptObjectClient.obj
 0001:0003c34d       ??_G?$_ScriptableEx@VCScriptObjectClient@@@@UAEPAXI@Z 3303d34d f i ScriptObjectClient.obj
 0001:0003c34d       ??_E?$_ScriptableEx@VCScriptObjectClient@@@@UAEPAXI@Z 3303d34d f i ScriptObjectClient.obj
 0001:0003c369       ?InitGlobal@?$_ScriptableEx@VCScriptObjectClient@@@@QAEXPAUIScriptSystem@@PBDPAVCScriptObjectClient@@@Z 3303d369 f i ScriptObjectClient.obj
 0001:0003c3e0       ??0CStream@@QAE@XZ         3303d3e0 f i ScriptObjectClient.obj
 0001:0003c42e       ??_ECScriptObjectClient@@UAEPAXI@Z 3303d42e f i ScriptObjectClient.obj
 0001:0003c42e       ??_GCScriptObjectClient@@UAEPAXI@Z 3303d42e f i ScriptObjectClient.obj
 0001:0003c44a       ?FuncThunk@?$_ScriptableEx@VCScriptObjectClient@@@@KAHPAX@Z 3303d44a f i ScriptObjectClient.obj
 0001:0003c4ac       ??1?$vector@HV?$allocator@H@_STL@@@_STL@@QAE@XZ 3303d4ac f i UIListView.obj
 0001:0003c4ac       ??1?$vector@PAUProperty@?$_ScriptableEx@VCUIEditBox@@@@V?$allocator@PAUProperty@?$_ScriptableEx@VCUIEditBox@@@@@_STL@@@_STL@@QAE@XZ 3303d4ac f i UISystem.obj
 0001:0003c4ac       ??1?$vector@PAUProperty@?$_ScriptableEx@VCUIButton@@@@V?$allocator@PAUProperty@?$_ScriptableEx@VCUIButton@@@@@_STL@@@_STL@@QAE@XZ 3303d4ac f i UISystem.obj
 0001:0003c4ac       ??1?$vector@PAUIStatObj@@V?$allocator@PAUIStatObj@@@_STL@@@_STL@@QAE@XZ 3303d4ac f i WeaponSystemEx.obj
 0001:0003c4ac       ??1?$vector@PAUProperty@?$_ScriptableEx@VCScriptObjectUI@@@@V?$allocator@PAUProperty@?$_ScriptableEx@VCScriptObjectUI@@@@@_STL@@@_STL@@QAE@XZ 3303d4ac f i Game.obj
 0001:0003c4ac       ??1?$vector@P8CScriptObjectGame@@AEHPAUIFunctionHandler@@@ZV?$allocator@P8CScriptObjectGame@@AEHPAUIFunctionHandler@@@Z@_STL@@@_STL@@QAE@XZ 3303d4ac f i ScriptObjectGame.obj
 0001:0003c4ac       ??1?$vector@PAUProperty@?$_ScriptableEx@VCScriptObjectFireParam@@@@V?$allocator@PAUProperty@?$_ScriptableEx@VCScriptObjectFireParam@@@@@_STL@@@_STL@@QAE@XZ 3303d4ac f i ScriptObjectWeaponClass.obj
 0001:0003c4ac       ??1?$vector@P8CScriptObjectClient@@AEHPAUIFunctionHandler@@@ZV?$allocator@P8CScriptObjectClient@@AEHPAUIFunctionHandler@@@Z@_STL@@@_STL@@QAE@XZ 3303d4ac f i ScriptObjectClient.obj
 0001:0003c4ac       ??1?$vector@PAVCUIScreen@@V?$allocator@PAVCUIScreen@@@_STL@@@_STL@@QAE@XZ 3303d4ac f i UISystem.obj
 0001:0003c4ac       ??1?$vector@PAVCScriptObjectFireParam@@V?$allocator@PAVCScriptObjectFireParam@@@_STL@@@_STL@@QAE@XZ 3303d4ac f i ScriptObjectWeaponClass.obj
 0001:0003c4ac       ??1?$vector@PAUIEntity@@V?$allocator@PAUIEntity@@@_STL@@@_STL@@QAE@XZ 3303d4ac f i XClient.obj
 0001:0003c4ac       ??1?$vector@PAUProperty@?$_ScriptableEx@VCScriptObjectBoids@@@@V?$allocator@PAUProperty@?$_ScriptableEx@VCScriptObjectBoids@@@@@_STL@@@_STL@@QAE@XZ 3303d4ac f i Game.obj
 0001:0003c4ac       ??1?$vector@PAUProperty@?$_ScriptableEx@VCScriptObjectClient@@@@V?$allocator@PAUProperty@?$_ScriptableEx@VCScriptObjectClient@@@@@_STL@@@_STL@@QAE@XZ 3303d4ac f i Game.obj
 0001:0003c4ac       ??1?$vector@PAUSGameModDescription@@V?$allocator@PAUSGameModDescription@@@_STL@@@_STL@@QAE@XZ 3303d4ac f i GameMods.obj
 0001:0003c4ac       ??1?$vector@P8CScriptObjectBoids@@AEHPAUIFunctionHandler@@@ZV?$allocator@P8CScriptObjectBoids@@AEHPAUIFunctionHandler@@@Z@_STL@@@_STL@@QAE@XZ 3303d4ac f i ScriptObjectBoids.obj
 0001:0003c4ac       ??1?$vector@P8CScriptObjectAI@@AEHPAUIFunctionHandler@@@ZV?$allocator@P8CScriptObjectAI@@AEHPAUIFunctionHandler@@@Z@_STL@@@_STL@@QAE@XZ 3303d4ac f i ScriptObjectAI.obj
 0001:0003c4ac       ??1?$vector@PAVCProjectileClass@@V?$allocator@PAVCProjectileClass@@@_STL@@@_STL@@QAE@XZ 3303d4ac f i WeaponSystemEx.obj
 0001:0003c4ac       ??1?$vector@P8CScriptObjectServer@@AEHPAUIFunctionHandler@@@ZV?$allocator@P8CScriptObjectServer@@AEHPAUIFunctionHandler@@@Z@_STL@@@_STL@@QAE@XZ 3303d4ac f i ScriptObjectServer.obj
 0001:0003c4ac       ??1?$vector@P8CScriptObjectStream@@AEHPAUIFunctionHandler@@@ZV?$allocator@P8CScriptObjectStream@@AEHPAUIFunctionHandler@@@Z@_STL@@@_STL@@QAE@XZ 3303d4ac f i ScriptObjectStream.obj
 0001:0003c4ac       ??1?$vector@PAUProperty@?$_ScriptableEx@VCScriptObjectVehicle@@@@V?$allocator@PAUProperty@?$_ScriptableEx@VCScriptObjectVehicle@@@@@_STL@@@_STL@@QAE@XZ 3303d4ac f i ScriptObjectVehicle.obj
 0001:0003c4ac       ??1?$vector@PAUProperty@?$_ScriptableEx@VCUIStatic@@@@V?$allocator@PAUProperty@?$_ScriptableEx@VCUIStatic@@@@@_STL@@@_STL@@QAE@XZ 3303d4ac f i UISystem.obj
 0001:0003c4ac       ??1?$vector@P8CScriptObjectServerSlot@@AEHPAUIFunctionHandler@@@ZV?$allocator@P8CScriptObjectServerSlot@@AEHPAUIFunctionHandler@@@Z@_STL@@@_STL@@QAE@XZ 3303d4ac f i ScriptObjectServerSlot.obj
 0001:0003c4ac       ??1?$vector@PAVCScriptObjectRenderer@@V?$allocator@PAVCScriptObjectRenderer@@@_STL@@@_STL@@QAE@XZ 3303d4ac f i ScriptObjectGame.obj
 0001:0003c4ac       ??1?$vector@P8CScriptObjectRenderer@@AEHPAUIFunctionHandler@@@ZV?$allocator@P8CScriptObjectRenderer@@AEHPAUIFunctionHandler@@@Z@_STL@@@_STL@@QAE@XZ 3303d4ac f i ScriptObjectRenderer.obj
 0001:0003c4ac       ??1?$vector@PAVCFlock@@V?$allocator@PAVCFlock@@@_STL@@@_STL@@QAE@XZ 3303d4ac f i Flock.obj
 0001:0003c4ac       ??1?$vector@PAUProperty@?$_ScriptableEx@VCScriptObjectAdvCamSystem@@@@V?$allocator@PAUProperty@?$_ScriptableEx@VCScriptObjectAdvCamSystem@@@@@_STL@@@_STL@@QAE@XZ 3303d4ac f i Game.obj
 0001:0003c4ac       ??1?$vector@PAUProperty@?$_ScriptableEx@VCScriptObjectSynched2DTable@@@@V?$allocator@PAUProperty@?$_ScriptableEx@VCScriptObjectSynched2DTable@@@@@_STL@@@_STL@@QAE@XZ 3303d4ac f i Game.obj
 0001:0003c4ac       ??1?$vector@PAUProperty@?$_ScriptableEx@VCScriptObjectLanguage@@@@V?$allocator@PAUProperty@?$_ScriptableEx@VCScriptObjectLanguage@@@@@_STL@@@_STL@@QAE@XZ 3303d4ac f i Game.obj
 0001:0003c4ac       ??1?$vector@PAUProperty@?$_ScriptableEx@VCScriptObjectInput@@@@V?$allocator@PAUProperty@?$_ScriptableEx@VCScriptObjectInput@@@@@_STL@@@_STL@@QAE@XZ 3303d4ac f i Game.obj
 0001:0003c4ac       ??1?$vector@PAVCWeaponClass@@V?$allocator@PAVCWeaponClass@@@_STL@@@_STL@@QAE@XZ 3303d4ac f i WeaponSystemEx.obj
 0001:0003c4ac       ??1?$vector@P8CScriptObjectUI@@AEHPAUIFunctionHandler@@@ZV?$allocator@P8CScriptObjectUI@@AEHPAUIFunctionHandler@@@Z@_STL@@@_STL@@QAE@XZ 3303d4ac f i ScriptObjectUI.obj
 0001:0003c4ac       ??1?$vector@PAVCXArea@@V?$allocator@PAVCXArea@@@_STL@@@_STL@@QAE@XZ 3303d4ac f i XArea.obj
 0001:0003c4ac       ??1?$vector@KV?$allocator@K@_STL@@@_STL@@QAE@XZ 3303d4ac f i XNetworkStats.obj
 0001:0003c4ac       ??1?$vector@PAUProperty@?$_ScriptableEx@VCScriptObjectPlayer@@@@V?$allocator@PAUProperty@?$_ScriptableEx@VCScriptObjectPlayer@@@@@_STL@@@_STL@@QAE@XZ 3303d4ac f i ScriptObjectPlayer.obj
 0001:0003c4ac       ??1?$vector@PAUWeaponParams@@V?$allocator@PAUWeaponParams@@@_STL@@@_STL@@QAE@XZ 3303d4ac f i WeaponClass.obj
 0001:0003c4ac       ??1?$vector@PAUProperty@?$_ScriptableEx@VCUIScrollBar@@@@V?$allocator@PAUProperty@?$_ScriptableEx@VCUIScrollBar@@@@@_STL@@@_STL@@QAE@XZ 3303d4ac f i UISystem.obj
 0001:0003c4ac       ??1?$vector@PAVCBoidObject@@V?$allocator@PAVCBoidObject@@@_STL@@@_STL@@QAE@XZ 3303d4ac f i Flock.obj
 0001:0003c4ac       ??1?$vector@PAUProperty@?$_ScriptableEx@VCScriptObjectGame@@@@V?$allocator@PAUProperty@?$_ScriptableEx@VCScriptObjectGame@@@@@_STL@@@_STL@@QAE@XZ 3303d4ac f i Game.obj
 0001:0003c4ac       ??1?$vector@PAUProperty@?$_ScriptableEx@VCScriptObjectWeaponClass@@@@V?$allocator@PAUProperty@?$_ScriptableEx@VCScriptObjectWeaponClass@@@@@_STL@@@_STL@@QAE@XZ 3303d4ac f i ScriptObjectWeaponClass.obj
 0001:0003c4ac       ??1?$vector@PAUProperty@?$_ScriptableEx@VCScriptObjectRenderer@@@@V?$allocator@PAUProperty@?$_ScriptableEx@VCScriptObjectRenderer@@@@@_STL@@@_STL@@QAE@XZ 3303d4ac f i Game.obj
 0001:0003c4ac       ??1?$vector@PAUProperty@?$_ScriptableEx@VCUICheckBox@@@@V?$allocator@PAUProperty@?$_ScriptableEx@VCUICheckBox@@@@@_STL@@@_STL@@QAE@XZ 3303d4ac f i UISystem.obj
 0001:0003c4ac       ??1?$vector@PAUProperty@?$_ScriptableEx@VCUIComboBox@@@@V?$allocator@PAUProperty@?$_ScriptableEx@VCUIComboBox@@@@@_STL@@@_STL@@QAE@XZ 3303d4ac f i UISystem.obj
 0001:0003c4ac       ??1?$vector@PAVCUIWidget@@V?$allocator@PAVCUIWidget@@@_STL@@@_STL@@QAE@XZ 3303d4ac f i UIButton.obj
 0001:0003c4ac       ??1?$vector@PAUProperty@?$_ScriptableEx@VCScriptObjectServerSlot@@@@V?$allocator@PAUProperty@?$_ScriptableEx@VCScriptObjectServerSlot@@@@@_STL@@@_STL@@QAE@XZ 3303d4ac f i Game.obj
 0001:0003c4ac       ??1?$vector@PAUProperty@?$_ScriptableEx@VCScriptObjectStream@@@@V?$allocator@PAUProperty@?$_ScriptableEx@VCScriptObjectStream@@@@@_STL@@@_STL@@QAE@XZ 3303d4ac f i Game.obj
 0001:0003c4ac       ??1?$vector@PAUProperty@?$_ScriptableEx@VCUIVideoPanel@@@@V?$allocator@PAUProperty@?$_ScriptableEx@VCUIVideoPanel@@@@@_STL@@@_STL@@QAE@XZ 3303d4ac f i UISystem.obj
 0001:0003c4ac       ??1?$vector@PAUProperty@?$_ScriptableEx@VCUIListView@@@@V?$allocator@PAUProperty@?$_ScriptableEx@VCUIListView@@@@@_STL@@@_STL@@QAE@XZ 3303d4ac f i UISystem.obj
 0001:0003c4ac       ??1?$vector@PAVCPlayer@@V?$allocator@PAVCPlayer@@@_STL@@@_STL@@QAE@XZ 3303d4ac f i GameEquipPacks.obj
 0001:0003c4ac       ??1?$vector@PAUProperty@?$_ScriptableEx@VCUIScreen@@@@V?$allocator@PAUProperty@?$_ScriptableEx@VCUIScreen@@@@@_STL@@@_STL@@QAE@XZ 3303d4ac f i UISystem.obj
 0001:0003c4ac       ??1?$vector@PAUProperty@?$_ScriptableEx@VCScriptObjectAI@@@@V?$allocator@PAUProperty@?$_ScriptableEx@VCScriptObjectAI@@@@@_STL@@@_STL@@QAE@XZ 3303d4ac f i Game.obj
 0001:0003c4ac       ??1?$vector@PAUUIComboItem@@V?$allocator@PAUUIComboItem@@@_STL@@@_STL@@QAE@XZ 3303d4ac f i UIComboBox.obj
 0001:0003c4ac       ??1?$vector@PAUIScriptObject@@V?$allocator@PAUIScriptObject@@@_STL@@@_STL@@QAE@XZ 3303d4ac f i ScriptObjectGame.obj
 0001:0003c4ac       ??1?$vector@IV?$allocator@I@_STL@@@_STL@@QAE@XZ 3303d4ac f i XServer.obj
 0001:0003c4ac       ??1?$vector@PAUProperty@?$_ScriptableEx@VCScriptObjectServer@@@@V?$allocator@PAUProperty@?$_ScriptableEx@VCScriptObjectServer@@@@@_STL@@@_STL@@QAE@XZ 3303d4ac f i Game.obj
 0001:0003c4ac       ??1?$vector@P8CScriptObjectInput@@AEHPAUIFunctionHandler@@@ZV?$allocator@P8CScriptObjectInput@@AEHPAUIFunctionHandler@@@Z@_STL@@@_STL@@QAE@XZ 3303d4ac f i ScriptObjectInput.obj
 0001:0003c4ac       ??1?$vector@P8CUIScreen@@AEHPAUIFunctionHandler@@@ZV?$allocator@P8CUIScreen@@AEHPAUIFunctionHandler@@@Z@_STL@@@_STL@@QAE@XZ 3303d4ac f i UIScreen.obj
 0001:0003c4ac       ??1?$vector@PAUProperty@?$_ScriptableEx@VCScriptObjectSpectator@@@@V?$allocator@PAUProperty@?$_ScriptableEx@VCScriptObjectSpectator@@@@@_STL@@@_STL@@QAE@XZ 3303d4ac f i Game.obj
 0001:0003c4ac       ??1?$vector@P8CScriptObjectLanguage@@AEHPAUIFunctionHandler@@@ZV?$allocator@P8CScriptObjectLanguage@@AEHPAUIFunctionHandler@@@Z@_STL@@@_STL@@QAE@XZ 3303d4ac f i ScriptObjectLanguage.obj
 0001:0003c4b1       ?_M_insert_overflow@?$vector@P8CScriptObjectClient@@AEHPAUIFunctionHandler@@@ZV?$allocator@P8CScriptObjectClient@@AEHPAUIFunctionHandler@@@Z@_STL@@@_STL@@IAEXPAP8CScriptObjectClient@@AEHPAUIFunctionHandler@@@ZABQ83@AEH0@ZABU__false_type@2@I_N@Z 3303d4b1 f i ScriptObjectClient.obj
 0001:0003c59e       ??0?$_String_base@DV?$allocator@D@_STL@@@_STL@@QAE@ABV?$allocator@D@1@I@Z 3303d59e f i ScriptObjectClient.obj
 0001:0003c5c6       ?push_back@?$vector@P8CScriptObjectClient@@AEHPAUIFunctionHandler@@@ZV?$allocator@P8CScriptObjectClient@@AEHPAUIFunctionHandler@@@Z@_STL@@@_STL@@QAEXABQ8CScriptObjectClient@@AEHPAUIFunctionHandler@@@Z@Z 3303d5c6 f i ScriptObjectClient.obj
 0001:0003c5f7       ??0?$basic_string@DU?$char_traits@D@std@@V?$allocator@D@_STL@@@_STL@@QAE@U_String_reserve_t@1@IABV?$allocator@D@1@@Z 3303d5f7 f i ScriptObjectClient.obj
 0001:0003c615       ??0TextMessage@@QAE@XZ     3303d615 f i ScriptObjectClient.obj
 0001:0003c62b       ?RegisterFunction@?$_ScriptableEx@VCScriptObjectClient@@@@SAXPAUIScriptSystem@@PBDP8CScriptObjectClient@@AEHPAUIFunctionHandler@@@Z@Z 3303d62b f i ScriptObjectClient.obj
 0001:0003c67b       ?append@?$basic_string@DU?$char_traits@D@std@@V?$allocator@D@_STL@@@_STL@@QAEAAV12@ABV12@@Z 3303d67b f i ScriptObjectClient.obj
 0001:0003c697       ??$?HDU?$char_traits@D@std@@V?$allocator@D@_STL@@@_STL@@YA?AV?$basic_string@DU?$char_traits@D@std@@V?$allocator@D@_STL@@@0@ABV10@PBD@Z 3303d697 f i ScriptObjectClient.obj
 0001:0003c731       ?GetUserNameA@CScriptObjectGame@@QAEHPAUIFunctionHandler@@@Z 3303d731 f   ScriptObjectGame.obj
 0001:0003c787       ?ReloadWeaponScripts@CScriptObjectGame@@QAEHPAUIFunctionHandler@@@Z 3303d787 f   ScriptObjectGame.obj
 0001:0003c7dc       ?KillTimer@CScriptObjectGame@@QAEHPAUIFunctionHandler@@@Z 3303d7dc f   ScriptObjectGame.obj
 0001:0003c84b       ?RefreshServerList@CScriptObjectGame@@QAEHPAUIFunctionHandler@@@Z 3303d84b f   ScriptObjectGame.obj
 0001:0003c8a0       ?Connect@CScriptObjectGame@@QAEHPAUIFunctionHandler@@@Z 3303d8a0 f   ScriptObjectGame.obj
 0001:0003c9ca       ?Disconnect@CScriptObjectGame@@QAEHPAUIFunctionHandler@@@Z 3303d9ca f   ScriptObjectGame.obj
 0001:0003ca34       ?LoadLevel@CScriptObjectGame@@QAEHPAUIFunctionHandler@@@Z 3303da34 f   ScriptObjectGame.obj
 0001:0003caca       ?LoadLevelListen@CScriptObjectGame@@QAEHPAUIFunctionHandler@@@Z 3303daca f   ScriptObjectGame.obj
 0001:0003cb21       ?LoadLevelMPServer@CScriptObjectGame@@QAEHPAUIFunctionHandler@@@Z 3303db21 f   ScriptObjectGame.obj
 0001:0003cb78       ?GetVersion@CScriptObjectGame@@QAEHPAUIFunctionHandler@@@Z 3303db78 f   ScriptObjectGame.obj
 0001:0003cbec       ?AddCommand@CScriptObjectGame@@QAEHPAUIFunctionHandler@@@Z 3303dbec f   ScriptObjectGame.obj
 0001:0003cc72       ?LoadLatestCheckPoint@CScriptObjectGame@@QAEHPAUIFunctionHandler@@@Z 3303dc72 f   ScriptObjectGame.obj
 0001:0003cc86       ?RemoveVariable@CScriptObjectGame@@QAEHPAUIFunctionHandler@@@Z 3303dc86 f   ScriptObjectGame.obj
 0001:0003ccf1       ?Quit@CScriptObjectGame@@QAEHPAUIFunctionHandler@@@Z 3303dcf1 f   ScriptObjectGame.obj
 0001:0003cd46       ?IsServer@CScriptObjectGame@@QAEHPAUIFunctionHandler@@@Z 3303dd46 f   ScriptObjectGame.obj
 0001:0003cd9f       ?IsClient@CScriptObjectGame@@QAEHPAUIFunctionHandler@@@Z 3303dd9f f   ScriptObjectGame.obj
 0001:0003cdf8       ?IsMultiplayer@CScriptObjectGame@@QAEHPAUIFunctionHandler@@@Z 3303ddf8 f   ScriptObjectGame.obj
 0001:0003ce51       ?EnableUIOverlay@CScriptObjectGame@@QAEHPAUIFunctionHandler@@@Z 3303de51 f   ScriptObjectGame.obj
 0001:0003cef8       ?IsUIOverlay@CScriptObjectGame@@QAEHPAUIFunctionHandler@@@Z 3303def8 f   ScriptObjectGame.obj
 0001:0003cf5b       ?GetEntityTeam@CScriptObjectGame@@QAEHPAUIFunctionHandler@@@Z 3303df5b f   ScriptObjectGame.obj
 0001:0003cfff       ?GetMaterialIDByName@CScriptObjectGame@@QAEHPAUIFunctionHandler@@@Z 3303dfff f   ScriptObjectGame.obj
 0001:0003d07c       ?ReloadMaterialPhysics@CScriptObjectGame@@QAEHPAUIFunctionHandler@@@Z 3303e07c f   ScriptObjectGame.obj
 0001:0003d0ef       ?GetMaterialBySurfaceID@CScriptObjectGame@@QAEHPAUIFunctionHandler@@@Z 3303e0ef f   ScriptObjectGame.obj
 0001:0003d17b       ?StartDemoPlay@CScriptObjectGame@@QAEHPAUIFunctionHandler@@@Z 3303e17b f   ScriptObjectGame.obj
 0001:0003d1c4       ?StopDemoPlay@CScriptObjectGame@@QAEHPAUIFunctionHandler@@@Z 3303e1c4 f   ScriptObjectGame.obj
 0001:0003d1d8       ?StartRecord@CScriptObjectGame@@QAEHPAUIFunctionHandler@@@Z 3303e1d8 f   ScriptObjectGame.obj
 0001:0003d221       ?StopRecord@CScriptObjectGame@@QAEHPAUIFunctionHandler@@@Z 3303e221 f   ScriptObjectGame.obj
 0001:0003d235       ?GetTeamScore@CScriptObjectGame@@QAEHPAUIFunctionHandler@@@Z 3303e235 f   ScriptObjectGame.obj
 0001:0003d2c2       ?GetTeamFlags@CScriptObjectGame@@QAEHPAUIFunctionHandler@@@Z 3303e2c2 f   ScriptObjectGame.obj
 0001:0003d34f       ?SetThirdPerson@CScriptObjectGame@@QAEHPAUIFunctionHandler@@@Z 3303e34f f   ScriptObjectGame.obj
 0001:0003d3bb       ?SortSaveGame@@YA_NABUSFoundSaveGame@@0@Z 3303e3bb f   ScriptObjectGame.obj
 0001:0003d417       ?ToggleMenu@CScriptObjectGame@@QAEHPAUIFunctionHandler@@@Z 3303e417 f   ScriptObjectGame.obj
 0001:0003d471       ?ShowMenu@CScriptObjectGame@@QAEHPAUIFunctionHandler@@@Z 3303e471 f   ScriptObjectGame.obj
 0001:0003d4cb       ?HideMenu@CScriptObjectGame@@QAEHPAUIFunctionHandler@@@Z 3303e4cb f   ScriptObjectGame.obj
 0001:0003d525       ?IsInMenu@CScriptObjectGame@@QAEHPAUIFunctionHandler@@@Z 3303e525 f   ScriptObjectGame.obj
 0001:0003d588       ?SendMessageA@CScriptObjectGame@@QAEHPAUIFunctionHandler@@@Z 3303e588 f   ScriptObjectGame.obj
 0001:0003d60c       ?GetEntityClassIDByClassName@CScriptObjectGame@@QAEHPAUIFunctionHandler@@@Z 3303e60c f   ScriptObjectGame.obj
 0001:0003d694       ?DrawHealthBar@CScriptObjectGame@@QAEHPAUIFunctionHandler@@@Z 3303e694 f   ScriptObjectGame.obj
 0001:0003d6a0       ?LoadScript@CScriptObjectGame@@QAEHPAUIFunctionHandler@@@Z 3303e6a0 f   ScriptObjectGame.obj
 0001:0003d70b       ?CleanUpLevel@CScriptObjectGame@@QAEHPAUIFunctionHandler@@@Z 3303e70b f   ScriptObjectGame.obj
 0001:0003d77c       ?SavePlayerPos@CScriptObjectGame@@QAEHPAUIFunctionHandler@@@Z 3303e77c f   ScriptObjectGame.obj
 0001:0003d7cd       ?LoadPlayerPos@CScriptObjectGame@@QAEHPAUIFunctionHandler@@@Z 3303e7cd f   ScriptObjectGame.obj
 0001:0003d83c       ?PlaySubtitle@CScriptObjectGame@@QAEHPAUIFunctionHandler@@@Z 3303e83c f   ScriptObjectGame.obj
 0001:0003d8c1       ?GetServerIP@CScriptObjectGame@@QAEHPAUIFunctionHandler@@@Z 3303e8c1 f   ScriptObjectGame.obj
 0001:0003d9c9       ?GetMD5@CScriptObjectGame@@QAEHPAUIFunctionHandler@@@Z 3303e9c9 f   ScriptObjectGame.obj
 0001:0003da6f       ?OnNETServerFound@CScriptObjectGame@@QAEXAAVCIPAddress@@AAUSXServerInfos@@@Z 3303ea6f f   ScriptObjectGame.obj
 0001:0003dc0e       ?OnNETServerTimeout@CScriptObjectGame@@QAEXAAVCIPAddress@@@Z 3303ec0e f   ScriptObjectGame.obj
 0001:0003dd68       ?ForceEntitiesToSleep@CScriptObjectGame@@QAEHPAUIFunctionHandler@@@Z 3303ed68 f   ScriptObjectGame.obj
 0001:0003de47       ?SetTimer@CScriptObjectGame@@QAEHPAUIFunctionHandler@@@Z 3303ee47 f   ScriptObjectGame.obj
 0001:0003df1e       ?ClearServerInfo@CScriptObjectGame@@QAEHPAUIFunctionHandler@@@Z 3303ef1e f   ScriptObjectGame.obj
 0001:0003df76       ?GetServerInfo@CScriptObjectGame@@QAEHPAUIFunctionHandler@@@Z 3303ef76 f   ScriptObjectGame.obj
 0001:0003e02f       ?ExecuteRConCommand@CScriptObjectGame@@QAEHPAUIFunctionHandler@@@Z 3303f02f f   ScriptObjectGame.obj
 0001:0003e0b0       ?GetPlayers@CScriptObjectGame@@QAEHPAUIFunctionHandler@@@Z 3303f0b0 f   ScriptObjectGame.obj
 0001:0003e212       ?SetHUDFont@CScriptObjectGame@@QAEHPAUIFunctionHandler@@@Z 3303f212 f   ScriptObjectGame.obj
 0001:0003e29c       ?WriteHudNumber@CScriptObjectGame@@QAEHPAUIFunctionHandler@@@Z 3303f29c f   ScriptObjectGame.obj
 0001:0003e3aa       ?DisplayNetworkStats@CScriptObjectGame@@QAEHPAUIFunctionHandler@@@Z 3303f3aa f   ScriptObjectGame.obj
 0001:0003e48a       ?Reconnect@CScriptObjectGame@@QAEHPAUIFunctionHandler@@@Z 3303f48a f   ScriptObjectGame.obj
 0001:0003e544       ?HasStringI@@YA_NABV?$vector@V?$basic_string@DU?$char_traits@D@std@@V?$allocator@D@_STL@@@_STL@@V?$allocator@V?$basic_string@DU?$char_traits@D@std@@V?$allocator@D@_STL@@@_STL@@@2@@_STL@@PBD@Z 3303f544 f   ScriptObjectGame.obj
 0001:0003e572       ?CreateVariable@CScriptObjectGame@@QAEHPAUIFunctionHandler@@@Z 3303f572 f   ScriptObjectGame.obj
 0001:0003e696       ?GetVariable@CScriptObjectGame@@QAEHPAUIFunctionHandler@@@Z 3303f696 f   ScriptObjectGame.obj
 0001:0003e79a       ?SetVariable@CScriptObjectGame@@QAEHPAUIFunctionHandler@@@Z 3303f79a f   ScriptObjectGame.obj
 0001:0003e92f       ?ShowSaveGameMenu@CScriptObjectGame@@QAEHPAUIFunctionHandler@@@Z 3303f92f f   ScriptObjectGame.obj
 0001:0003e964       ?DrawRadar@CScriptObjectGame@@QAEHPAUIFunctionHandler@@@Z 3303f964 f   ScriptObjectGame.obj
 0001:0003eae3       ?HideIngameDialog@CScriptObjectGame@@QAEHPAUIFunctionHandler@@@Z 3303fae3 f   ScriptObjectGame.obj
 0001:0003eb5a       ?DumpEntities@CScriptObjectGame@@QAEHPAUIFunctionHandler@@@Z 3303fb5a f   ScriptObjectGame.obj
 0001:0003ed0c       ?GetCameraFov@CScriptObjectGame@@QAEHPAUIFunctionHandler@@@Z 3303fd0c f   ScriptObjectGame.obj
 0001:0003ed99       ?GetModsList@CScriptObjectGame@@QAEHPAUIFunctionHandler@@@Z 3303fd99 f   ScriptObjectGame.obj
 0001:0003eff4       ?LoadMOD@CScriptObjectGame@@QAEHPAUIFunctionHandler@@@Z 3303fff4 f   ScriptObjectGame.obj
 0001:0003f08a       ?GetCurrentModName@CScriptObjectGame@@QAEHPAUIFunctionHandler@@@Z 3304008a f   ScriptObjectGame.obj
 0001:0003f0ba       ?EnableQuicksave@CScriptObjectGame@@QAEHPAUIFunctionHandler@@@Z 330400ba f   ScriptObjectGame.obj
 0001:0003f124       ?Init@CScriptObjectGame@@QAEXPAUIScriptSystem@@PAVCXGame@@@Z 33040124 f   ScriptObjectGame.obj
 0001:0003f289       ?Reset@CScriptObjectGame@@QAEXXZ 33040289 f   ScriptObjectGame.obj
 0001:0003f2b9       ?__RespawnEntity@CScriptObjectGame@@QAEHPAUIFunctionHandler@@@Z 330402b9 f   ScriptObjectGame.obj
 0001:0003f33a       ?GetLevelName@CScriptObjectGame@@QAEHPAUIFunctionHandler@@@Z 3304033a f   ScriptObjectGame.obj
 0001:0003f38c       ?IsPointInWater@CScriptObjectGame@@QAEHPAUIFunctionHandler@@@Z 3304038c f   ScriptObjectGame.obj
 0001:0003f45b       ?GetWaterHeight@CScriptObjectGame@@QAEHPAUIFunctionHandler@@@Z 3304045b f   ScriptObjectGame.obj
 0001:0003f509       ?IsPlayer@CScriptObjectGame@@QAEHPAUIFunctionHandler@@@Z 33040509 f   ScriptObjectGame.obj
 0001:0003f59f       ?DrawHalfCircleGauge@CScriptObjectGame@@QAEHPAUIFunctionHandler@@@Z 3304059f f   ScriptObjectGame.obj
 0001:0003fb98       ?SetViewAngles@CScriptObjectGame@@QAEHPAUIFunctionHandler@@@Z 33040b98 f   ScriptObjectGame.obj
 0001:0003fc4d       ?ApplyStormToEnvironment@CScriptObjectGame@@QAEHPAUIFunctionHandler@@@Z 33040c4d f   ScriptObjectGame.obj
 0001:0003fd6b       ?CreateExplosion@CScriptObjectGame@@QAEHPAUIFunctionHandler@@@Z 33040d6b f   ScriptObjectGame.obj
 0001:0004007a       ?GetInstantHit@CScriptObjectGame@@QAEHPAUIFunctionHandler@@@Z 3304107a f   ScriptObjectGame.obj
 0001:00040456       ?GetMeleeHit@CScriptObjectGame@@QAEHPAUIFunctionHandler@@@Z 33041456 f   ScriptObjectGame.obj
 0001:00040b07       ?SoundEvent@CScriptObjectGame@@QAEHPAUIFunctionHandler@@@Z 33041b07 f   ScriptObjectGame.obj
 0001:00040bf8       ?ListPlayers@CScriptObjectGame@@QAEHPAUIFunctionHandler@@@Z 33041bf8 f   ScriptObjectGame.obj
 0001:00040cce       ?GetActions@CScriptObjectGame@@QAEHPAUIFunctionHandler@@@Z 33041cce f   ScriptObjectGame.obj
 0001:00040eb6       ?GetEntitiesScreenSpace@CScriptObjectGame@@QAEHPAUIFunctionHandler@@@Z 33041eb6 f   ScriptObjectGame.obj
 0001:00041ddc       ?ForceScoreBoard@CScriptObjectGame@@QAEHPAUIFunctionHandler@@@Z 33042ddc f   ScriptObjectGame.obj
 0001:00041f0a       ?SetCameraFov@CScriptObjectGame@@QAEHPAUIFunctionHandler@@@Z 33042f0a f   ScriptObjectGame.obj
 0001:00042053       ??0CScriptObjectGame@@QAE@XZ 33043053 f   ScriptObjectGame.obj
 0001:00042095       ??1CScriptObjectGame@@UAE@XZ 33043095 f   ScriptObjectGame.obj
 0001:0004216b       ?GetCDPath@CScriptObjectGame@@QAEHPAUIFunctionHandler@@@Z 3304316b f   ScriptObjectGame.obj
 0001:000421cc       ?AddWeapon@CScriptObjectGame@@QAEHPAUIFunctionHandler@@@Z 330431cc f   ScriptObjectGame.obj
 0001:00042294       ?GetWeaponClassIDByName@CScriptObjectGame@@QAEHPAUIFunctionHandler@@@Z 33043294 f   ScriptObjectGame.obj
 0001:0004236a       ?ReloadMaterials@CScriptObjectGame@@QAEHPAUIFunctionHandler@@@Z 3304336a f   ScriptObjectGame.obj
 0001:000423d2       ?GetHudStringSize@CScriptObjectGame@@QAEHPAUIFunctionHandler@@@Z 330433d2 f   ScriptObjectGame.obj
 0001:00042558       ?WriteHudString@CScriptObjectGame@@QAEHPAUIFunctionHandler@@@Z 33043558 f   ScriptObjectGame.obj
 0001:000427a3       ?WriteHudStringFixed@CScriptObjectGame@@QAEHPAUIFunctionHandler@@@Z 330437a3 f   ScriptObjectGame.obj
 0001:0004294a       ?Save@CScriptObjectGame@@QAEHPAUIFunctionHandler@@@Z 3304394a f   ScriptObjectGame.obj
 0001:000429a2       ?Load@CScriptObjectGame@@QAEHPAUIFunctionHandler@@@Z 330439a2 f   ScriptObjectGame.obj
 0001:000429f5       ?TouchCheckPoint@CScriptObjectGame@@QAEHPAUIFunctionHandler@@@Z 330439f5 f   ScriptObjectGame.obj
 0001:00042c3e       ?GetPlayerEntitiesInRadius@CScriptObjectGame@@QAEHPAUIFunctionHandler@@@Z 33043c3e f   ScriptObjectGame.obj
 0001:00043086       ?GetTagPoint@CScriptObjectGame@@QAEHPAUIFunctionHandler@@@Z 33044086 f   ScriptObjectGame.obj
 0001:00043166       ?DrawLabel@CScriptObjectGame@@QAEHPAUIFunctionHandler@@@Z 33044166 f   ScriptObjectGame.obj
 0001:00043308       ?RemoveConfiguration@CScriptObjectGame@@QAEHPAUIFunctionHandler@@@Z 33044308 f   ScriptObjectGame.obj
 0001:000433c2       ?LoadConfigurationEx@CScriptObjectGame@@QAEHPAUIFunctionHandler@@@Z 330443c2 f   ScriptObjectGame.obj
 0001:00043580       ?CreateRenderer@CScriptObjectGame@@QAEHPAUIFunctionHandler@@@Z 33044580 f   ScriptObjectGame.obj
 0001:000435ef       ?GetServerListInfo@CScriptObjectGame@@QAEHPAUIFunctionHandler@@@Z 330445ef f   ScriptObjectGame.obj
 0001:0004374c       ?GetVersionString@CScriptObjectGame@@QAEHPAUIFunctionHandler@@@Z 3304474c f   ScriptObjectGame.obj
 0001:00043a5b       ?GetServerList@CScriptObjectGame@@QAEHPAUIFunctionHandler@@@Z 33044a5b f   ScriptObjectGame.obj
 0001:00043c92       ?ShowIngameDialog@CScriptObjectGame@@QAEHPAUIFunctionHandler@@@Z 33044c92 f   ScriptObjectGame.obj
 0001:00043e30       ?_GetProfileFileNames@CScriptObjectGame@@AAE_NPAUIFunctionHandler@@AAV?$basic_string@DU?$char_traits@D@std@@V?$allocator@D@_STL@@@_STL@@1PBD@Z 33044e30 f   ScriptObjectGame.obj
 0001:00044057       ?LoadConfiguration@CScriptObjectGame@@QAEHPAUIFunctionHandler@@@Z 33045057 f   ScriptObjectGame.obj
 0001:000440eb       ?SaveConfiguration@CScriptObjectGame@@QAEHPAUIFunctionHandler@@@Z 330450eb f   ScriptObjectGame.obj
 0001:00044213       ?CheckMap@CScriptObjectGame@@QAEHPAUIFunctionHandler@@@Z 33045213 f   ScriptObjectGame.obj
 0001:000445dd       ?GetMapDefaultMission@CScriptObjectGame@@QAEHPAUIFunctionHandler@@@Z 330455dd f   ScriptObjectGame.obj
 0001:00044982       ?GetLevelList@CScriptObjectGame@@QAEHPAUIFunctionHandler@@@Z 33045982 f   ScriptObjectGame.obj
 0001:00044cf2       ?GetSaveGameList@CScriptObjectGame@@QAEHPAUIFunctionHandler@@@Z 33045cf2 f   ScriptObjectGame.obj
 0001:00045264       ?InitializeTemplate@CScriptObjectGame@@SAXPAUIScriptSystem@@@Z 33046264 f   ScriptObjectGame.obj
 0001:0004597a       ??1?$_ScriptableEx@VCScriptObjectGame@@@@UAE@XZ 3304697a f i ScriptObjectGame.obj
 0001:000459b1       ??1?$_smart_ptr@UIEntityIt@@@@QAE@XZ 330469b1 f i ScriptObjectGame.obj
 0001:000459b1       ??1?$_smart_ptr@UIXMLDOMNode@XDOM@@@@QAE@XZ 330469b1 f i ScriptObjectGame.obj
 0001:000459b1       ??1?$_smart_ptr@UIXMLDOMNodeList@XDOM@@@@QAE@XZ 330469b1 f i ScriptObjectGame.obj
 0001:000459b1       ??1?$_smart_ptr@UIXMLDOMDocument@XDOM@@@@QAE@XZ 330469b1 f i ScriptObjectGame.obj
 0001:000459bd       ??_E?$_ScriptableEx@VCScriptObjectGame@@@@UAEPAXI@Z 330469bd f i ScriptObjectGame.obj
 0001:000459bd       ??_G?$_ScriptableEx@VCScriptObjectGame@@@@UAEPAXI@Z 330469bd f i ScriptObjectGame.obj
 0001:000459d9       ?_Rotate_left@?$_Rb_global@_N@_STL@@SAXPAU_Rb_tree_node_base@2@AAPAU32@@Z 330469d9 f i ScriptObjectGame.obj
 0001:00045a19       ?_Rotate_right@?$_Rb_global@_N@_STL@@SAXPAU_Rb_tree_node_base@2@AAPAU32@@Z 33046a19 f i ScriptObjectGame.obj
 0001:00045a59       ??$__find@PAGG@_STL@@YAPAGPAG0ABGABUrandom_access_iterator_tag@0@@Z 33046a59 f i ScriptObjectGame.obj
 0001:00045aca       ??$__median@USFoundSaveGame@@P6A_NABU1@0@Z@_STL@@YAABUSFoundSaveGame@@ABU1@00P6A_N00@Z@Z 33046aca f i ScriptObjectGame.obj
 0001:00045b23       ?ToString@SFileVersion@@QBEXPAD@Z 33046b23 f i ScriptObjectGame.obj
 0001:00045b43       ?GetBits@CStream@@QAE_NPAEII@Z 33046b43 f i ScriptObjectGame.obj
 0001:00045ba9       ?ReadBits@CStream@@QAE_NPAEI@Z 33046ba9 f i ScriptObjectGame.obj
 0001:00045bd2       ??0CIPAddress@@QAE@GPBD@Z  33046bd2 f i ScriptObjectGame.obj
 0001:00045c26       ??1CIPAddress@@UAE@XZ      33046c26 f i ScriptObjectGame.obj
 0001:00045c2d       ??_ECIPAddress@@UAEPAXI@Z  33046c2d f i ScriptObjectGame.obj
 0001:00045c2d       ??_GCIPAddress@@UAEPAXI@Z  33046c2d f i ScriptObjectGame.obj
 0001:00045c4a       ?GetAsString@CIPAddress@@QBEPAD_N@Z 33046c4a f i ScriptObjectGame.obj
 0001:00045cbf       ?ScriptVarTypeAsCStr@@YAPBDW4ScriptVarType@@@Z 33046cbf f i ScriptObjectGame.obj
 0001:00045d01       ?Create@_SmartScriptObject@@QAE_NPAUIScriptSystem@@@Z 33046d01 f i ScriptObjectGame.obj
 0001:00045d18       ??4?$SafeString@$0BAA@@@QAEAAV0@PBD@Z 33046d18 f i ScriptObjectGame.obj
 0001:00045d33       ?_M_increment@?$_Rb_global@_N@_STL@@SAPAU_Rb_tree_node_base@2@PAU32@@Z 33046d33 f i ScriptObjectGame.obj
 0001:00045d5f       ?Alloc@CDefaultStreamAllocator@@EAEPAXI@Z 33046d5f f i ScriptObjectGame.obj
 0001:00045d6c       ?Realloc@CDefaultStreamAllocator@@EAEPAXPAXI@Z 33046d6c f i ScriptObjectGame.obj
 0001:00045d7e       ?Free@CDefaultStreamAllocator@@EAEXPAX@Z 33046d7e f i ScriptObjectGame.obj
 0001:00045d8b       ?InitGlobal@?$_ScriptableEx@VCScriptObjectGame@@@@QAEXPAUIScriptSystem@@PBDPAVCScriptObjectGame@@@Z 33046d8b f i ScriptObjectGame.obj
 0001:00045e02       ?_Rebalance_for_erase@?$_Rb_global@_N@_STL@@SAPAU_Rb_tree_node_base@2@PAU32@AAPAU32@11@Z 33046e02 f i ScriptObjectGame.obj
 0001:00046039       ??$find@PAGG@_STL@@YAPAGPAG0ABG@Z 33047039 f i ScriptObjectGame.obj
 0001:00046054       ??$_Construct@VCIPAddress@@V1@@_STL@@YAXPAVCIPAddress@@ABV1@@Z 33047054 f i ScriptObjectGame.obj
 0001:00046075       ?ConvertToRadAngles@@YA?AU?$Vec3_tpl@M@@ABU?$Ang3_tpl@M@@@Z 33047075 f i ScriptObjectGame.obj
 0001:000460c9       ??$__destroy_aux@PAVCIPAddress@@@_STL@@YAXPAVCIPAddress@@0ABU__false_type@0@@Z 330470c9 f i ScriptObjectGame.obj
 0001:000460e3       ??0SVertexStream@@QAE@XZ   330470e3 f i ScriptObjectGame.obj
 0001:000460fc       ??0CVertexBuffer@@QAE@PAXHH@Z 330470fc f i ScriptObjectGame.obj
 0001:00046145       ??0CStream@@QAE@IPAUIStreamAllocator@@@Z 33047145 f i ScriptObjectGame.obj
 0001:00046198       ?SetSize@CStream@@QAE_NI@Z 33047198 f i ScriptObjectGame.obj
 0001:000461bf       ??0CEntityDesc@@QAE@XZ     330471bf f i ScriptObjectGame.obj
 0001:00046296       ?IsPlayerClass@CPlayerSystem@@QAE_NG@Z 33047296 f i ScriptObjectGame.obj
 0001:000462b8       ??0CCamera@@QAE@ABV0@@Z    330472b8 f i ScriptObjectGame.obj
 0001:000464b8       ?FuncThunk@?$_ScriptableEx@VCScriptObjectGame@@@@KAHPAX@Z 330474b8 f i ScriptObjectGame.obj
 0001:0004651a       ?erase@?$_Rb_tree@HHU?$_Identity@H@_STL@@U?$less@H@2@V?$allocator@H@2@@_STL@@QAEXU?$_Rb_tree_iterator@HU?$_Nonconst_traits@H@_STL@@@2@@Z 3304751a f i ScriptObjectGame.obj
 0001:00046548       ??1?$_Vector_base@VCIPAddress@@V?$allocator@VCIPAddress@@@_STL@@@_STL@@QAE@XZ 33047548 f i ScriptObjectGame.obj
 0001:00046567       ?allocate@?$allocator@VCIPAddress@@@_STL@@QAEPAVCIPAddress@@IPBX@Z 33047567 f i ScriptObjectGame.obj
 0001:00046583       ??$_Destroy@PAVCIPAddress@@@_STL@@YAXPAVCIPAddress@@0@Z 33047583 f i ScriptObjectGame.obj
 0001:0004659b       ??$__uninitialized_copy@PAVCIPAddress@@PAV1@@_STL@@YAPAVCIPAddress@@PAV1@00ABU__false_type@0@@Z 3304759b f i ScriptObjectGame.obj
 0001:000465c1       ??$__uninitialized_fill_n@PAVCIPAddress@@IV1@@_STL@@YAPAVCIPAddress@@PAV1@IABV1@ABU__false_type@0@@Z 330475c1 f i ScriptObjectGame.obj
 0001:000465e6       ?erase@?$set@HU?$less@H@_STL@@V?$allocator@H@2@@_STL@@QAE?AU?$_Rb_tree_iterator@HU?$_Const_traits@H@_STL@@@2@U32@@Z 330475e6 f i ScriptObjectGame.obj
 0001:0004660e       ??1?$vector@VCIPAddress@@V?$allocator@VCIPAddress@@@_STL@@@_STL@@QAE@XZ 3304760e f i ScriptObjectGame.obj
 0001:00046643       ?_M_clear@?$vector@VCIPAddress@@V?$allocator@VCIPAddress@@@_STL@@@_STL@@IAEXXZ 33047643 f i ScriptObjectGame.obj
 0001:0004666c       ?_M_insert_overflow@?$vector@VCIPAddress@@V?$allocator@VCIPAddress@@@_STL@@@_STL@@IAEXPAVCIPAddress@@ABV3@ABU__false_type@2@I_N@Z 3304766c f i ScriptObjectGame.obj
 0001:00046775       ?_M_insert_overflow@?$vector@P8CScriptObjectGame@@AEHPAUIFunctionHandler@@@ZV?$allocator@P8CScriptObjectGame@@AEHPAUIFunctionHandler@@@Z@_STL@@@_STL@@IAEXPAP8CScriptObjectGame@@AEHPAUIFunctionHandler@@@ZABQ83@AEH0@ZABU__false_type@2@I_N@Z 33047775 f i ScriptObjectGame.obj
 0001:00046862       ??_GCScriptObjectGame@@UAEPAXI@Z 33047862 f i ScriptObjectGame.obj
 0001:00046862       ??_ECScriptObjectGame@@UAEPAXI@Z 33047862 f i ScriptObjectGame.obj
 0001:0004687e       ??0SFoundSaveGame@@QAE@XZ  3304787e f i ScriptObjectGame.obj
 0001:000468bb       ??1SFoundSaveGame@@QAE@XZ  330478bb f i ScriptObjectGame.obj
 0001:000468d6       ?push_back@?$vector@VCIPAddress@@V?$allocator@VCIPAddress@@@_STL@@@_STL@@QAEXABVCIPAddress@@@Z 330478d6 f i ScriptObjectGame.obj
 0001:0004690d       ?push_back@?$vector@P8CScriptObjectGame@@AEHPAUIFunctionHandler@@@ZV?$allocator@P8CScriptObjectGame@@AEHPAUIFunctionHandler@@@Z@_STL@@@_STL@@QAEXABQ8CScriptObjectGame@@AEHPAUIFunctionHandler@@@Z@Z 3304790d f i ScriptObjectGame.obj
 0001:0004693e       ??$?0PAD@?$basic_string@DU?$char_traits@D@std@@V?$allocator@D@_STL@@@_STL@@QAE@PAD0ABV?$allocator@D@1@@Z 3304793e f i ScriptObjectGame.obj
 0001:0004697d       ??0SFoundSaveGame@@QAE@ABU0@@Z 3304797d f i ScriptObjectGame.obj
 0001:000469ee       ??1SXServerInfos@@UAE@XZ   330479ee f i ScriptObjectGame.obj
 0001:00046a1f       ??_GSXServerInfos@@UAEPAXI@Z 33047a1f f i ScriptObjectGame.obj
 0001:00046a1f       ??_ESXServerInfos@@UAEPAXI@Z 33047a1f f i ScriptObjectGame.obj
 0001:00046a3b       ??0SXServerInfos@@QAE@ABU0@@Z 33047a3b f i ScriptObjectGame.obj
 0001:00046aec       ?RegisterFunction@?$_ScriptableEx@VCScriptObjectGame@@@@SAXPAUIScriptSystem@@PBDP8CScriptObjectGame@@AEHPAUIFunctionHandler@@@Z@Z 33047aec f i ScriptObjectGame.obj
 0001:00046b3c       ??$_Construct@USFoundSaveGame@@U1@@_STL@@YAXPAUSFoundSaveGame@@ABU1@@Z 33047b3c f i ScriptObjectGame.obj
 0001:00046b69       ?append@?$basic_string@DU?$char_traits@D@std@@V?$allocator@D@_STL@@@_STL@@QAEAAV12@PBD@Z 33047b69 f i ScriptObjectGame.obj
 0001:00046b90       ??$?HDU?$char_traits@D@std@@V?$allocator@D@_STL@@@_STL@@YA?AV?$basic_string@DU?$char_traits@D@std@@V?$allocator@D@_STL@@@0@ABV10@0@Z 33047b90 f i ScriptObjectGame.obj
 0001:00046c0c       ??$_Destroy@PAUSFoundSaveGame@@@_STL@@YAXPAUSFoundSaveGame@@0@Z 33047c0c f i ScriptObjectGame.obj
 0001:00046c25       ??$__uninitialized_copy@PAUSFoundSaveGame@@PAU1@@_STL@@YAPAUSFoundSaveGame@@PAU1@00ABU__false_type@0@@Z 33047c25 f i ScriptObjectGame.obj
 0001:00046c85       ??$__uninitialized_fill_n@PAUSFoundSaveGame@@IU1@@_STL@@YAPAUSFoundSaveGame@@PAU1@IABU1@ABU__false_type@0@@Z 33047c85 f i ScriptObjectGame.obj
 0001:00046ce5       ??1?$vector@USFoundSaveGame@@V?$allocator@USFoundSaveGame@@@_STL@@@_STL@@QAE@XZ 33047ce5 f i ScriptObjectGame.obj
 0001:00046cfc       ?_M_clear@?$vector@USFoundSaveGame@@V?$allocator@USFoundSaveGame@@@_STL@@@_STL@@IAEXXZ 33047cfc f i ScriptObjectGame.obj
 0001:00046d25       ??4SFoundSaveGame@@QAEAAU0@ABU0@@Z 33047d25 f i ScriptObjectGame.obj
 0001:00046d76       ??$swap@USFoundSaveGame@@@_STL@@YAXAAUSFoundSaveGame@@0@Z 33047d76 f i ScriptObjectGame.obj
 0001:00046dbd       ??$__unguarded_linear_insert@PAUSFoundSaveGame@@U1@P6A_NABU1@0@Z@_STL@@YAXPAUSFoundSaveGame@@U1@P6A_NABU1@2@Z@Z 33047dbd f i ScriptObjectGame.obj
 0001:00046e0f       ??$__push_heap@PAUSFoundSaveGame@@HU1@P6A_NABU1@0@Z@_STL@@YAXPAUSFoundSaveGame@@HHU1@P6A_NABU1@2@Z@Z 33047e0f f i ScriptObjectGame.obj
 0001:00046e92       ??$__copy_backward@PAUSFoundSaveGame@@PAU1@H@_STL@@YAPAUSFoundSaveGame@@PAU1@00ABUrandom_access_iterator_tag@0@PAH@Z 33047e92 f i ScriptObjectGame.obj
 0001:00046ec4       ?Read@CStream@@QAE_NAAV?$basic_string@DU?$char_traits@D@std@@V?$allocator@D@_STL@@@_STL@@@Z 33047ec4 f i ScriptObjectGame.obj
 0001:00046f03       ?_M_insert_overflow@?$vector@USFoundSaveGame@@V?$allocator@USFoundSaveGame@@@_STL@@@_STL@@IAEXPAUSFoundSaveGame@@ABU3@ABU__false_type@2@I_N@Z 33047f03 f i ScriptObjectGame.obj
 0001:0004700c       ??$__unguarded_insertion_sort_aux@PAUSFoundSaveGame@@U1@P6A_NABU1@0@Z@_STL@@YAXPAUSFoundSaveGame@@00P6A_NABU1@1@Z@Z 3304800c f i ScriptObjectGame.obj
 0001:0004703a       ??$__adjust_heap@PAUSFoundSaveGame@@HU1@P6A_NABU1@0@Z@_STL@@YAXPAUSFoundSaveGame@@HHU1@P6A_NABU1@2@Z@Z 3304803a f i ScriptObjectGame.obj
 0001:000470e2       ??$__copy_backward_ptrs@PAUSFoundSaveGame@@PAU1@@_STL@@YAPAUSFoundSaveGame@@PAU1@00ABU__false_type@0@@Z 330480e2 f i ScriptObjectGame.obj
 0001:000470ff       ?push_back@?$vector@USFoundSaveGame@@V?$allocator@USFoundSaveGame@@@_STL@@@_STL@@QAEXABUSFoundSaveGame@@@Z 330480ff f i ScriptObjectGame.obj
 0001:00047136       ??$__unguarded_partition@PAUSFoundSaveGame@@U1@P6A_NABU1@0@Z@_STL@@YAPAUSFoundSaveGame@@PAU1@0U1@P6A_NABU1@2@Z@Z 33048136 f i ScriptObjectGame.obj
 0001:00047197       ??$__unguarded_insertion_sort@PAUSFoundSaveGame@@P6A_NABU1@0@Z@_STL@@YAXPAUSFoundSaveGame@@0P6A_NABU1@1@Z@Z 33048197 f i ScriptObjectGame.obj
 0001:000471ae       ??$__pop_heap@PAUSFoundSaveGame@@U1@P6A_NABU1@0@ZH@_STL@@YAXPAUSFoundSaveGame@@00U1@P6A_NABU1@2@ZPAH@Z 330481ae f i ScriptObjectGame.obj
 0001:00047209       ??$__make_heap@PAUSFoundSaveGame@@P6A_NABU1@0@ZU1@H@_STL@@YAXPAUSFoundSaveGame@@0P6A_NABU1@1@Z0PAH@Z 33048209 f i ScriptObjectGame.obj
 0001:00047261       ??$__pop_heap_aux@PAUSFoundSaveGame@@U1@P6A_NABU1@0@Z@_STL@@YAXPAUSFoundSaveGame@@00P6A_NABU1@1@Z@Z 33048261 f i ScriptObjectGame.obj
 0001:0004728e       ??$make_heap@PAUSFoundSaveGame@@P6A_NABU1@0@Z@_STL@@YAXPAUSFoundSaveGame@@0P6A_NABU1@1@Z@Z 3304828e f i ScriptObjectGame.obj
 0001:000472a7       ??$copy_backward@PAUSFoundSaveGame@@PAU1@@_STL@@YAPAUSFoundSaveGame@@PAU1@00@Z 330482a7 f i ScriptObjectGame.obj
 0001:000472c2       ??$pop_heap@PAUSFoundSaveGame@@P6A_NABU1@0@Z@_STL@@YAXPAUSFoundSaveGame@@0P6A_NABU1@1@Z@Z 330482c2 f i ScriptObjectGame.obj
 0001:000472d9       ??$__linear_insert@PAUSFoundSaveGame@@U1@P6A_NABU1@0@Z@_STL@@YAXPAUSFoundSaveGame@@0U1@P6A_NABU1@2@Z@Z 330482d9 f i ScriptObjectGame.obj
 0001:0004734b       ??$sort_heap@PAUSFoundSaveGame@@P6A_NABU1@0@Z@_STL@@YAXPAUSFoundSaveGame@@0P6A_NABU1@1@Z@Z 3304834b f i ScriptObjectGame.obj
 0001:0004738c       ??$__insertion_sort@PAUSFoundSaveGame@@P6A_NABU1@0@Z@_STL@@YAXPAUSFoundSaveGame@@0P6A_NABU1@1@Z@Z 3304838c f i ScriptObjectGame.obj
 0001:000473c5       ??$__partial_sort@PAUSFoundSaveGame@@U1@P6A_NABU1@0@Z@_STL@@YAXPAUSFoundSaveGame@@000P6A_NABU1@1@Z@Z 330483c5 f i ScriptObjectGame.obj
 0001:00047429       ??$__final_insertion_sort@PAUSFoundSaveGame@@P6A_NABU1@0@Z@_STL@@YAXPAUSFoundSaveGame@@0P6A_NABU1@1@Z@Z 33048429 f i ScriptObjectGame.obj
 0001:00047470       ??$partial_sort@PAUSFoundSaveGame@@P6A_NABU1@0@Z@_STL@@YAXPAUSFoundSaveGame@@00P6A_NABU1@1@Z@Z 33048470 f i ScriptObjectGame.obj
 0001:0004748b       ??$__introsort_loop@PAUSFoundSaveGame@@U1@HP6A_NABU1@0@Z@_STL@@YAXPAUSFoundSaveGame@@00HP6A_NABU1@1@Z@Z 3304848b f i ScriptObjectGame.obj
 0001:00047515       ??$sort@PAUSFoundSaveGame@@P6A_NABU1@0@Z@_STL@@YAXPAUSFoundSaveGame@@0P6A_NABU1@1@Z@Z 33048515 f i ScriptObjectGame.obj
 0001:0004755b       ?ResetToDefaults@CScriptObjectInput@@QAEHPAUIFunctionHandler@@@Z 3304855b f   ScriptObjectInput.obj
 0001:0004756f       ?BindCommandToKey@CScriptObjectInput@@QAEHPAUIFunctionHandler@@@Z 3304856f f   ScriptObjectInput.obj
 0001:0004763e       ?BindAction@CScriptObjectInput@@QAEHPAUIFunctionHandler@@@Z 3304863e f   ScriptObjectInput.obj
 0001:000476f1       ?BindActionMultipleMaps@CScriptObjectInput@@QAEHPAUIFunctionHandler@@@Z 330486f1 f   ScriptObjectInput.obj
 0001:00047793       ?ClearAction@CScriptObjectInput@@QAEHPAUIFunctionHandler@@@Z 33048793 f   ScriptObjectInput.obj
 0001:0004780c       ?SetActionMap@CScriptObjectInput@@QAEHPAUIFunctionHandler@@@Z 3304880c f   ScriptObjectInput.obj
 0001:00047890       ?ResetBinding@CScriptObjectInput@@QAEHPAUIFunctionHandler@@@Z 33048890 f   ScriptObjectInput.obj
 0001:00047928       ?SetMouseSensitivity@CScriptObjectInput@@QAEHPAUIFunctionHandler@@@Z 33048928 f   ScriptObjectInput.obj
 0001:000479be       ?GetMouseSensitivity@CScriptObjectInput@@QAEHPAUIFunctionHandler@@@Z 330489be f   ScriptObjectInput.obj
 0001:00047a0e       ?SetMouseSensitivityScale@CScriptObjectInput@@QAEHPAUIFunctionHandler@@@Z 33048a0e f   ScriptObjectInput.obj
 0001:00047aa4       ?GetMouseSensitivityScale@CScriptObjectInput@@QAEHPAUIFunctionHandler@@@Z 33048aa4 f   ScriptObjectInput.obj
 0001:00047af4       ?SetJoySensitivityHGain@CScriptObjectInput@@QAEHPAUIFunctionHandler@@@Z 33048af4 f   ScriptObjectInput.obj
 0001:00047b7f       ?SetJoySensitivityHScale@CScriptObjectInput@@QAEHPAUIFunctionHandler@@@Z 33048b7f f   ScriptObjectInput.obj
 0001:00047c0a       ?SetJoySensitivityVGain@CScriptObjectInput@@QAEHPAUIFunctionHandler@@@Z 33048c0a f   ScriptObjectInput.obj
 0001:00047c95       ?SetJoySensitivityVScale@CScriptObjectInput@@QAEHPAUIFunctionHandler@@@Z 33048c95 f   ScriptObjectInput.obj
 0001:00047d20       ?GetJoySensitivityHGain@CScriptObjectInput@@QAEHPAUIFunctionHandler@@@Z 33048d20 f   ScriptObjectInput.obj
 0001:00047d5f       ?GetJoySensitivityHScale@CScriptObjectInput@@QAEHPAUIFunctionHandler@@@Z 33048d5f f   ScriptObjectInput.obj
 0001:00047d9e       ?GetJoySensitivityVGain@CScriptObjectInput@@QAEHPAUIFunctionHandler@@@Z 33048d9e f   ScriptObjectInput.obj
 0001:00047ddd       ?GetJoySensitivityVScale@CScriptObjectInput@@QAEHPAUIFunctionHandler@@@Z 33048ddd f   ScriptObjectInput.obj
 0001:00047e1c       ?GetXKeyPressedName@CScriptObjectInput@@QAEHPAUIFunctionHandler@@@Z 33048e1c f   ScriptObjectInput.obj
 0001:00047e4b       ?GetXKeyDownName@CScriptObjectInput@@QAEHPAUIFunctionHandler@@@Z 33048e4b f   ScriptObjectInput.obj
 0001:00047e7a       ?ResetKeyState@CScriptObjectInput@@QAEHPAUIFunctionHandler@@@Z 33048e7a f   ScriptObjectInput.obj
 0001:00047ef7       ?SetInvertedMouse@CScriptObjectInput@@QAEHPAUIFunctionHandler@@@Z 33048ef7 f   ScriptObjectInput.obj
 0001:00047f76       ?GetInvertedMouse@CScriptObjectInput@@QAEHPAUIFunctionHandler@@@Z 33048f76 f   ScriptObjectInput.obj
 0001:00047fe0       ??0CScriptObjectInput@@QAE@XZ 33048fe0 f   ScriptObjectInput.obj
 0001:00047ff4       ??1CScriptObjectInput@@UAE@XZ 33048ff4 f   ScriptObjectInput.obj
 0001:00047fff       ?ResetAllBindings@CScriptObjectInput@@QAEHPAUIFunctionHandler@@@Z 33048fff f   ScriptObjectInput.obj
 0001:00048027       ?GetActionMaps@CScriptObjectInput@@QAEHPAUIFunctionHandler@@@Z 33049027 f   ScriptObjectInput.obj
 0001:000480e5       ?GetBinding@CScriptObjectInput@@QAEHPAUIFunctionHandler@@@Z 330490e5 f   ScriptObjectInput.obj
 0001:000482d2       ?Init@CScriptObjectInput@@QAEXPAUIScriptSystem@@PAVCXGame@@PAUISystem@@@Z 330492d2 f   ScriptObjectInput.obj
 0001:0004830e       ?InitializeTemplate@CScriptObjectInput@@SAXPAUIScriptSystem@@@Z 3304930e f   ScriptObjectInput.obj
 0001:000484da       ??1?$_ScriptableEx@VCScriptObjectInput@@@@UAE@XZ 330494da f i ScriptObjectInput.obj
 0001:00048511       ??_E?$_ScriptableEx@VCScriptObjectInput@@@@UAEPAXI@Z 33049511 f i ScriptObjectInput.obj
 0001:00048511       ??_G?$_ScriptableEx@VCScriptObjectInput@@@@UAEPAXI@Z 33049511 f i ScriptObjectInput.obj
 0001:0004852d       ?OnElementFound@CDumpActions@@UAEXPBDPAUIActionMap@@@Z 3304952d f i ScriptObjectInput.obj
 0001:00048549       ?InitGlobal@?$_ScriptableEx@VCScriptObjectInput@@@@QAEXPAUIScriptSystem@@PBDPAVCScriptObjectInput@@@Z 33049549 f i ScriptObjectInput.obj
 0001:000485c0       ??_ECScriptObjectInput@@UAEPAXI@Z 330495c0 f i ScriptObjectInput.obj
 0001:000485c0       ??_GCScriptObjectInput@@UAEPAXI@Z 330495c0 f i ScriptObjectInput.obj
 0001:000485dc       ?FuncThunk@?$_ScriptableEx@VCScriptObjectInput@@@@KAHPAX@Z 330495dc f i ScriptObjectInput.obj
 0001:0004863e       ??0?$vector@P8CUIComboBox@@AEHPAUIFunctionHandler@@@ZV?$allocator@P8CUIComboBox@@AEHPAUIFunctionHandler@@@Z@_STL@@@_STL@@QAE@ABV?$allocator@P8CUIComboBox@@AEHPAUIFunctionHandler@@@Z@1@@Z 3304963e f i UIComboBox.obj
 0001:0004863e       ??0?$vector@P8CScriptObjectClient@@AEHPAUIFunctionHandler@@@ZV?$allocator@P8CScriptObjectClient@@AEHPAUIFunctionHandler@@@Z@_STL@@@_STL@@QAE@ABV?$allocator@P8CScriptObjectClient@@AEHPAUIFunctionHandler@@@Z@1@@Z 3304963e f i ScriptObjectClient.obj
 0001:0004863e       ??0?$vector@P8CScriptObjectAI@@AEHPAUIFunctionHandler@@@ZV?$allocator@P8CScriptObjectAI@@AEHPAUIFunctionHandler@@@Z@_STL@@@_STL@@QAE@ABV?$allocator@P8CScriptObjectAI@@AEHPAUIFunctionHandler@@@Z@1@@Z 3304963e f i ScriptObjectAI.obj
 0001:0004863e       ??0?$vector@P8CUIEditBox@@AEHPAUIFunctionHandler@@@ZV?$allocator@P8CUIEditBox@@AEHPAUIFunctionHandler@@@Z@_STL@@@_STL@@QAE@ABV?$allocator@P8CUIEditBox@@AEHPAUIFunctionHandler@@@Z@1@@Z 3304963e f i UIEditBox.obj
 0001:0004863e       ??0?$vector@P8CScriptObjectSpectator@@AEHPAUIFunctionHandler@@@ZV?$allocator@P8CScriptObjectSpectator@@AEHPAUIFunctionHandler@@@Z@_STL@@@_STL@@QAE@ABV?$allocator@P8CScriptObjectSpectator@@AEHPAUIFunctionHandler@@@Z@1@@Z 3304963e f i ScriptObjectSpectator.obj
 0001:0004863e       ??0?$vector@P8CScriptObjectAdvCamSystem@@AEHPAUIFunctionHandler@@@ZV?$allocator@P8CScriptObjectAdvCamSystem@@AEHPAUIFunctionHandler@@@Z@_STL@@@_STL@@QAE@ABV?$allocator@P8CScriptObjectAdvCamSystem@@AEHPAUIFunctionHandler@@@Z@1@@Z 3304963e f i ScriptObjectAdvCamSystem.obj
 0001:0004863e       ??0?$vector@P8CScriptObjectPlayer@@AEHPAUIFunctionHandler@@@ZV?$allocator@P8CScriptObjectPlayer@@AEHPAUIFunctionHandler@@@Z@_STL@@@_STL@@QAE@ABV?$allocator@P8CScriptObjectPlayer@@AEHPAUIFunctionHandler@@@Z@1@@Z 3304963e f i ScriptObjectPlayer.obj
 0001:0004863e       ??0?$vector@P8CUIVideoPanel@@AEHPAUIFunctionHandler@@@ZV?$allocator@P8CUIVideoPanel@@AEHPAUIFunctionHandler@@@Z@_STL@@@_STL@@QAE@ABV?$allocator@P8CUIVideoPanel@@AEHPAUIFunctionHandler@@@Z@1@@Z 3304963e f i UIVideoPanel.obj
 0001:0004863e       ??0?$vector@P8CUIScreen@@AEHPAUIFunctionHandler@@@ZV?$allocator@P8CUIScreen@@AEHPAUIFunctionHandler@@@Z@_STL@@@_STL@@QAE@ABV?$allocator@P8CUIScreen@@AEHPAUIFunctionHandler@@@Z@1@@Z 3304963e f i UIScreen.obj
 0001:0004863e       ??0?$vector@P8CScriptObjectServerSlot@@AEHPAUIFunctionHandler@@@ZV?$allocator@P8CScriptObjectServerSlot@@AEHPAUIFunctionHandler@@@Z@_STL@@@_STL@@QAE@ABV?$allocator@P8CScriptObjectServerSlot@@AEHPAUIFunctionHandler@@@Z@1@@Z 3304963e f i ScriptObjectServerSlot.obj
 0001:0004863e       ??0?$vector@P8CScriptObjectInput@@AEHPAUIFunctionHandler@@@ZV?$allocator@P8CScriptObjectInput@@AEHPAUIFunctionHandler@@@Z@_STL@@@_STL@@QAE@ABV?$allocator@P8CScriptObjectInput@@AEHPAUIFunctionHandler@@@Z@1@@Z 3304963e f i ScriptObjectInput.obj
 0001:0004863e       ??0?$vector@P8CScriptObjectRenderer@@AEHPAUIFunctionHandler@@@ZV?$allocator@P8CScriptObjectRenderer@@AEHPAUIFunctionHandler@@@Z@_STL@@@_STL@@QAE@ABV?$allocator@P8CScriptObjectRenderer@@AEHPAUIFunctionHandler@@@Z@1@@Z 3304963e f i ScriptObjectRenderer.obj
 0001:0004863e       ??0?$vector@P8CUIListView@@AEHPAUIFunctionHandler@@@ZV?$allocator@P8CUIListView@@AEHPAUIFunctionHandler@@@Z@_STL@@@_STL@@QAE@ABV?$allocator@P8CUIListView@@AEHPAUIFunctionHandler@@@Z@1@@Z 3304963e f i UIListView.obj
 0001:0004863e       ??0?$vector@P8CUIButton@@AEHPAUIFunctionHandler@@@ZV?$allocator@P8CUIButton@@AEHPAUIFunctionHandler@@@Z@_STL@@@_STL@@QAE@ABV?$allocator@P8CUIButton@@AEHPAUIFunctionHandler@@@Z@1@@Z 3304963e f i UIButton.obj
 0001:0004863e       ??0?$vector@P8CUICheckBox@@AEHPAUIFunctionHandler@@@ZV?$allocator@P8CUICheckBox@@AEHPAUIFunctionHandler@@@Z@_STL@@@_STL@@QAE@ABV?$allocator@P8CUICheckBox@@AEHPAUIFunctionHandler@@@Z@1@@Z 3304963e f i UICheckBox.obj
 0001:0004863e       ??0?$vector@P8CUIStatic@@AEHPAUIFunctionHandler@@@ZV?$allocator@P8CUIStatic@@AEHPAUIFunctionHandler@@@Z@_STL@@@_STL@@QAE@ABV?$allocator@P8CUIStatic@@AEHPAUIFunctionHandler@@@Z@1@@Z 3304963e f i UIStatic.obj
 0001:0004863e       ??0?$vector@P8CScriptObjectUI@@AEHPAUIFunctionHandler@@@ZV?$allocator@P8CScriptObjectUI@@AEHPAUIFunctionHandler@@@Z@_STL@@@_STL@@QAE@ABV?$allocator@P8CScriptObjectUI@@AEHPAUIFunctionHandler@@@Z@1@@Z 3304963e f i ScriptObjectUI.obj
 0001:0004863e       ??0?$vector@P8CScriptObjectWeaponClass@@AEHPAUIFunctionHandler@@@ZV?$allocator@P8CScriptObjectWeaponClass@@AEHPAUIFunctionHandler@@@Z@_STL@@@_STL@@QAE@ABV?$allocator@P8CScriptObjectWeaponClass@@AEHPAUIFunctionHandler@@@Z@1@@Z 3304963e f i ScriptObjectWeaponClass.obj
 0001:0004863e       ??0?$vector@P8CScriptObjectServer@@AEHPAUIFunctionHandler@@@ZV?$allocator@P8CScriptObjectServer@@AEHPAUIFunctionHandler@@@Z@_STL@@@_STL@@QAE@ABV?$allocator@P8CScriptObjectServer@@AEHPAUIFunctionHandler@@@Z@1@@Z 3304963e f i ScriptObjectServer.obj
 0001:0004863e       ??0?$vector@P8CScriptObjectSynched2DTable@@AEHPAUIFunctionHandler@@@ZV?$allocator@P8CScriptObjectSynched2DTable@@AEHPAUIFunctionHandler@@@Z@_STL@@@_STL@@QAE@ABV?$allocator@P8CScriptObjectSynched2DTable@@AEHPAUIFunctionHandler@@@Z@1@@Z 3304963e f i ScriptObjectSynched2DTable.obj
 0001:0004863e       ??0?$vector@P8CScriptObjectLanguage@@AEHPAUIFunctionHandler@@@ZV?$allocator@P8CScriptObjectLanguage@@AEHPAUIFunctionHandler@@@Z@_STL@@@_STL@@QAE@ABV?$allocator@P8CScriptObjectLanguage@@AEHPAUIFunctionHandler@@@Z@1@@Z 3304963e f i ScriptObjectLanguage.obj
 0001:0004863e       ??0?$vector@P8CUIScrollBar@@AEHPAUIFunctionHandler@@@ZV?$allocator@P8CUIScrollBar@@AEHPAUIFunctionHandler@@@Z@_STL@@@_STL@@QAE@ABV?$allocator@P8CUIScrollBar@@AEHPAUIFunctionHandler@@@Z@1@@Z 3304963e f i UIScrollBar.obj
 0001:0004863e       ??0?$vector@P8CScriptObjectStream@@AEHPAUIFunctionHandler@@@ZV?$allocator@P8CScriptObjectStream@@AEHPAUIFunctionHandler@@@Z@_STL@@@_STL@@QAE@ABV?$allocator@P8CScriptObjectStream@@AEHPAUIFunctionHandler@@@Z@1@@Z 3304963e f i ScriptObjectStream.obj
 0001:0004863e       ??0?$vector@P8CScriptObjectVehicle@@AEHPAUIFunctionHandler@@@ZV?$allocator@P8CScriptObjectVehicle@@AEHPAUIFunctionHandler@@@Z@_STL@@@_STL@@QAE@ABV?$allocator@P8CScriptObjectVehicle@@AEHPAUIFunctionHandler@@@Z@1@@Z 3304963e f i ScriptObjectVehicle.obj
 0001:0004863e       ??0?$vector@P8CScriptObjectGame@@AEHPAUIFunctionHandler@@@ZV?$allocator@P8CScriptObjectGame@@AEHPAUIFunctionHandler@@@Z@_STL@@@_STL@@QAE@ABV?$allocator@P8CScriptObjectGame@@AEHPAUIFunctionHandler@@@Z@1@@Z 3304963e f i ScriptObjectGame.obj
 0001:0004863e       ??0?$vector@P8CScriptObjectBoids@@AEHPAUIFunctionHandler@@@ZV?$allocator@P8CScriptObjectBoids@@AEHPAUIFunctionHandler@@@Z@_STL@@@_STL@@QAE@ABV?$allocator@P8CScriptObjectBoids@@AEHPAUIFunctionHandler@@@Z@1@@Z 3304963e f i ScriptObjectBoids.obj
 0001:00048650       ?_M_insert_overflow@?$vector@P8CScriptObjectInput@@AEHPAUIFunctionHandler@@@ZV?$allocator@P8CScriptObjectInput@@AEHPAUIFunctionHandler@@@Z@_STL@@@_STL@@IAEXPAP8CScriptObjectInput@@AEHPAUIFunctionHandler@@@ZABQ83@AEH0@ZABU__false_type@2@I_N@Z 33049650 f i ScriptObjectInput.obj
 0001:0004873d       ?push_back@?$vector@P8CScriptObjectInput@@AEHPAUIFunctionHandler@@@ZV?$allocator@P8CScriptObjectInput@@AEHPAUIFunctionHandler@@@Z@_STL@@@_STL@@QAEXABQ8CScriptObjectInput@@AEHPAUIFunctionHandler@@@Z@Z 3304973d f i ScriptObjectInput.obj
 0001:0004876e       ?RegisterFunction@?$_ScriptableEx@VCScriptObjectInput@@@@SAXPAUIScriptSystem@@PBDP8CScriptObjectInput@@AEHPAUIFunctionHandler@@@Z@Z 3304976e f i ScriptObjectInput.obj
 0001:000487be       ?AddString@CScriptObjectLanguage@@QAEXPBDH@Z 330497be f   ScriptObjectLanguage.obj
 0001:000487c6       ?GetStringID@CScriptObjectLanguage@@QAEHPBD@Z 330497c6 f   ScriptObjectLanguage.obj
 0001:000487e8       ??0CScriptObjectLanguage@@QAE@XZ 330497e8 f   ScriptObjectLanguage.obj
 0001:000487fc       ??1CScriptObjectLanguage@@UAE@XZ 330497fc f   ScriptObjectLanguage.obj
 0001:00048807       ?Init@CScriptObjectLanguage@@QAEXPAUIScriptSystem@@PAVCStringTableMgr@@@Z 33049807 f   ScriptObjectLanguage.obj
 0001:00048824       ?GetEnglish@CScriptObjectLanguage@@QAEHPAUIFunctionHandler@@@Z 33049824 f   ScriptObjectLanguage.obj
 0001:0004894b       ?LoadStringTable@CScriptObjectLanguage@@QAEHPAUIFunctionHandler@@@Z 3304994b f   ScriptObjectLanguage.obj
 0001:000489c2       ?InitializeTemplate@CScriptObjectLanguage@@SAXPAUIScriptSystem@@@Z 330499c2 f   ScriptObjectLanguage.obj
 0001:000489f2       ??1?$_ScriptableEx@VCScriptObjectLanguage@@@@UAE@XZ 330499f2 f i ScriptObjectLanguage.obj
 0001:00048a29       ??_G?$_ScriptableEx@VCScriptObjectLanguage@@@@UAEPAXI@Z 33049a29 f i ScriptObjectLanguage.obj
 0001:00048a29       ??_E?$_ScriptableEx@VCScriptObjectLanguage@@@@UAEPAXI@Z 33049a29 f i ScriptObjectLanguage.obj
 0001:00048a45       ?fill@_STL@@YAXPAD0ABD@Z   33049a45 f i ScriptObjectLanguage.obj
 0001:00048a75       ?InitGlobal@?$_ScriptableEx@VCScriptObjectLanguage@@@@QAEXPAUIScriptSystem@@PBDPAVCScriptObjectLanguage@@@Z 33049a75 f i ScriptObjectLanguage.obj
 0001:00048aec       ??$fill_n@I@_STL@@YAPADPADIABD@Z 33049aec f i ScriptObjectLanguage.obj
 0001:00048b0a       ??_ECScriptObjectLanguage@@UAEPAXI@Z 33049b0a f i ScriptObjectLanguage.obj
 0001:00048b0a       ??_GCScriptObjectLanguage@@UAEPAXI@Z 33049b0a f i ScriptObjectLanguage.obj
 0001:00048b26       ?FuncThunk@?$_ScriptableEx@VCScriptObjectLanguage@@@@KAHPAX@Z 33049b26 f i ScriptObjectLanguage.obj
 0001:00048b88       ??1?$_Vector_base@DV?$allocator@D@_STL@@@_STL@@QAE@XZ 33049b88 f i ScriptObjectLanguage.obj
 0001:00048b9d       ?_M_deallocate_block@?$_String_base@DV?$allocator@D@_STL@@@_STL@@QAEXXZ 33049b9d f i IngameDialog.obj
 0001:00048b9d       ?_M_clear@?$vector@DV?$allocator@D@_STL@@@_STL@@IAEXXZ 33049b9d f i ScriptObjectLanguage.obj
 0001:00048bb0       ??1?$vector@DV?$allocator@D@_STL@@@_STL@@QAE@XZ 33049bb0 f i ScriptObjectLanguage.obj
 0001:00048bb5       ?_M_insert_overflow@?$vector@P8CScriptObjectLanguage@@AEHPAUIFunctionHandler@@@ZV?$allocator@P8CScriptObjectLanguage@@AEHPAUIFunctionHandler@@@Z@_STL@@@_STL@@IAEXPAP8CScriptObjectLanguage@@AEHPAUIFunctionHandler@@@ZABQ83@AEH0@ZABU__false_type@2@I_N@Z 33049bb5 f i ScriptObjectLanguage.obj
 0001:00048ca2       ?_M_insert_overflow@?$vector@DV?$allocator@D@_STL@@@_STL@@IAEXPADABDABU__true_type@2@I_N@Z 33049ca2 f i ScriptObjectLanguage.obj
 0001:00048d21       ?push_back@?$vector@P8CScriptObjectLanguage@@AEHPAUIFunctionHandler@@@ZV?$allocator@P8CScriptObjectLanguage@@AEHPAUIFunctionHandler@@@Z@_STL@@@_STL@@QAEXABQ8CScriptObjectLanguage@@AEHPAUIFunctionHandler@@@Z@Z 33049d21 f i ScriptObjectLanguage.obj
 0001:00048d52       ?_M_fill_insert@?$vector@DV?$allocator@D@_STL@@@_STL@@QAEXPADIABD@Z 33049d52 f i ScriptObjectLanguage.obj
 0001:00048e05       ?RegisterFunction@?$_ScriptableEx@VCScriptObjectLanguage@@@@SAXPAUIScriptSystem@@PBDP8CScriptObjectLanguage@@AEHPAUIFunctionHandler@@@Z@Z 33049e05 f i ScriptObjectLanguage.obj
 0001:00048e55       ?resize@?$vector@DV?$allocator@D@_STL@@@_STL@@QAEXID@Z 33049e55 f i ScriptObjectLanguage.obj
 0001:00048e8b       ?SetAngleLimitBase@CPlayer@@QAEXXZ 33049e8b f i ScriptObjectPlayer.obj
 0001:00048e8b       ?SetAngleLimitBaseOnCamera@CPlayer@@QAEXXZ 33049e8b f i ScriptObjectPlayer.obj
 0001:00048ea7       ?SetShake@CPlayer@@QAEXABU?$Vec3_tpl@M@@MMM@Z 33049ea7 f i ScriptObjectPlayer.obj
 0001:00048ee9       ?SetShakeL2@CPlayer@@QAEXABU?$Vec3_tpl@M@@0M@Z 33049ee9 f i ScriptObjectPlayer.obj
 0001:00048f41       ?IsSwimming@CPlayer@@QAE_NXZ 33049f41 f i ScriptObjectPlayer.obj
 0001:00048f60       ?SetMemberVector@CScriptObjectPlayer@@AAEXW4SOP_MEMBER_LUA_TABLES@@ABU?$Vec3_tpl@M@@@Z 33049f60 f   ScriptObjectPlayer.obj
 0001:00048fc8       ?IsSwimming@CScriptObjectPlayer@@QAEHPAUIFunctionHandler@@@Z 33049fc8 f   ScriptObjectPlayer.obj
 0001:00048fe6       ?SelectFirstWeapon@CScriptObjectPlayer@@QAEHPAUIFunctionHandler@@@Z 33049fe6 f   ScriptObjectPlayer.obj
 0001:0004903b       ?DrawThirdPersonWeapon@CScriptObjectPlayer@@QAEHPAUIFunctionHandler@@@Z 3304a03b f   ScriptObjectPlayer.obj
 0001:0004906a       ?MakeWeaponAvailable@CScriptObjectPlayer@@QAEHPAUIFunctionHandler@@@Z 3304a06a f   ScriptObjectPlayer.obj
 0001:000490cc       ?CalculateAccuracyFactor@CScriptObjectPlayer@@QAEHPAUIFunctionHandler@@@Z 3304a0cc f   ScriptObjectPlayer.obj
 0001:0004914f       ?WaitForFireRelease@CScriptObjectPlayer@@QAEHPAUIFunctionHandler@@@Z 3304a14f f   ScriptObjectPlayer.obj
 0001:0004919e       ?GetCurrWeapon@CScriptObjectPlayer@@QAEHPAUIFunctionHandler@@@Z 3304a19e f   ScriptObjectPlayer.obj
 0001:00049202       ?SetSwayAmp@CScriptObjectPlayer@@QAEHPAUIFunctionHandler@@@Z 3304a202 f   ScriptObjectPlayer.obj
 0001:0004926c       ?SetSwayFreq@CScriptObjectPlayer@@QAEHPAUIFunctionHandler@@@Z 3304a26c f   ScriptObjectPlayer.obj
 0001:000492d6       ?GetPlayer@CScriptObjectPlayer@@QAEPAVCPlayer@@XZ 3304a2d6 f   ScriptObjectPlayer.obj
 0001:000492da       ?SetGravity@CScriptObjectPlayer@@QAEHPAUIFunctionHandler@@@Z 3304a2da f   ScriptObjectPlayer.obj
 0001:00049344       ?SetAngleLimit@CScriptObjectPlayer@@QAEHPAUIFunctionHandler@@@Z 3304a344 f   ScriptObjectPlayer.obj
 0001:00049418       ?SetAngleLimitH@CScriptObjectPlayer@@QAEHPAUIFunctionHandler@@@Z 3304a418 f   ScriptObjectPlayer.obj
 0001:000494bd       ?SetAngleLimitV@CScriptObjectPlayer@@QAEHPAUIFunctionHandler@@@Z 3304a4bd f   ScriptObjectPlayer.obj
 0001:00049562       ?GetAngleLimitH@CScriptObjectPlayer@@QAEHPAUIFunctionHandler@@@Z 3304a562 f   ScriptObjectPlayer.obj
 0001:000495c8       ?GetAngleLimitV@CScriptObjectPlayer@@QAEHPAUIFunctionHandler@@@Z 3304a5c8 f   ScriptObjectPlayer.obj
 0001:00049625       ?SetMinAngleLimitV@CScriptObjectPlayer@@QAEHPAUIFunctionHandler@@@Z 3304a625 f   ScriptObjectPlayer.obj
 0001:0004968f       ?SetMaxAngleLimitV@CScriptObjectPlayer@@QAEHPAUIFunctionHandler@@@Z 3304a68f f   ScriptObjectPlayer.obj
 0001:000496f9       ?EnableAngleLimitV@CScriptObjectPlayer@@QAEHPAUIFunctionHandler@@@Z 3304a6f9 f   ScriptObjectPlayer.obj
 0001:00049763       ?SetMinAngleLimitH@CScriptObjectPlayer@@QAEHPAUIFunctionHandler@@@Z 3304a763 f   ScriptObjectPlayer.obj
 0001:000497cd       ?SetMaxAngleLimitH@CScriptObjectPlayer@@QAEHPAUIFunctionHandler@@@Z 3304a7cd f   ScriptObjectPlayer.obj
 0001:00049837       ?EnableAngleLimitH@CScriptObjectPlayer@@QAEHPAUIFunctionHandler@@@Z 3304a837 f   ScriptObjectPlayer.obj
 0001:000498a1       ?SetName@CScriptObjectPlayer@@QAEHPAUIFunctionHandler@@@Z 3304a8a1 f   ScriptObjectPlayer.obj
 0001:00049914       ?GetName@CScriptObjectPlayer@@QAEHPAUIFunctionHandler@@@Z 3304a914 f   ScriptObjectPlayer.obj
 0001:0004996d       ?InitWeapons@CScriptObjectPlayer@@QAEHPAUIFunctionHandler@@@Z 3304a96d f   ScriptObjectPlayer.obj
 0001:00049981       ?GetCurrWeaponId@CScriptObjectPlayer@@QAEHPAUIFunctionHandler@@@Z 3304a981 f   ScriptObjectPlayer.obj
 0001:000499d6       ?DeselectWeapon@CScriptObjectPlayer@@QAEHPAUIFunctionHandler@@@Z 3304a9d6 f   ScriptObjectPlayer.obj
 0001:00049a3a       ?GetBoneHitZone@CScriptObjectPlayer@@QAEHPAUIFunctionHandler@@@Z 3304aa3a f   ScriptObjectPlayer.obj
 0001:00049aa4       ?GetArmDamage@CScriptObjectPlayer@@QAEHPAUIFunctionHandler@@@Z 3304aaa4 f   ScriptObjectPlayer.obj
 0001:00049afa       ?GetLegDamage@CScriptObjectPlayer@@QAEHPAUIFunctionHandler@@@Z 3304aafa f   ScriptObjectPlayer.obj
 0001:00049b50       ?HasCollided@CScriptObjectPlayer@@QAEHPAUIFunctionHandler@@@Z 3304ab50 f   ScriptObjectPlayer.obj
 0001:00049ba6       ?StartFire@CScriptObjectPlayer@@QAEHPAUIFunctionHandler@@@Z 3304aba6 f   ScriptObjectPlayer.obj
 0001:00049bba       ?GetCurVehicle@CScriptObjectPlayer@@QAEHPAUIFunctionHandler@@@Z 3304abba f   ScriptObjectPlayer.obj
 0001:00049c29       ?SetAnimationRefSpeedRun@CScriptObjectPlayer@@QAEHPAUIFunctionHandler@@@Z 3304ac29 f   ScriptObjectPlayer.obj
 0001:00049cc2       ?SetAnimationRefSpeedWalk@CScriptObjectPlayer@@QAEHPAUIFunctionHandler@@@Z 3304acc2 f   ScriptObjectPlayer.obj
 0001:00049d5b       ?SetAnimationRefSpeedWalkRelaxed@CScriptObjectPlayer@@QAEHPAUIFunctionHandler@@@Z 3304ad5b f   ScriptObjectPlayer.obj
 0001:00049df4       ?SetAnimationRefSpeedXWalk@CScriptObjectPlayer@@QAEHPAUIFunctionHandler@@@Z 3304adf4 f   ScriptObjectPlayer.obj
 0001:00049e8d       ?SetAnimationRefSpeedXRun@CScriptObjectPlayer@@QAEHPAUIFunctionHandler@@@Z 3304ae8d f   ScriptObjectPlayer.obj
 0001:00049f35       ?SetAnimationRefSpeedCrouch@CScriptObjectPlayer@@QAEHPAUIFunctionHandler@@@Z 3304af35 f   ScriptObjectPlayer.obj
 0001:00049fce       ?SelectNextWeapon@CScriptObjectPlayer@@QAEHPAUIFunctionHandler@@@Z 3304afce f   ScriptObjectPlayer.obj
 0001:00049fe2       ?SetHeatVisionValues@CScriptObjectPlayer@@QAEHPAUIFunctionHandler@@@Z 3304afe2 f   ScriptObjectPlayer.obj
 0001:0004a087       ?HolsterGun@CScriptObjectPlayer@@QAEHPAUIFunctionHandler@@@Z 3304b087 f   ScriptObjectPlayer.obj
 0001:0004a09b       ?HoldGun@CScriptObjectPlayer@@QAEHPAUIFunctionHandler@@@Z 3304b09b f   ScriptObjectPlayer.obj
 0001:0004a0af       ?SetBlendTime@CScriptObjectPlayer@@QAEHPAUIFunctionHandler@@@Z 3304b0af f   ScriptObjectPlayer.obj
 0001:0004a12d       ?SwitchFlashLight@CScriptObjectPlayer@@QAEHPAUIFunctionHandler@@@Z 3304b12d f   ScriptObjectPlayer.obj
 0001:0004a19b       ?GiveFlashLight@CScriptObjectPlayer@@QAEHPAUIFunctionHandler@@@Z 3304b19b f   ScriptObjectPlayer.obj
 0001:0004a209       ?GiveBinoculars@CScriptObjectPlayer@@QAEHPAUIFunctionHandler@@@Z 3304b209 f   ScriptObjectPlayer.obj
 0001:0004a277       ?InitDynamicLight@CScriptObjectPlayer@@QAEHPAUIFunctionHandler@@@Z 3304b277 f   ScriptObjectPlayer.obj
 0001:0004a2d7       ?GetIEntityRender@CScriptObjectPlayer@@QAEPAUIEntityRender@@ABUpe_params_foreign_data@@@Z 3304b2d7 f   ScriptObjectPlayer.obj
 0001:0004a2ef       ?GetCrosshairState@CScriptObjectPlayer@@QAEHPAUIFunctionHandler@@@Z 3304b2ef f   ScriptObjectPlayer.obj
 0001:0004a35c       ?SetSmoothInput@CScriptObjectPlayer@@QAEHPAUIFunctionHandler@@@Z 3304b35c f   ScriptObjectPlayer.obj
 0001:0004a411       ??1CScriptObjectPlayer@@UAE@XZ 3304b411 f   ScriptObjectPlayer.obj
 0001:0004a483       ?GetWeaponInfo@CScriptObjectPlayer@@QAEHPAUIFunctionHandler@@@Z 3304b483 f   ScriptObjectPlayer.obj
 0001:0004a55a       ?GetWeaponsSlots@CScriptObjectPlayer@@QAEHPAUIFunctionHandler@@@Z 3304b55a f   ScriptObjectPlayer.obj
 0001:0004a5d3       ?SetCurrWeapon@CScriptObjectPlayer@@QAEHPAUIFunctionHandler@@@Z 3304b5d3 f   ScriptObjectPlayer.obj
 0001:0004a6a7       ?ShakeCamera@CScriptObjectPlayer@@QAEHPAUIFunctionHandler@@@Z 3304b6a7 f   ScriptObjectPlayer.obj
 0001:0004a7bf       ?SetCameraOffset@CScriptObjectPlayer@@QAEHPAUIFunctionHandler@@@Z 3304b7bf f   ScriptObjectPlayer.obj
 0001:0004a88d       ?GetCameraOffset@CScriptObjectPlayer@@QAEHPAUIFunctionHandler@@@Z 3304b88d f   ScriptObjectPlayer.obj
 0001:0004a8fd       ?GetColor@CScriptObjectPlayer@@QAEHPAUIFunctionHandler@@@Z 3304b8fd f   ScriptObjectPlayer.obj
 0001:0004a971       ?RedirectInputTo@CScriptObjectPlayer@@QAEHPAUIFunctionHandler@@@Z 3304b971 f   ScriptObjectPlayer.obj
 0001:0004a9f8       ?StartDie@CScriptObjectPlayer@@QAEHPAUIFunctionHandler@@@Z 3304b9f8 f   ScriptObjectPlayer.obj
 0001:0004ab75       ?SetMoveParams@CScriptObjectPlayer@@QAEHPAUIFunctionHandler@@@Z 3304bb75 f   ScriptObjectPlayer.obj
 0001:0004af60       ?SetDynamicsProperties@CScriptObjectPlayer@@QAEHPAUIFunctionHandler@@@Z 3304bf60 f   ScriptObjectPlayer.obj
 0001:0004b184       ?ShakeCameraL@CScriptObjectPlayer@@QAEHPAUIFunctionHandler@@@Z 3304c184 f   ScriptObjectPlayer.obj
 0001:0004b272       ?SetAISpeedMult@CScriptObjectPlayer@@QAEHPAUIFunctionHandler@@@Z 3304c272 f   ScriptObjectPlayer.obj
 0001:0004b3f2       ?InitStaminaTable@CScriptObjectPlayer@@QAEHPAUIFunctionHandler@@@Z 3304c3f2 f   ScriptObjectPlayer.obj
 0001:0004b54f       ?ResetCamera@CScriptObjectPlayer@@QAEHPAUIFunctionHandler@@@Z 3304c54f f   ScriptObjectPlayer.obj
 0001:0004b613       ??0CScriptObjectPlayer@@QAE@XZ 3304c613 f   ScriptObjectPlayer.obj
 0001:0004b656       ?Create@CScriptObjectPlayer@@QAE_NPAUIScriptSystem@@@Z 3304c656 f   ScriptObjectPlayer.obj
 0001:0004b696       ?SetAngleLimitBase@CScriptObjectPlayer@@QAEHPAUIFunctionHandler@@@Z 3304c696 f   ScriptObjectPlayer.obj
 0001:0004b71f       ?CalcDmgShakeAxis@CScriptObjectPlayer@@QAEHPAUIFunctionHandler@@@Z 3304c71f f   ScriptObjectPlayer.obj
 0001:0004b8ff       ?SetDimOverride@CScriptObjectPlayer@@QAEHPAUIFunctionHandler@@@Z 3304c8ff f   ScriptObjectPlayer.obj
 0001:0004ba31       ?SetDimNormal@CScriptObjectPlayer@@QAEHPAUIFunctionHandler@@@Z 3304ca31 f   ScriptObjectPlayer.obj
 0001:0004bb55       ?SetDimCrouch@CScriptObjectPlayer@@QAEHPAUIFunctionHandler@@@Z 3304cb55 f   ScriptObjectPlayer.obj
 0001:0004bc79       ?SetDimProne@CScriptObjectPlayer@@QAEHPAUIFunctionHandler@@@Z 3304cc79 f   ScriptObjectPlayer.obj
 0001:0004bd9d       ?GetTreadedOnMaterial@CScriptObjectPlayer@@QAEHPAUIFunctionHandler@@@Z 3304cd9d f   ScriptObjectPlayer.obj
 0001:0004be85       ?GetTouchedMaterial@CScriptObjectPlayer@@QAEHPAUIFunctionHandler@@@Z 3304ce85 f   ScriptObjectPlayer.obj
 0001:0004c031       ?GetHelperPos@CScriptObjectPlayer@@QAEHPAUIFunctionHandler@@@Z 3304d031 f   ScriptObjectPlayer.obj
 0001:0004c284       ?GetCharacterAngles@CScriptObjectPlayer@@QAEHPAUIFunctionHandler@@@Z 3304d284 f   ScriptObjectPlayer.obj
 0001:0004c31d       ?PlaySoundA@CScriptObjectPlayer@@QAEHPAUIFunctionHandler@@@Z 3304d31d f   ScriptObjectPlayer.obj
 0001:0004c43e       ?GetFirePosAngles@CScriptObjectPlayer@@QAEHPAUIFunctionHandler@@@Z 3304d43e f   ScriptObjectPlayer.obj
 0001:0004c592       ?UseLadder@CScriptObjectPlayer@@QAEHPAUIFunctionHandler@@@Z 3304d592 f   ScriptObjectPlayer.obj
 0001:0004c7f5       ?ResetRotateHead@CScriptObjectPlayer@@QAEHPAUIFunctionHandler@@@Z 3304d7f5 f   ScriptObjectPlayer.obj
 0001:0004c858       ?CanStand@CScriptObjectPlayer@@QAEHPAUIFunctionHandler@@@Z 3304d858 f   ScriptObjectPlayer.obj
 0001:0004c919       ?GetViewIntersection@CScriptObjectPlayer@@QAEHPAUIFunctionHandler@@@Z 3304d919 f   ScriptObjectPlayer.obj
 0001:0004cea0       ?GetTPVHelper@CScriptObjectPlayer@@QAEHPAUIFunctionHandler@@@Z 3304dea0 f   ScriptObjectPlayer.obj
 0001:0004d55b       ?GetBlindScreenPos@CScriptObjectPlayer@@QAEHPAUIFunctionHandler@@@Z 3304e55b f   ScriptObjectPlayer.obj
 0001:0004d657       ?GetProjectedBloodPos@CScriptObjectPlayer@@QAEHPAUIFunctionHandler@@@Z 3304e657 f   ScriptObjectPlayer.obj
 0001:0004dd19       ?ReleaseTemplate@CScriptObjectPlayer@@SAXXZ 3304ed19 f   ScriptObjectPlayer.obj
 0001:0004ddbc       ?CounterAdd@CScriptObjectPlayer@@QAEHPAUIFunctionHandler@@@Z 3304edbc f   ScriptObjectPlayer.obj
 0001:0004de4c       ?CounterIncrement@CScriptObjectPlayer@@QAEHPAUIFunctionHandler@@@Z 3304ee4c f   ScriptObjectPlayer.obj
 0001:0004dedc       ?CounterGetValue@CScriptObjectPlayer@@QAEHPAUIFunctionHandler@@@Z 3304eedc f   ScriptObjectPlayer.obj
 0001:0004df5b       ?CounterSetValue@CScriptObjectPlayer@@QAEHPAUIFunctionHandler@@@Z 3304ef5b f   ScriptObjectPlayer.obj
 0001:0004dfeb       ?CounterSetEvent@CScriptObjectPlayer@@QAEHPAUIFunctionHandler@@@Z 3304efeb f   ScriptObjectPlayer.obj
 0001:0004e0b6       ?LoadPlayerElements@CScriptObjectPlayer@@QAEHPAUIFunctionHandler@@@Z 3304f0b6 f   ScriptObjectPlayer.obj
 0001:0004e54b       ?SetPlayer@CScriptObjectPlayer@@QAEXPAVCPlayer@@@Z 3304f54b f   ScriptObjectPlayer.obj
 0001:0004e56a       ?SavePlayerElements@CScriptObjectPlayer@@QAEHPAUIFunctionHandler@@@Z 3304f56a f   ScriptObjectPlayer.obj
 0001:0004ea1f       ?InitializeTemplate@CScriptObjectPlayer@@SAXPAUIScriptSystem@@@Z 3304fa1f f   ScriptObjectPlayer.obj
 0001:0004f53b       ??1?$_ScriptableEx@VCScriptObjectPlayer@@@@UAE@XZ 3305053b f i ScriptObjectPlayer.obj
 0001:0004f572       ??_E?$_ScriptableEx@VCScriptObjectPlayer@@@@UAEPAXI@Z 33050572 f i ScriptObjectPlayer.obj
 0001:0004f572       ??_G?$_ScriptableEx@VCScriptObjectPlayer@@@@UAEPAXI@Z 33050572 f i ScriptObjectPlayer.obj
 0001:0004f58e       ?_M_decrement@?$_Rb_global@_N@_STL@@SAPAU_Rb_tree_node_base@2@PAU32@@Z 3305058e f i ScriptObjectPlayer.obj
 0001:0004f5c7       ??0pe_player_dynamics@@QAE@XZ 330505c7 f i ScriptObjectPlayer.obj
 0001:0004f607       ??0StaminaTable@@QAE@XZ    33050607 f i ScriptObjectPlayer.obj
 0001:0004f665       ??0coll_history_item@@QAE@XZ 33050665 f i ScriptObjectPlayer.obj
 0001:0004f67e       ?Init@?$_ScriptableEx@VCScriptObjectPlayer@@@@QAEXPAUIScriptSystem@@PAVCScriptObjectPlayer@@@Z 3305067e f i ScriptObjectPlayer.obj
 0001:0004f6ea       ?GetThunk@?$_ScriptableEx@VCScriptObjectPlayer@@@@KAHPAX@Z 330506ea f i ScriptObjectPlayer.obj
 0001:0004f7d3       ?_M_compare@?$basic_string@DU?$char_traits@D@std@@V?$allocator@D@_STL@@@_STL@@SAHPBD000@Z 330507d3 f i ScriptObjectPlayer.obj
 0001:0004f81e       ?_Rebalance@?$_Rb_global@_N@_STL@@SAXPAU_Rb_tree_node_base@2@AAPAU32@@Z 3305081e f i ScriptObjectPlayer.obj
 0001:0004f8dc       ??$_Construct@U?$pair@$$CBHUWeaponInfo@@@_STL@@U12@@_STL@@YAXPAU?$pair@$$CBHUWeaponInfo@@@0@ABU10@@Z 330508dc f i ScriptObjectPlayer.obj
 0001:0004f8fc       ??0pe_status_pos@@QAE@XZ   330508fc f i ScriptObjectPlayer.obj
 0001:0004f950       ??_ECScriptObjectPlayer@@UAEPAXI@Z 33050950 f i ScriptObjectPlayer.obj
 0001:0004f950       ??_GCScriptObjectPlayer@@UAEPAXI@Z 33050950 f i ScriptObjectPlayer.obj
 0001:0004f96c       ?FuncThunk@?$_ScriptableEx@VCScriptObjectPlayer@@@@KAHPAX@Z 3305096c f i ScriptObjectPlayer.obj
 0001:0004f9d5       ?deallocate@?$allocator@U?$_Rb_tree_node@G@_STL@@@_STL@@QAEXPAU?$_Rb_tree_node@G@2@I@Z 330509d5 f i XSystemBase.obj
 0001:0004f9d5       ?deallocate@?$allocator@U?$_Rb_tree_node@H@_STL@@@_STL@@QAEXPAU?$_Rb_tree_node@H@2@I@Z 330509d5 f i ScriptObjectGame.obj
 0001:0004f9d5       ?deallocate@?$allocator@VCIPAddress@@@_STL@@QAEXPAVCIPAddress@@I@Z 330509d5 f i ScriptObjectGame.obj
 0001:0004f9d5       ?deallocate@?$allocator@U?$_List_node@V?$basic_string@DU?$char_traits@D@std@@V?$allocator@D@_STL@@@_STL@@@_STL@@@_STL@@QAEXPAU?$_List_node@V?$basic_string@DU?$char_traits@D@std@@V?$allocator@D@_STL@@@_STL@@@2@I@Z 330509d5 f i ScriptObjectPlayer.obj
 0001:0004f9f5       ??$?9DU?$char_traits@D@std@@V?$allocator@D@_STL@@@_STL@@YA_NABV?$basic_string@DU?$char_traits@D@std@@V?$allocator@D@_STL@@@0@0@Z 330509f5 f i ScriptObjectPlayer.obj
 0001:0004fa0a       ??$?MDU?$char_traits@D@std@@V?$allocator@D@_STL@@@_STL@@YA_NABV?$basic_string@DU?$char_traits@D@std@@V?$allocator@D@_STL@@@0@0@Z 33050a0a f i ScriptObjectPlayer.obj
 0001:0004fa34       ?deallocate@?$allocator@U?$_Rb_tree_node@U?$pair@$$CBHUtWeaponPersistentData@@@_STL@@@_STL@@@_STL@@QAEXPAU?$_Rb_tree_node@U?$pair@$$CBHUtWeaponPersistentData@@@_STL@@@2@I@Z 33050a34 f i ScriptObjectPlayer.obj
 0001:0004fa54       ?deallocate@?$allocator@U?$_Rb_tree_node@U?$pair@$$CBHUWeaponInfo@@@_STL@@@_STL@@@_STL@@QAEXPAU?$_Rb_tree_node@U?$pair@$$CBHUWeaponInfo@@@_STL@@@2@I@Z 33050a54 f i ScriptObjectPlayer.obj
 0001:0004fa54       ?deallocate@?$allocator@U?$_Rb_tree_node@U?$pair@$$CBHUTeam@@@_STL@@@_STL@@@_STL@@QAEXPAU?$_Rb_tree_node@U?$pair@$$CBHUTeam@@@_STL@@@2@I@Z 33050a54 f i XSystemBase.obj
 0001:0004fa71       ??0?$_Vector_base@HV?$allocator@H@_STL@@@_STL@@QAE@IABV?$allocator@H@1@@Z 33050a71 f i ScriptObjectPlayer.obj
 0001:0004fab6       ??$_M_allocate_and_copy@PBH@?$vector@HV?$allocator@H@_STL@@@_STL@@IAEPAHIPBH0@Z 33050ab6 f i ScriptObjectPlayer.obj
 0001:0004fab6       ??$_M_allocate_and_copy@PAPAVCUIWidget@@@?$vector@PAVCUIWidget@@V?$allocator@PAVCUIWidget@@@_STL@@@_STL@@IAEPAPAVCUIWidget@@IPAPAV2@0@Z 33050ab6 f i UISystem.obj
 0001:0004fab6       ??$_M_allocate_and_copy@PBK@?$vector@KV?$allocator@K@_STL@@@_STL@@IAEPAKIPBK0@Z 33050ab6 f i XNetworkStats.obj
 0001:0004fab6       ??$_M_allocate_and_copy@PAPAVCUIScreen@@@?$vector@PAVCUIScreen@@V?$allocator@PAVCUIScreen@@@_STL@@@_STL@@IAEPAPAVCUIScreen@@IPAPAV2@0@Z 33050ab6 f i UISystem.obj
 0001:0004fae6       ??0?$vector@HV?$allocator@H@_STL@@@_STL@@QAE@ABV01@@Z 33050ae6 f i ScriptObjectPlayer.obj
 0001:0004fb29       ?_M_clear@?$vector@P8CUIVideoPanel@@AEHPAUIFunctionHandler@@@ZV?$allocator@P8CUIVideoPanel@@AEHPAUIFunctionHandler@@@Z@_STL@@@_STL@@IAEXXZ 33050b29 f i UIVideoPanel.obj
 0001:0004fb29       ?_M_clear@?$vector@P8CScriptObjectWeaponClass@@AEHPAUIFunctionHandler@@@ZV?$allocator@P8CScriptObjectWeaponClass@@AEHPAUIFunctionHandler@@@Z@_STL@@@_STL@@IAEXXZ 33050b29 f i ScriptObjectWeaponClass.obj
 0001:0004fb29       ?_M_clear@?$vector@P8CUIButton@@AEHPAUIFunctionHandler@@@ZV?$allocator@P8CUIButton@@AEHPAUIFunctionHandler@@@Z@_STL@@@_STL@@IAEXXZ 33050b29 f i UIButton.obj
 0001:0004fb29       ?_M_clear@?$vector@P8CScriptObjectSpectator@@AEHPAUIFunctionHandler@@@ZV?$allocator@P8CScriptObjectSpectator@@AEHPAUIFunctionHandler@@@Z@_STL@@@_STL@@IAEXXZ 33050b29 f i ScriptObjectSpectator.obj
 0001:0004fb29       ?_M_clear@?$vector@P8CUIScrollBar@@AEHPAUIFunctionHandler@@@ZV?$allocator@P8CUIScrollBar@@AEHPAUIFunctionHandler@@@Z@_STL@@@_STL@@IAEXXZ 33050b29 f i UIScrollBar.obj
 0001:0004fb29       ?_M_clear@?$vector@P8CUIComboBox@@AEHPAUIFunctionHandler@@@ZV?$allocator@P8CUIComboBox@@AEHPAUIFunctionHandler@@@Z@_STL@@@_STL@@IAEXXZ 33050b29 f i UIComboBox.obj
 0001:0004fb29       ?_M_clear@?$vector@P8CUIEditBox@@AEHPAUIFunctionHandler@@@ZV?$allocator@P8CUIEditBox@@AEHPAUIFunctionHandler@@@Z@_STL@@@_STL@@IAEXXZ 33050b29 f i UIEditBox.obj
 0001:0004fb29       ?_M_clear@?$vector@P8CUICheckBox@@AEHPAUIFunctionHandler@@@ZV?$allocator@P8CUICheckBox@@AEHPAUIFunctionHandler@@@Z@_STL@@@_STL@@IAEXXZ 33050b29 f i UICheckBox.obj
 0001:0004fb29       ?_M_clear@?$vector@P8CScriptObjectSynched2DTable@@AEHPAUIFunctionHandler@@@ZV?$allocator@P8CScriptObjectSynched2DTable@@AEHPAUIFunctionHandler@@@Z@_STL@@@_STL@@IAEXXZ 33050b29 f i ScriptObjectSynched2DTable.obj
 0001:0004fb29       ?_M_clear@?$vector@P8CUIListView@@AEHPAUIFunctionHandler@@@ZV?$allocator@P8CUIListView@@AEHPAUIFunctionHandler@@@Z@_STL@@@_STL@@IAEXXZ 33050b29 f i UIListView.obj
 0001:0004fb29       ?_M_clear@?$vector@P8CUIStatic@@AEHPAUIFunctionHandler@@@ZV?$allocator@P8CUIStatic@@AEHPAUIFunctionHandler@@@Z@_STL@@@_STL@@IAEXXZ 33050b29 f i UIStatic.obj
 0001:0004fb29       ?_M_clear@?$vector@P8CScriptObjectPlayer@@AEHPAUIFunctionHandler@@@ZV?$allocator@P8CScriptObjectPlayer@@AEHPAUIFunctionHandler@@@Z@_STL@@@_STL@@IAEXXZ 33050b29 f i ScriptObjectPlayer.obj
 0001:0004fb29       ?_M_clear@?$vector@P8CScriptObjectVehicle@@AEHPAUIFunctionHandler@@@ZV?$allocator@P8CScriptObjectVehicle@@AEHPAUIFunctionHandler@@@Z@_STL@@@_STL@@IAEXXZ 33050b29 f i ScriptObjectVehicle.obj
 0001:0004fb29       ?_M_clear@?$vector@P8CScriptObjectAdvCamSystem@@AEHPAUIFunctionHandler@@@ZV?$allocator@P8CScriptObjectAdvCamSystem@@AEHPAUIFunctionHandler@@@Z@_STL@@@_STL@@IAEXXZ 33050b29 f i ScriptObjectAdvCamSystem.obj
 0001:0004fb3d       ??4?$vector@HV?$allocator@H@_STL@@@_STL@@QAEAAV01@ABV01@@Z 33050b3d f i ScriptObjectPlayer.obj
 0001:0004fb3d       ??4?$vector@KV?$allocator@K@_STL@@@_STL@@QAEAAV01@ABV01@@Z 33050b3d f i XNetworkStats.obj
 0001:0004fbda       ?_M_create_node@?$_Rb_tree@HU?$pair@$$CBHUWeaponInfo@@@_STL@@U?$_Select1st@U?$pair@$$CBHUWeaponInfo@@@_STL@@@2@U?$less@H@2@V?$allocator@U?$pair@$$CBHUWeaponInfo@@@_STL@@@2@@_STL@@IAEPAU?$_Rb_tree_node@U?$pair@$$CBHUWeaponInfo@@@_STL@@@2@ABU?$pair@$$CBHUWeaponInfo@@@2@@Z 33050bda f i ScriptObjectPlayer.obj
 0001:0004fbfa       ??4tWeaponPersistentData@@QAEAAU0@ABU0@@Z 33050bfa f i ScriptObjectPlayer.obj
 0001:0004fc17       ?AllowPropertiesMapping@?$_ScriptableEx@VCScriptObjectPlayer@@@@SAXPAUIScriptSystem@@@Z 33050c17 f i ScriptObjectPlayer.obj
 0001:0004fc5d       ??1?$pair@$$CBHUtWeaponPersistentData@@@_STL@@QAE@XZ 33050c5d f i ScriptObjectPlayer.obj
 0001:0004fc65       ??0tWeaponPersistentData@@QAE@ABU0@@Z 33050c65 f i ScriptObjectPlayer.obj
 0001:0004fc82       ?_M_insert_overflow@?$vector@P8CScriptObjectPlayer@@AEHPAUIFunctionHandler@@@ZV?$allocator@P8CScriptObjectPlayer@@AEHPAUIFunctionHandler@@@Z@_STL@@@_STL@@IAEXPAP8CScriptObjectPlayer@@AEHPAUIFunctionHandler@@@ZABQ83@AEH0@ZABU__false_type@2@I_N@Z 33050c82 f i ScriptObjectPlayer.obj
 0001:0004fd6f       ?_M_insert@?$_Rb_tree@HU?$pair@$$CBHUWeaponInfo@@@_STL@@U?$_Select1st@U?$pair@$$CBHUWeaponInfo@@@_STL@@@2@U?$less@H@2@V?$allocator@U?$pair@$$CBHUWeaponInfo@@@_STL@@@2@@_STL@@AAE?AU?$_Rb_tree_iterator@U?$pair@$$CBHUWeaponInfo@@@_STL@@U?$_Nonconst_traits@U?$pair@$$CBHUWeaponInfo@@@_STL@@@2@@2@PAU_Rb_tree_node_base@2@0ABU?$pair@$$CBHUWeaponInfo@@@2@0@Z 33050d6f f i ScriptObjectPlayer.obj
 0001:0004fdf7       ?insert_unique@?$_Rb_tree@HU?$pair@$$CBHUWeaponInfo@@@_STL@@U?$_Select1st@U?$pair@$$CBHUWeaponInfo@@@_STL@@@2@U?$less@H@2@V?$allocator@U?$pair@$$CBHUWeaponInfo@@@_STL@@@2@@_STL@@QAE?AU?$pair@U?$_Rb_tree_iterator@U?$pair@$$CBHUWeaponInfo@@@_STL@@U?$_Nonconst_traits@U?$pair@$$CBHUWeaponInfo@@@_STL@@@2@@_STL@@_N@2@ABU?$pair@$$CBHUWeaponInfo@@@2@@Z 33050df7 f i ScriptObjectPlayer.obj
 0001:0004fe7d       ??0?$pair@$$CBHUtWeaponPersistentData@@@_STL@@QAE@ABU01@@Z 33050e7d f i ScriptObjectPlayer.obj
 0001:0004fe9a       ?ReleaseTemplate@?$_ScriptableEx@VCScriptObjectPlayer@@@@SAXXZ 33050e9a f i ScriptObjectPlayer.obj
 0001:0004ff08       ?InsertProperty@?$_ScriptableEx@VCScriptObjectPlayer@@@@SAXPBDAAUProperty@1@@Z 33050f08 f i ScriptObjectPlayer.obj
 0001:0004ff9f       ?push_back@?$vector@P8CScriptObjectPlayer@@AEHPAUIFunctionHandler@@@ZV?$allocator@P8CScriptObjectPlayer@@AEHPAUIFunctionHandler@@@Z@_STL@@@_STL@@QAEXABQ8CScriptObjectPlayer@@AEHPAUIFunctionHandler@@@Z@Z 33050f9f f i ScriptObjectPlayer.obj
 0001:0004ffd6       ??0?$pair@$$CBHUtWeaponPersistentData@@@_STL@@QAE@ABHABUtWeaponPersistentData@@@Z 33050fd6 f i ScriptObjectPlayer.obj
 0001:0004fff3       ?insert_unique@?$_Rb_tree@HU?$pair@$$CBHUWeaponInfo@@@_STL@@U?$_Select1st@U?$pair@$$CBHUWeaponInfo@@@_STL@@@2@U?$less@H@2@V?$allocator@U?$pair@$$CBHUWeaponInfo@@@_STL@@@2@@_STL@@QAE?AU?$_Rb_tree_iterator@U?$pair@$$CBHUWeaponInfo@@@_STL@@U?$_Nonconst_traits@U?$pair@$$CBHUWeaponInfo@@@_STL@@@2@@2@U32@ABU?$pair@$$CBHUWeaponInfo@@@2@@Z 33050ff3 f i ScriptObjectPlayer.obj
 0001:00050132       ??$_Construct@U?$pair@$$CBHUtWeaponPersistentData@@@_STL@@U12@@_STL@@YAXPAU?$pair@$$CBHUtWeaponPersistentData@@@0@ABU10@@Z 33051132 f i ScriptObjectPlayer.obj
 0001:0005015f       ?RegisterFunction@?$_ScriptableEx@VCScriptObjectPlayer@@@@SAXPAUIScriptSystem@@PBDP8CScriptObjectPlayer@@AEHPAUIFunctionHandler@@@Z@Z 3305115f f i ScriptObjectPlayer.obj
 0001:000501af       ?RegisterProperty@?$_ScriptableEx@VCScriptObjectPlayer@@@@SAXPBDW4PropertyType@1@I@Z 330511af f i ScriptObjectPlayer.obj
 0001:000501d0       ?insert@?$map@HUWeaponInfo@@U?$less@H@_STL@@V?$allocator@U?$pair@$$CBHUWeaponInfo@@@_STL@@@3@@_STL@@QAE?AU?$_Rb_tree_iterator@U?$pair@$$CBHUWeaponInfo@@@_STL@@U?$_Nonconst_traits@U?$pair@$$CBHUWeaponInfo@@@_STL@@@2@@2@U32@ABU?$pair@$$CBHUWeaponInfo@@@2@@Z 330511d0 f i ScriptObjectPlayer.obj
 0001:000501ed       ?_M_erase@?$_Rb_tree@HU?$pair@$$CBHUtWeaponPersistentData@@@_STL@@U?$_Select1st@U?$pair@$$CBHUtWeaponPersistentData@@@_STL@@@2@U?$less@H@2@V?$allocator@U?$pair@$$CBHUtWeaponPersistentData@@@_STL@@@2@@_STL@@AAEXPAU?$_Rb_tree_node@U?$pair@$$CBHUtWeaponPersistentData@@@_STL@@@2@@Z 330511ed f i ScriptObjectPlayer.obj
 0001:00050225       ?_M_create_node@?$_Rb_tree@HU?$pair@$$CBHUtWeaponPersistentData@@@_STL@@U?$_Select1st@U?$pair@$$CBHUtWeaponPersistentData@@@_STL@@@2@U?$less@H@2@V?$allocator@U?$pair@$$CBHUtWeaponPersistentData@@@_STL@@@2@@_STL@@IAEPAU?$_Rb_tree_node@U?$pair@$$CBHUtWeaponPersistentData@@@_STL@@@2@ABU?$pair@$$CBHUtWeaponPersistentData@@@2@@Z 33051225 f i ScriptObjectPlayer.obj
 0001:00050284       ??0?$pair@$$CBV?$basic_string@DU?$char_traits@D@std@@V?$allocator@D@_STL@@@_STL@@PAVCTagPoint@@@_STL@@QAE@ABU01@@Z 33051284 f i GameTagPoints.obj
 0001:00050284       ??0MatDesc@CXSurfaceMgr@@QAE@ABU01@@Z 33051284 f i XSurfaceMgr.obj
 0001:00050284       ??0?$pair@$$CBV?$basic_string@DU?$char_traits@D@std@@V?$allocator@D@_STL@@@_STL@@PAUITagPoint@@@_STL@@QAE@ABU01@@Z 33051284 f i XServer.obj
 0001:00050284       ??0?$pair@$$CBV?$basic_string@DU?$char_traits@D@std@@V?$allocator@D@_STL@@@_STL@@H@_STL@@QAE@ABU01@@Z 33051284 f i ScriptObjectPlayer.obj
 0001:00050284       ??0?$pair@$$CBV?$basic_string@DU?$char_traits@D@std@@V?$allocator@D@_STL@@@_STL@@PAX@_STL@@QAE@ABU01@@Z 33051284 f i StringTableMgr.obj
 0001:00050284       ??0?$pair@$$CBV?$basic_string@DU?$char_traits@D@std@@V?$allocator@D@_STL@@@_STL@@M@_STL@@QAE@ABU01@@Z 33051284 f i XPlayer.obj
 0001:0005029f       ??A?$map@HUWeaponInfo@@U?$less@H@_STL@@V?$allocator@U?$pair@$$CBHUWeaponInfo@@@_STL@@@3@@_STL@@QAEAAUWeaponInfo@@ABH@Z 3305129f f i ScriptObjectPlayer.obj
 0001:00050300       ?clear@?$_Rb_tree@HU?$pair@$$CBHUtWeaponPersistentData@@@_STL@@U?$_Select1st@U?$pair@$$CBHUtWeaponPersistentData@@@_STL@@@2@U?$less@H@2@V?$allocator@U?$pair@$$CBHUtWeaponPersistentData@@@_STL@@@2@@_STL@@QAEXXZ 33051300 f i ScriptObjectPlayer.obj
 0001:00050329       ?_M_create_node@?$list@V?$basic_string@DU?$char_traits@D@std@@V?$allocator@D@_STL@@@_STL@@V?$allocator@V?$basic_string@DU?$char_traits@D@std@@V?$allocator@D@_STL@@@_STL@@@2@@_STL@@IAEPAU?$_List_node@V?$basic_string@DU?$char_traits@D@std@@V?$allocator@D@_STL@@@_STL@@@2@ABV?$basic_string@DU?$char_traits@D@std@@V?$allocator@D@_STL@@@2@@Z 33051329 f i ScriptObjectPlayer.obj
 0001:00050388       ?clear@?$_List_base@V?$basic_string@DU?$char_traits@D@std@@V?$allocator@D@_STL@@@_STL@@V?$allocator@V?$basic_string@DU?$char_traits@D@std@@V?$allocator@D@_STL@@@_STL@@@2@@_STL@@QAEXXZ 33051388 f i ScriptObjectPlayer.obj
 0001:000503bc       ?_M_erase@?$_Rb_tree@V?$basic_string@DU?$char_traits@D@std@@V?$allocator@D@_STL@@@_STL@@U?$pair@$$CBV?$basic_string@DU?$char_traits@D@std@@V?$allocator@D@_STL@@@_STL@@H@2@U?$_Select1st@U?$pair@$$CBV?$basic_string@DU?$char_traits@D@std@@V?$allocator@D@_STL@@@_STL@@H@_STL@@@2@U?$less@V?$basic_string@DU?$char_traits@D@std@@V?$allocator@D@_STL@@@_STL@@@2@V?$allocator@U?$pair@$$CBV?$basic_string@DU?$char_traits@D@std@@V?$allocator@D@_STL@@@_STL@@H@_STL@@@2@@_STL@@AAEXPAU?$_Rb_tree_node@U?$pair@$$CBV?$basic_string@DU?$char_traits@D@std@@V?$allocator@D@_STL@@@_STL@@H@_STL@@@2@@Z 330513bc f i ScriptObjectPlayer.obj
 0001:000503f4       ?_M_insert@?$_Rb_tree@HU?$pair@$$CBHUtWeaponPersistentData@@@_STL@@U?$_Select1st@U?$pair@$$CBHUtWeaponPersistentData@@@_STL@@@2@U?$less@H@2@V?$allocator@U?$pair@$$CBHUtWeaponPersistentData@@@_STL@@@2@@_STL@@AAE?AU?$_Rb_tree_iterator@U?$pair@$$CBHUtWeaponPersistentData@@@_STL@@U?$_Nonconst_traits@U?$pair@$$CBHUtWeaponPersistentData@@@_STL@@@2@@2@PAU_Rb_tree_node_base@2@0ABU?$pair@$$CBHUtWeaponPersistentData@@@2@0@Z 330513f4 f i ScriptObjectPlayer.obj
 0001:0005047c       ?insert_unique@?$_Rb_tree@HU?$pair@$$CBHUtWeaponPersistentData@@@_STL@@U?$_Select1st@U?$pair@$$CBHUtWeaponPersistentData@@@_STL@@@2@U?$less@H@2@V?$allocator@U?$pair@$$CBHUtWeaponPersistentData@@@_STL@@@2@@_STL@@QAE?AU?$pair@U?$_Rb_tree_iterator@U?$pair@$$CBHUtWeaponPersistentData@@@_STL@@U?$_Nonconst_traits@U?$pair@$$CBHUtWeaponPersistentData@@@_STL@@@2@@_STL@@_N@2@ABU?$pair@$$CBHUtWeaponPersistentData@@@2@@Z 3305147c f i ScriptObjectPlayer.obj
 0001:00050502       ??$_Construct@U?$pair@$$CBV?$basic_string@DU?$char_traits@D@std@@V?$allocator@D@_STL@@@_STL@@H@_STL@@U12@@_STL@@YAXPAU?$pair@$$CBV?$basic_string@DU?$char_traits@D@std@@V?$allocator@D@_STL@@@_STL@@H@0@ABU10@@Z 33051502 f i ScriptObjectPlayer.obj
 0001:0005052f       ?clear@?$_Rb_tree@V?$basic_string@DU?$char_traits@D@std@@V?$allocator@D@_STL@@@_STL@@U?$pair@$$CBV?$basic_string@DU?$char_traits@D@std@@V?$allocator@D@_STL@@@_STL@@H@2@U?$_Select1st@U?$pair@$$CBV?$basic_string@DU?$char_traits@D@std@@V?$allocator@D@_STL@@@_STL@@H@_STL@@@2@U?$less@V?$basic_string@DU?$char_traits@D@std@@V?$allocator@D@_STL@@@_STL@@@2@V?$allocator@U?$pair@$$CBV?$basic_string@DU?$char_traits@D@std@@V?$allocator@D@_STL@@@_STL@@H@_STL@@@2@@_STL@@QAEXXZ 3305152f f i ScriptObjectPlayer.obj
 0001:00050558       ?insert@?$list@V?$basic_string@DU?$char_traits@D@std@@V?$allocator@D@_STL@@@_STL@@V?$allocator@V?$basic_string@DU?$char_traits@D@std@@V?$allocator@D@_STL@@@_STL@@@2@@_STL@@QAE?AU?$_List_iterator@V?$basic_string@DU?$char_traits@D@std@@V?$allocator@D@_STL@@@_STL@@U?$_Nonconst_traits@V?$basic_string@DU?$char_traits@D@std@@V?$allocator@D@_STL@@@_STL@@@2@@2@U32@ABV?$basic_string@DU?$char_traits@D@std@@V?$allocator@D@_STL@@@2@@Z 33051558 f i ScriptObjectPlayer.obj
 0001:0005057d       ?insert_unique@?$_Rb_tree@HU?$pair@$$CBHUtWeaponPersistentData@@@_STL@@U?$_Select1st@U?$pair@$$CBHUtWeaponPersistentData@@@_STL@@@2@U?$less@H@2@V?$allocator@U?$pair@$$CBHUtWeaponPersistentData@@@_STL@@@2@@_STL@@QAE?AU?$_Rb_tree_iterator@U?$pair@$$CBHUtWeaponPersistentData@@@_STL@@U?$_Nonconst_traits@U?$pair@$$CBHUtWeaponPersistentData@@@_STL@@@2@@2@U32@ABU?$pair@$$CBHUtWeaponPersistentData@@@2@@Z 3305157d f i ScriptObjectPlayer.obj
 0001:000506bc       ?_M_create_node@?$_Rb_tree@V?$basic_string@DU?$char_traits@D@std@@V?$allocator@D@_STL@@@_STL@@U?$pair@$$CBV?$basic_string@DU?$char_traits@D@std@@V?$allocator@D@_STL@@@_STL@@H@2@U?$_Select1st@U?$pair@$$CBV?$basic_string@DU?$char_traits@D@std@@V?$allocator@D@_STL@@@_STL@@H@_STL@@@2@U?$less@V?$basic_string@DU?$char_traits@D@std@@V?$allocator@D@_STL@@@_STL@@@2@V?$allocator@U?$pair@$$CBV?$basic_string@DU?$char_traits@D@std@@V?$allocator@D@_STL@@@_STL@@H@_STL@@@2@@_STL@@IAEPAU?$_Rb_tree_node@U?$pair@$$CBV?$basic_string@DU?$char_traits@D@std@@V?$allocator@D@_STL@@@_STL@@H@_STL@@@2@ABU?$pair@$$CBV?$basic_string@DU?$char_traits@D@std@@V?$allocator@D@_STL@@@_STL@@H@2@@Z 330516bc f i ScriptObjectPlayer.obj
 0001:0005071b       ?push_back@?$list@V?$basic_string@DU?$char_traits@D@std@@V?$allocator@D@_STL@@@_STL@@V?$allocator@V?$basic_string@DU?$char_traits@D@std@@V?$allocator@D@_STL@@@_STL@@@2@@_STL@@QAEXABV?$basic_string@DU?$char_traits@D@std@@V?$allocator@D@_STL@@@2@@Z 3305171b f i ScriptObjectPlayer.obj
 0001:00050735       ?insert@?$map@HUtWeaponPersistentData@@U?$less@H@_STL@@V?$allocator@U?$pair@$$CBHUtWeaponPersistentData@@@_STL@@@3@@_STL@@QAE?AU?$_Rb_tree_iterator@U?$pair@$$CBHUtWeaponPersistentData@@@_STL@@U?$_Nonconst_traits@U?$pair@$$CBHUtWeaponPersistentData@@@_STL@@@2@@2@U32@ABU?$pair@$$CBHUtWeaponPersistentData@@@2@@Z 33051735 f i ScriptObjectPlayer.obj
 0001:00050752       ?_M_insert@?$_Rb_tree@V?$basic_string@DU?$char_traits@D@std@@V?$allocator@D@_STL@@@_STL@@U?$pair@$$CBV?$basic_string@DU?$char_traits@D@std@@V?$allocator@D@_STL@@@_STL@@H@2@U?$_Select1st@U?$pair@$$CBV?$basic_string@DU?$char_traits@D@std@@V?$allocator@D@_STL@@@_STL@@H@_STL@@@2@U?$less@V?$basic_string@DU?$char_traits@D@std@@V?$allocator@D@_STL@@@_STL@@@2@V?$allocator@U?$pair@$$CBV?$basic_string@DU?$char_traits@D@std@@V?$allocator@D@_STL@@@_STL@@H@_STL@@@2@@_STL@@AAE?AU?$_Rb_tree_iterator@U?$pair@$$CBV?$basic_string@DU?$char_traits@D@std@@V?$allocator@D@_STL@@@_STL@@H@_STL@@U?$_Nonconst_traits@U?$pair@$$CBV?$basic_string@DU?$char_traits@D@std@@V?$allocator@D@_STL@@@_STL@@H@_STL@@@2@@2@PAU_Rb_tree_node_base@2@0ABU?$pair@$$CBV?$basic_string@DU?$char_traits@D@std@@V?$allocator@D@_STL@@@_STL@@H@2@0@Z 33051752 f i ScriptObjectPlayer.obj
 0001:000507e6       ?insert_unique@?$_Rb_tree@V?$basic_string@DU?$char_traits@D@std@@V?$allocator@D@_STL@@@_STL@@U?$pair@$$CBV?$basic_string@DU?$char_traits@D@std@@V?$allocator@D@_STL@@@_STL@@H@2@U?$_Select1st@U?$pair@$$CBV?$basic_string@DU?$char_traits@D@std@@V?$allocator@D@_STL@@@_STL@@H@_STL@@@2@U?$less@V?$basic_string@DU?$char_traits@D@std@@V?$allocator@D@_STL@@@_STL@@@2@V?$allocator@U?$pair@$$CBV?$basic_string@DU?$char_traits@D@std@@V?$allocator@D@_STL@@@_STL@@H@_STL@@@2@@_STL@@QAE?AU?$pair@U?$_Rb_tree_iterator@U?$pair@$$CBV?$basic_string@DU?$char_traits@D@std@@V?$allocator@D@_STL@@@_STL@@H@_STL@@U?$_Nonconst_traits@U?$pair@$$CBV?$basic_string@DU?$char_traits@D@std@@V?$allocator@D@_STL@@@_STL@@H@_STL@@@2@@_STL@@_N@2@ABU?$pair@$$CBV?$basic_string@DU?$char_traits@D@std@@V?$allocator@D@_STL@@@_STL@@H@2@@Z 330517e6 f i ScriptObjectPlayer.obj
 0001:0005087d       ??A?$map@HUtWeaponPersistentData@@U?$less@H@_STL@@V?$allocator@U?$pair@$$CBHUtWeaponPersistentData@@@_STL@@@3@@_STL@@QAEAAUtWeaponPersistentData@@ABH@Z 3305187d f i ScriptObjectPlayer.obj
 0001:000508f9       ?insert_unique@?$_Rb_tree@V?$basic_string@DU?$char_traits@D@std@@V?$allocator@D@_STL@@@_STL@@U?$pair@$$CBV?$basic_string@DU?$char_traits@D@std@@V?$allocator@D@_STL@@@_STL@@H@2@U?$_Select1st@U?$pair@$$CBV?$basic_string@DU?$char_traits@D@std@@V?$allocator@D@_STL@@@_STL@@H@_STL@@@2@U?$less@V?$basic_string@DU?$char_traits@D@std@@V?$allocator@D@_STL@@@_STL@@@2@V?$allocator@U?$pair@$$CBV?$basic_string@DU?$char_traits@D@std@@V?$allocator@D@_STL@@@_STL@@H@_STL@@@2@@_STL@@QAE?AU?$_Rb_tree_iterator@U?$pair@$$CBV?$basic_string@DU?$char_traits@D@std@@V?$allocator@D@_STL@@@_STL@@H@_STL@@U?$_Nonconst_traits@U?$pair@$$CBV?$basic_string@DU?$char_traits@D@std@@V?$allocator@D@_STL@@@_STL@@H@_STL@@@2@@2@U32@ABU?$pair@$$CBV?$basic_string@DU?$char_traits@D@std@@V?$allocator@D@_STL@@@_STL@@H@2@@Z 330518f9 f i ScriptObjectPlayer.obj
 0001:00050ab4       ?insert@?$map@V?$basic_string@DU?$char_traits@D@std@@V?$allocator@D@_STL@@@_STL@@HU?$less@V?$basic_string@DU?$char_traits@D@std@@V?$allocator@D@_STL@@@_STL@@@2@V?$allocator@U?$pair@$$CBV?$basic_string@DU?$char_traits@D@std@@V?$allocator@D@_STL@@@_STL@@H@_STL@@@2@@_STL@@QAE?AU?$_Rb_tree_iterator@U?$pair@$$CBV?$basic_string@DU?$char_traits@D@std@@V?$allocator@D@_STL@@@_STL@@H@_STL@@U?$_Nonconst_traits@U?$pair@$$CBV?$basic_string@DU?$char_traits@D@std@@V?$allocator@D@_STL@@@_STL@@H@_STL@@@2@@2@U32@ABU?$pair@$$CBV?$basic_string@DU?$char_traits@D@std@@V?$allocator@D@_STL@@@_STL@@H@2@@Z 33051ab4 f i ScriptObjectPlayer.obj
 0001:00050ad1       ?SetThunk@?$_ScriptableEx@VCScriptObjectPlayer@@@@KAHPAX@Z 33051ad1 f i ScriptObjectPlayer.obj
 0001:00050c0e       ??A?$map@V?$basic_string@DU?$char_traits@D@std@@V?$allocator@D@_STL@@@_STL@@HU?$less@V?$basic_string@DU?$char_traits@D@std@@V?$allocator@D@_STL@@@_STL@@@2@V?$allocator@U?$pair@$$CBV?$basic_string@DU?$char_traits@D@std@@V?$allocator@D@_STL@@@_STL@@H@_STL@@@2@@_STL@@QAEAAHABV?$basic_string@DU?$char_traits@D@std@@V?$allocator@D@_STL@@@1@@Z 33051c0e f i ScriptObjectPlayer.obj
 0001:00050c90       ?EnablePropertiesMapping@?$_ScriptableEx@VCScriptObjectPlayer@@@@QAE_NPAX@Z 33051c90 f i ScriptObjectPlayer.obj
 0001:00050caf       ??1?$_ScriptableEx@VCScriptObjectRenderer@@@@UAE@XZ 33051caf f i ScriptObjectRenderer.obj
 0001:00050ce6       ??_E?$_ScriptableEx@VCScriptObjectRenderer@@@@UAEPAXI@Z 33051ce6 f i ScriptObjectRenderer.obj
 0001:00050ce6       ??_G?$_ScriptableEx@VCScriptObjectRenderer@@@@UAEPAXI@Z 33051ce6 f i ScriptObjectRenderer.obj
 0001:00050d02       ??$_Construct@Utag_Vtx@@U1@@_STL@@YAXPAUtag_Vtx@@ABU1@@Z 33051d02 f i ScriptObjectRenderer.obj
 0001:00050d18       ??$fill@PAUtag_Vtx@@U1@@_STL@@YAXPAUtag_Vtx@@0ABU1@@Z 33051d18 f i ScriptObjectRenderer.obj
 0001:00050d3b       ??$__copy@PAUtag_Vtx@@PAU1@H@_STL@@YAPAUtag_Vtx@@PAU1@00ABUrandom_access_iterator_tag@0@PAH@Z 33051d3b f i ScriptObjectRenderer.obj
 0001:00050d6d       ??$__copy_backward@PAUtag_Vtx@@PAU1@H@_STL@@YAPAUtag_Vtx@@PAU1@00ABUrandom_access_iterator_tag@0@PAH@Z 33051d6d f i ScriptObjectRenderer.obj
 0001:00050d9f       ?Init@?$_ScriptableEx@VCScriptObjectRenderer@@@@QAEXPAUIScriptSystem@@PAVCScriptObjectRenderer@@@Z 33051d9f f i ScriptObjectRenderer.obj
 0001:00050e0b       ??$__copy_ptrs@PAUtag_Vtx@@PAU1@@_STL@@YAPAUtag_Vtx@@PAU1@00ABU__false_type@0@@Z 33051e0b f i ScriptObjectRenderer.obj
 0001:00050e28       ??$__copy_backward_ptrs@PAUtag_Vtx@@PAU1@@_STL@@YAPAUtag_Vtx@@PAU1@00ABU__false_type@0@@Z 33051e28 f i ScriptObjectRenderer.obj
 0001:00050e45       ?Create@CScriptObjectRenderer@@QAEPAUIScriptObject@@PAUIScriptSystem@@PAUIRenderer@@@Z 33051e45 f   ScriptObjectRenderer.obj
 0001:00050e6a       ??0CScriptObjectRenderer@@QAE@XZ 33051e6a f   ScriptObjectRenderer.obj
 0001:00050e9f       ??1CScriptObjectRenderer@@UAE@XZ 33051e9f f   ScriptObjectRenderer.obj
 0001:00050ec0       ?PushQuad@CScriptObjectRenderer@@QAEHPAUIFunctionHandler@@@Z 33051ec0 f   ScriptObjectRenderer.obj
 0001:000511e0       ?Reset@CScriptObjectRenderer@@QAEHPAUIFunctionHandler@@@Z 330521e0 f   ScriptObjectRenderer.obj
 0001:00051206       ?Draw@CScriptObjectRenderer@@QAEHPAUIFunctionHandler@@@Z 33052206 f   ScriptObjectRenderer.obj
 0001:00051339       ?InitializeTemplate@CScriptObjectRenderer@@SAXPAUIScriptSystem@@@Z 33052339 f   ScriptObjectRenderer.obj
 0001:00051379       ?FuncThunk@?$_ScriptableEx@VCScriptObjectRenderer@@@@KAHPAX@Z 33052379 f i ScriptObjectRenderer.obj
 0001:000513db       ??1?$_Vector_base@GV?$allocator@G@_STL@@@_STL@@QAE@XZ 330523db f i ScriptObjectRenderer.obj
 0001:000513f2       ??1?$_Vector_base@Utag_Vtx@@V?$allocator@Utag_Vtx@@@_STL@@@_STL@@QAE@XZ 330523f2 f i ScriptObjectRenderer.obj
 0001:00051411       ?_M_clear@?$vector@GV?$allocator@G@_STL@@@_STL@@IAEXXZ 33052411 f i ScriptObjectRenderer.obj
 0001:00051411       ?_M_deallocate_block@?$_String_base@GV?$allocator@G@_STL@@@_STL@@QAEXXZ 33052411 f i IngameDialog.obj
 0001:00051426       ?allocate@?$allocator@Utag_Vtx@@@_STL@@QAEPAUtag_Vtx@@IPBX@Z 33052426 f i ScriptObjectRenderer.obj
 0001:00051442       ??$__uninitialized_copy@PAUtag_Vtx@@PAU1@@_STL@@YAPAUtag_Vtx@@PAU1@00ABU__false_type@0@@Z 33052442 f i ScriptObjectRenderer.obj
 0001:00051468       ??$__uninitialized_fill_n@PAUtag_Vtx@@IU1@@_STL@@YAPAUtag_Vtx@@PAU1@IABU1@ABU__false_type@0@@Z 33052468 f i ScriptObjectRenderer.obj
 0001:0005148d       ??$uninitialized_fill_n@PAUtag_Vtx@@IU1@@_STL@@YAPAUtag_Vtx@@PAU1@IABU1@@Z 3305248d f i ScriptObjectRenderer.obj
 0001:000514a8       ??1?$vector@GV?$allocator@G@_STL@@@_STL@@QAE@XZ 330524a8 f i ScriptObjectRenderer.obj
 0001:000514ad       ?_M_insert_overflow@?$vector@GV?$allocator@G@_STL@@@_STL@@IAEXPAGABGABU__true_type@2@I_N@Z 330524ad f i ScriptObjectRenderer.obj
 0001:00051532       ?erase@?$vector@Utag_Vtx@@V?$allocator@Utag_Vtx@@@_STL@@@_STL@@QAEPAUtag_Vtx@@PAU3@0@Z 33052532 f i ScriptObjectRenderer.obj
 0001:00051558       ?_M_clear@?$vector@Utag_Vtx@@V?$allocator@Utag_Vtx@@@_STL@@@_STL@@IAEXXZ 33052558 f i ScriptObjectRenderer.obj
 0001:00051573       ?_M_clear@?$vector@P8CScriptObjectLanguage@@AEHPAUIFunctionHandler@@@ZV?$allocator@P8CScriptObjectLanguage@@AEHPAUIFunctionHandler@@@Z@_STL@@@_STL@@IAEXXZ 33052573 f i ScriptObjectLanguage.obj
 0001:00051573       ?_M_clear@?$vector@P8CScriptObjectGame@@AEHPAUIFunctionHandler@@@ZV?$allocator@P8CScriptObjectGame@@AEHPAUIFunctionHandler@@@Z@_STL@@@_STL@@IAEXXZ 33052573 f i ScriptObjectGame.obj
 0001:00051573       ?_M_clear@?$vector@P8CScriptObjectStream@@AEHPAUIFunctionHandler@@@ZV?$allocator@P8CScriptObjectStream@@AEHPAUIFunctionHandler@@@Z@_STL@@@_STL@@IAEXXZ 33052573 f i ScriptObjectStream.obj
 0001:00051573       ?_M_clear@?$vector@P8CScriptObjectServerSlot@@AEHPAUIFunctionHandler@@@ZV?$allocator@P8CScriptObjectServerSlot@@AEHPAUIFunctionHandler@@@Z@_STL@@@_STL@@IAEXXZ 33052573 f i ScriptObjectServerSlot.obj
 0001:00051573       ?_M_clear@?$vector@P8CScriptObjectServer@@AEHPAUIFunctionHandler@@@ZV?$allocator@P8CScriptObjectServer@@AEHPAUIFunctionHandler@@@Z@_STL@@@_STL@@IAEXXZ 33052573 f i ScriptObjectServer.obj
 0001:00051573       ?_M_clear@?$vector@P8CUIScreen@@AEHPAUIFunctionHandler@@@ZV?$allocator@P8CUIScreen@@AEHPAUIFunctionHandler@@@Z@_STL@@@_STL@@IAEXXZ 33052573 f i UIScreen.obj
 0001:00051573       ?_M_clear@?$vector@P8CScriptObjectClient@@AEHPAUIFunctionHandler@@@ZV?$allocator@P8CScriptObjectClient@@AEHPAUIFunctionHandler@@@Z@_STL@@@_STL@@IAEXXZ 33052573 f i ScriptObjectClient.obj
 0001:00051573       ?_M_clear@?$vector@P8CScriptObjectBoids@@AEHPAUIFunctionHandler@@@ZV?$allocator@P8CScriptObjectBoids@@AEHPAUIFunctionHandler@@@Z@_STL@@@_STL@@IAEXXZ 33052573 f i ScriptObjectBoids.obj
 0001:00051573       ?_M_clear@?$vector@P8CScriptObjectInput@@AEHPAUIFunctionHandler@@@ZV?$allocator@P8CScriptObjectInput@@AEHPAUIFunctionHandler@@@Z@_STL@@@_STL@@IAEXXZ 33052573 f i ScriptObjectInput.obj
 0001:00051573       ?_M_clear@?$vector@P8CScriptObjectAI@@AEHPAUIFunctionHandler@@@ZV?$allocator@P8CScriptObjectAI@@AEHPAUIFunctionHandler@@@Z@_STL@@@_STL@@IAEXXZ 33052573 f i ScriptObjectAI.obj
 0001:00051573       ?_M_clear@?$vector@P8CScriptObjectRenderer@@AEHPAUIFunctionHandler@@@ZV?$allocator@P8CScriptObjectRenderer@@AEHPAUIFunctionHandler@@@Z@_STL@@@_STL@@IAEXXZ 33052573 f i ScriptObjectRenderer.obj
 0001:00051573       ?_M_clear@?$vector@P8CScriptObjectUI@@AEHPAUIFunctionHandler@@@ZV?$allocator@P8CScriptObjectUI@@AEHPAUIFunctionHandler@@@Z@_STL@@@_STL@@IAEXXZ 33052573 f i ScriptObjectUI.obj
 0001:00051587       ?_M_fill_insert@?$vector@GV?$allocator@G@_STL@@@_STL@@QAEXPAGIABG@Z 33052587 f i ScriptObjectRenderer.obj
 0001:0005165c       ?push_back@?$vector@GV?$allocator@G@_STL@@@_STL@@QAEXABG@Z 3305265c f i ScriptObjectRenderer.obj
 0001:0005168f       ?_M_insert_overflow@?$vector@Utag_Vtx@@V?$allocator@Utag_Vtx@@@_STL@@@_STL@@IAEXPAUtag_Vtx@@ABU3@ABU__false_type@2@I_N@Z 3305268f f i ScriptObjectRenderer.obj
 0001:00051781       ?_M_insert_overflow@?$vector@P8CScriptObjectRenderer@@AEHPAUIFunctionHandler@@@ZV?$allocator@P8CScriptObjectRenderer@@AEHPAUIFunctionHandler@@@Z@_STL@@@_STL@@IAEXPAP8CScriptObjectRenderer@@AEHPAUIFunctionHandler@@@ZABQ83@AEH0@ZABU__false_type@2@I_N@Z 33052781 f i ScriptObjectRenderer.obj
 0001:0005186e       ?_M_fill_insert@?$vector@Utag_Vtx@@V?$allocator@Utag_Vtx@@@_STL@@@_STL@@QAEXPAUtag_Vtx@@IABU3@@Z 3305286e f i ScriptObjectRenderer.obj
 0001:00051960       ??_GCScriptObjectRenderer@@UAEPAXI@Z 33052960 f i ScriptObjectRenderer.obj
 0001:00051960       ??_ECScriptObjectRenderer@@UAEPAXI@Z 33052960 f i ScriptObjectRenderer.obj
 0001:0005197c       ?push_back@?$vector@Utag_Vtx@@V?$allocator@Utag_Vtx@@@_STL@@@_STL@@QAEXABUtag_Vtx@@@Z 3305297c f i ScriptObjectRenderer.obj
 0001:000519b3       ?resize@?$vector@GV?$allocator@G@_STL@@@_STL@@QAEXIG@Z 330529b3 f i ScriptObjectRenderer.obj
 0001:000519f0       ?push_back@?$vector@P8CScriptObjectRenderer@@AEHPAUIFunctionHandler@@@ZV?$allocator@P8CScriptObjectRenderer@@AEHPAUIFunctionHandler@@@Z@_STL@@@_STL@@QAEXABQ8CScriptObjectRenderer@@AEHPAUIFunctionHandler@@@Z@Z 330529f0 f i ScriptObjectRenderer.obj
 0001:00051a21       ?RegisterFunction@?$_ScriptableEx@VCScriptObjectRenderer@@@@SAXPAUIScriptSystem@@PBDP8CScriptObjectRenderer@@AEHPAUIFunctionHandler@@@Z@Z 33052a21 f i ScriptObjectRenderer.obj
 0001:00051a71       ?resize@?$vector@Utag_Vtx@@V?$allocator@Utag_Vtx@@@_STL@@@_STL@@QAEXIUtag_Vtx@@@Z 33052a71 f i ScriptObjectRenderer.obj
 0001:00051abb       ?resize@?$vector@Utag_Vtx@@V?$allocator@Utag_Vtx@@@_STL@@@_STL@@QAEXI@Z 33052abb f i ScriptObjectRenderer.obj
 0001:00051aec       ?GetNumPlayers@CScriptObjectServer@@QAEHPAUIFunctionHandler@@@Z 33052aec f   ScriptObjectServer.obj
 0001:00051b42       ?BroadcastText@CScriptObjectServer@@QAEHPAUIFunctionHandler@@@Z 33052b42 f   ScriptObjectServer.obj
 0001:00051ba1       ?AddTeam@CScriptObjectServer@@QAEHPAUIFunctionHandler@@@Z 33052ba1 f   ScriptObjectServer.obj
 0001:00051c0a       ?RemoveTeam@CScriptObjectServer@@QAEHPAUIFunctionHandler@@@Z 33052c0a f   ScriptObjectServer.obj
 0001:00051c73       ?AddToTeam@CScriptObjectServer@@QAEHPAUIFunctionHandler@@@Z 33052c73 f   ScriptObjectServer.obj
 0001:00051d13       ?RemoveFromTeam@CScriptObjectServer@@QAEHPAUIFunctionHandler@@@Z 33052d13 f   ScriptObjectServer.obj
 0001:00051d84       ?SetTeamScoreByEntity@CScriptObjectServer@@QAEHPAUIFunctionHandler@@@Z 33052d84 f   ScriptObjectServer.obj
 0001:00051e23       ?SetTeamScore@CScriptObjectServer@@QAEHPAUIFunctionHandler@@@Z 33052e23 f   ScriptObjectServer.obj
 0001:00051ea1       ?SetTeamFlags@CScriptObjectServer@@QAEHPAUIFunctionHandler@@@Z 33052ea1 f   ScriptObjectServer.obj
 0001:00051f1f       ?GetTeamMemberCount@CScriptObjectServer@@QAEHPAUIFunctionHandler@@@Z 33052f1f f   ScriptObjectServer.obj
 0001:00051fac       ?DebugTest@CScriptObjectServer@@QAEHPAUIFunctionHandler@@@Z 33052fac f   ScriptObjectServer.obj
 0001:00051fb8       ??0CScriptObjectServer@@QAE@XZ 33052fb8 f   ScriptObjectServer.obj
 0001:00051fd2       ??1CScriptObjectServer@@UAE@XZ 33052fd2 f   ScriptObjectServer.obj
 0001:00052018       ?ListBans@CScriptObjectServer@@QAEHPAUIFunctionHandler@@@Z 33053018 f   ScriptObjectServer.obj
 0001:000521bb       ?RemoveEntity@CScriptObjectServer@@QAEHPAUIFunctionHandler@@@Z 330531bb f   ScriptObjectServer.obj
 0001:00052262       ?GetName@CScriptObjectServer@@QAEHPAUIFunctionHandler@@@Z 33053262 f   ScriptObjectServer.obj
 0001:000522be       ?BroadcastCommand@CScriptObjectServer@@QAEHPAUIFunctionHandler@@@Z 330532be f   ScriptObjectServer.obj
 0001:0005249b       ?MakeTagScriptObject@CScriptObjectServer@@CAXPAUITagPoint@@AAV_SmartScriptObject@@@Z 3305349b f   ScriptObjectServer.obj
 0001:0005254a       ?Create@CScriptObjectServer@@QAE_NPAUIScriptSystem@@PAUIXSystem@@PAVCXGame@@@Z 3305354a f   ScriptObjectServer.obj
 0001:0005257d       ?SpawnEntity@CScriptObjectServer@@QAEHPAUIFunctionHandler@@@Z 3305357d f   ScriptObjectServer.obj
 0001:000529d8       ?GetRespawnPoint@CScriptObjectServer@@QAEHPAUIFunctionHandler@@@Z 330539d8 f   ScriptObjectServer.obj
 0001:00052ac1       ?GetFirstRespawnPoint@CScriptObjectServer@@QAEHPAUIFunctionHandler@@@Z 33053ac1 f   ScriptObjectServer.obj
 0001:00052b6d       ?GetNextRespawnPoint@CScriptObjectServer@@QAEHPAUIFunctionHandler@@@Z 33053b6d f   ScriptObjectServer.obj
 0001:00052c10       ?GetPrevRespawnPoint@CScriptObjectServer@@QAEHPAUIFunctionHandler@@@Z 33053c10 f   ScriptObjectServer.obj
 0001:00052cb3       ?GetRandomRespawnPoint@CScriptObjectServer@@QAEHPAUIFunctionHandler@@@Z 33053cb3 f   ScriptObjectServer.obj
 0001:00052d48       ?GetServerSlotMap@CScriptObjectServer@@QAEHPAUIFunctionHandler@@@Z 33053d48 f   ScriptObjectServer.obj
 0001:00052deb       ?GetServerSlotByEntityId@CScriptObjectServer@@QAEHPAUIFunctionHandler@@@Z 33053deb f   ScriptObjectServer.obj
 0001:00052e6e       ?GetServerSlotBySSId@CScriptObjectServer@@QAEHPAUIFunctionHandler@@@Z 33053e6e f   ScriptObjectServer.obj
 0001:00052f04       ?Unban@CScriptObjectServer@@QAEHPAUIFunctionHandler@@@Z 33053f04 f   ScriptObjectServer.obj
 0001:00053099       ?InitializeTemplate@CScriptObjectServer@@SAXPAUIScriptSystem@@@Z 33054099 f   ScriptObjectServer.obj
 0001:00053245       ??1?$_ScriptableEx@VCScriptObjectServer@@@@UAE@XZ 33054245 f i ScriptObjectServer.obj
 0001:0005327c       ??_G?$_ScriptableEx@VCScriptObjectServer@@@@UAEPAXI@Z 3305427c f i ScriptObjectServer.obj
 0001:0005327c       ??_E?$_ScriptableEx@VCScriptObjectServer@@@@UAEPAXI@Z 3305427c f i ScriptObjectServer.obj
 0001:00053298       ?InitGlobal@?$_ScriptableEx@VCScriptObjectServer@@@@QAEXPAUIScriptSystem@@PBDPAVCScriptObjectServer@@@Z 33054298 f i ScriptObjectServer.obj
 0001:0005330f       ?Get@CScriptObjectColor@@QAEAAU?$Vec3_tpl@M@@XZ 3305430f f i ScriptObjectServer.obj
 0001:00053374       ??_ECScriptObjectServer@@UAEPAXI@Z 33054374 f i ScriptObjectServer.obj
 0001:00053374       ??_GCScriptObjectServer@@UAEPAXI@Z 33054374 f i ScriptObjectServer.obj
 0001:00053390       ?FuncThunk@?$_ScriptableEx@VCScriptObjectServer@@@@KAHPAX@Z 33054390 f i ScriptObjectServer.obj
 0001:000533f2       ??$_M_find@E@?$_Rb_tree@EU?$pair@$$CBEPAVCXServerSlot@@@_STL@@U?$_Select1st@U?$pair@$$CBEPAVCXServerSlot@@@_STL@@@2@U?$less@E@2@V?$allocator@U?$pair@$$CBEPAVCXServerSlot@@@_STL@@@2@@_STL@@ABEPAU?$_Rb_tree_node@U?$pair@$$CBEPAVCXServerSlot@@@_STL@@@1@ABE@Z 330543f2 f i ScriptObjectServer.obj
 0001:000533f2       ??$_M_find@E@?$_Rb_tree@EU?$pair@$$CBEUSDirtylist@CSynched2DTable@@@_STL@@U?$_Select1st@U?$pair@$$CBEUSDirtylist@CSynched2DTable@@@_STL@@@2@U?$less@E@2@V?$allocator@U?$pair@$$CBEUSDirtylist@CSynched2DTable@@@_STL@@@2@@_STL@@ABEPAU?$_Rb_tree_node@U?$pair@$$CBEUSDirtylist@CSynched2DTable@@@_STL@@@1@ABE@Z 330543f2 f i Synched2DTable.obj
 0001:0005342c       ??$__uninitialized_copy@PAP8CScriptObjectServerSlot@@AEHPAUIFunctionHandler@@@ZPAP81@AEH0@Z@_STL@@YAPAP8CScriptObjectServerSlot@@AEHPAUIFunctionHandler@@@ZPAP81@AEH0@Z11ABU__false_type@0@@Z 3305442c f i ScriptObjectServerSlot.obj
 0001:0005342c       ??$__uninitialized_copy@PAP8CScriptObjectGame@@AEHPAUIFunctionHandler@@@ZPAP81@AEH0@Z@_STL@@YAPAP8CScriptObjectGame@@AEHPAUIFunctionHandler@@@ZPAP81@AEH0@Z11ABU__false_type@0@@Z 3305442c f i ScriptObjectGame.obj
 0001:0005342c       ??$__uninitialized_copy@PAP8CScriptObjectClient@@AEHPAUIFunctionHandler@@@ZPAP81@AEH0@Z@_STL@@YAPAP8CScriptObjectClient@@AEHPAUIFunctionHandler@@@ZPAP81@AEH0@Z11ABU__false_type@0@@Z 3305442c f i ScriptObjectClient.obj
 0001:0005342c       ??$__uninitialized_copy@PAP8CScriptObjectLanguage@@AEHPAUIFunctionHandler@@@ZPAP81@AEH0@Z@_STL@@YAPAP8CScriptObjectLanguage@@AEHPAUIFunctionHandler@@@ZPAP81@AEH0@Z11ABU__false_type@0@@Z 3305442c f i ScriptObjectLanguage.obj
 0001:0005342c       ??$__uninitialized_copy@PAP8CScriptObjectRenderer@@AEHPAUIFunctionHandler@@@ZPAP81@AEH0@Z@_STL@@YAPAP8CScriptObjectRenderer@@AEHPAUIFunctionHandler@@@ZPAP81@AEH0@Z11ABU__false_type@0@@Z 3305442c f i ScriptObjectRenderer.obj
 0001:0005342c       ??$__uninitialized_copy@PAP8CScriptObjectInput@@AEHPAUIFunctionHandler@@@ZPAP81@AEH0@Z@_STL@@YAPAP8CScriptObjectInput@@AEHPAUIFunctionHandler@@@ZPAP81@AEH0@Z11ABU__false_type@0@@Z 3305442c f i ScriptObjectInput.obj
 0001:0005342c       ??$__uninitialized_copy@PAP8CScriptObjectServer@@AEHPAUIFunctionHandler@@@ZPAP81@AEH0@Z@_STL@@YAPAP8CScriptObjectServer@@AEHPAUIFunctionHandler@@@ZPAP81@AEH0@Z11ABU__false_type@0@@Z 3305442c f i ScriptObjectServer.obj
 0001:0005342c       ??$__uninitialized_copy@PAP8CScriptObjectBoids@@AEHPAUIFunctionHandler@@@ZPAP81@AEH0@Z@_STL@@YAPAP8CScriptObjectBoids@@AEHPAUIFunctionHandler@@@ZPAP81@AEH0@Z11ABU__false_type@0@@Z 3305442c f i ScriptObjectBoids.obj
 0001:0005342c       ??$__uninitialized_copy@PAP8CUIScreen@@AEHPAUIFunctionHandler@@@ZPAP81@AEH0@Z@_STL@@YAPAP8CUIScreen@@AEHPAUIFunctionHandler@@@ZPAP81@AEH0@Z11ABU__false_type@0@@Z 3305442c f i UIScreen.obj
 0001:0005342c       ??$__uninitialized_copy@PAP8CScriptObjectAI@@AEHPAUIFunctionHandler@@@ZPAP81@AEH0@Z@_STL@@YAPAP8CScriptObjectAI@@AEHPAUIFunctionHandler@@@ZPAP81@AEH0@Z11ABU__false_type@0@@Z 3305442c f i ScriptObjectAI.obj
 0001:0005342c       ??$__uninitialized_copy@PAP8CScriptObjectStream@@AEHPAUIFunctionHandler@@@ZPAP81@AEH0@Z@_STL@@YAPAP8CScriptObjectStream@@AEHPAUIFunctionHandler@@@ZPAP81@AEH0@Z11ABU__false_type@0@@Z 3305442c f i ScriptObjectStream.obj
 0001:0005342c       ??$__uninitialized_copy@PAP8CScriptObjectUI@@AEHPAUIFunctionHandler@@@ZPAP81@AEH0@Z@_STL@@YAPAP8CScriptObjectUI@@AEHPAUIFunctionHandler@@@ZPAP81@AEH0@Z11ABU__false_type@0@@Z 3305442c f i ScriptObjectUI.obj
 0001:0005344b       ?GetServerSlotByEntityId@CXServer@@QBEPAVCXServerSlot@@G@Z 3305444b f i ScriptObjectServer.obj
 0001:00053488       ?_M_insert_overflow@?$vector@P8CScriptObjectServer@@AEHPAUIFunctionHandler@@@ZV?$allocator@P8CScriptObjectServer@@AEHPAUIFunctionHandler@@@Z@_STL@@@_STL@@IAEXPAP8CScriptObjectServer@@AEHPAUIFunctionHandler@@@ZABQ83@AEH0@ZABU__false_type@2@I_N@Z 33054488 f i ScriptObjectServer.obj
 0001:00053575       ?push_back@?$vector@P8CScriptObjectServer@@AEHPAUIFunctionHandler@@@ZV?$allocator@P8CScriptObjectServer@@AEHPAUIFunctionHandler@@@Z@_STL@@@_STL@@QAEXABQ8CScriptObjectServer@@AEHPAUIFunctionHandler@@@Z@Z 33054575 f i ScriptObjectServer.obj
 0001:000535a6       ??1BannedID@@UAE@XZ        330545a6 f i ScriptObjectServer.obj
 0001:000535b4       ??_GBannedID@@UAEPAXI@Z    330545b4 f i ScriptObjectServer.obj
 0001:000535b4       ??_EBannedID@@UAEPAXI@Z    330545b4 f i ScriptObjectServer.obj
 0001:000535d0       ?RegisterFunction@?$_ScriptableEx@VCScriptObjectServer@@@@SAXPAUIScriptSystem@@PBDP8CScriptObjectServer@@AEHPAUIFunctionHandler@@@Z@Z 330545d0 f i ScriptObjectServer.obj
 0001:00053620       ??0BannedID@@QAE@ABV0@@Z   33054620 f i ScriptObjectServer.obj
 0001:00053694       ?BanByID@CScriptObjectServerSlot@@AAEHPAUIFunctionHandler@@@Z 33054694 f   ScriptObjectServerSlot.obj
 0001:000536e9       ?BanByIP@CScriptObjectServerSlot@@AAEHPAUIFunctionHandler@@@Z 330546e9 f   ScriptObjectServerSlot.obj
 0001:0005373e       ?Disconnect@CScriptObjectServerSlot@@AAEHPAUIFunctionHandler@@@Z 3305473e f   ScriptObjectServerSlot.obj
 0001:000537ae       ?SetGameState@CScriptObjectServerSlot@@AAEHPAUIFunctionHandler@@@Z 330547ae f   ScriptObjectServerSlot.obj
 0001:0005383c       ?SetPlayerId@CScriptObjectServerSlot@@AAEHPAUIFunctionHandler@@@Z 3305483c f   ScriptObjectServerSlot.obj
 0001:000538ad       ?GetPlayerId@CScriptObjectServerSlot@@AAEHPAUIFunctionHandler@@@Z 330548ad f   ScriptObjectServerSlot.obj
 0001:0005390c       ?GetName@CScriptObjectServerSlot@@AAEHPAUIFunctionHandler@@@Z 3305490c f   ScriptObjectServerSlot.obj
 0001:0005396b       ?GetModel@CScriptObjectServerSlot@@AAEHPAUIFunctionHandler@@@Z 3305496b f   ScriptObjectServerSlot.obj
 0001:000539ca       ?GetHatModel@CScriptObjectServerSlot@@AAEHPAUIFunctionHandler@@@Z 330549ca f   ScriptObjectServerSlot.obj
 0001:00053a29       ?GetColor@CScriptObjectServerSlot@@AAEHPAUIFunctionHandler@@@Z 33054a29 f   ScriptObjectServerSlot.obj
 0001:00053a88       ?SendText@CScriptObjectServerSlot@@AAEHPAUIFunctionHandler@@@Z 33054a88 f   ScriptObjectServerSlot.obj
 0001:00053aff       ?Ready@CScriptObjectServerSlot@@AAEHPAUIFunctionHandler@@@Z 33054aff f   ScriptObjectServerSlot.obj
 0001:00053b2f       ?IsReady@CScriptObjectServerSlot@@AAEHPAUIFunctionHandler@@@Z 33054b2f f   ScriptObjectServerSlot.obj
 0001:00053b48       ?IsContextReady@CScriptObjectServerSlot@@AAEHPAUIFunctionHandler@@@Z 33054b48 f   ScriptObjectServerSlot.obj
 0001:00053b63       ?GetPing@CScriptObjectServerSlot@@AAEHPAUIFunctionHandler@@@Z 33054b63 f   ScriptObjectServerSlot.obj
 0001:00053b7e       ?GetId@CScriptObjectServerSlot@@AAEHPAUIFunctionHandler@@@Z 33054b7e f   ScriptObjectServerSlot.obj
 0001:00053b9c       ??0CScriptObjectServerSlot@@QAE@XZ 33054b9c f   ScriptObjectServerSlot.obj
 0001:00053bb3       ??1CScriptObjectServerSlot@@UAE@XZ 33054bb3 f   ScriptObjectServerSlot.obj
 0001:00053bbe       ?SendCommand@CScriptObjectServerSlot@@AAEHPAUIFunctionHandler@@@Z 33054bbe f   ScriptObjectServerSlot.obj
 0001:00053d8f       ?ResetPlayTime@CScriptObjectServerSlot@@AAEHPAUIFunctionHandler@@@Z 33054d8f f   ScriptObjectServerSlot.obj
 0001:00053da3       ?GetPlayTime@CScriptObjectServerSlot@@AAEHPAUIFunctionHandler@@@Z 33054da3 f   ScriptObjectServerSlot.obj
 0001:00053dc1       ?Create@CScriptObjectServerSlot@@QAEXPAUIScriptSystem@@@Z 33054dc1 f   ScriptObjectServerSlot.obj
 0001:00053dd2       ?InitializeTemplate@CScriptObjectServerSlot@@SAXPAUIScriptSystem@@@Z 33054dd2 f   ScriptObjectServerSlot.obj
 0001:00053f1b       ?ResetPlayTime@CXServerSlot@@QAEXXZ 33054f1b f i ScriptObjectServerSlot.obj
 0001:00053f31       ?GetPlayTime@CXServerSlot@@QAEMXZ 33054f31 f i ScriptObjectServerSlot.obj
 0001:00053f47       ??1?$_ScriptableEx@VCScriptObjectServerSlot@@@@UAE@XZ 33054f47 f i ScriptObjectServerSlot.obj
 0001:00053f7e       ??_E?$_ScriptableEx@VCScriptObjectServerSlot@@@@UAEPAXI@Z 33054f7e f i ScriptObjectServerSlot.obj
 0001:00053f7e       ??_G?$_ScriptableEx@VCScriptObjectServerSlot@@@@UAEPAXI@Z 33054f7e f i ScriptObjectServerSlot.obj
 0001:00053f9a       ?Init@?$_ScriptableEx@VCScriptObjectServerSlot@@@@QAEXPAUIScriptSystem@@PAVCScriptObjectServerSlot@@@Z 33054f9a f i ScriptObjectServerSlot.obj
 0001:00054006       ??_GCScriptObjectServerSlot@@UAEPAXI@Z 33055006 f i ScriptObjectServerSlot.obj
 0001:00054006       ??_ECScriptObjectServerSlot@@UAEPAXI@Z 33055006 f i ScriptObjectServerSlot.obj
 0001:00054022       ?FuncThunk@?$_ScriptableEx@VCScriptObjectServerSlot@@@@KAHPAX@Z 33055022 f i ScriptObjectServerSlot.obj
 0001:00054084       ?_M_insert_overflow@?$vector@P8CScriptObjectServerSlot@@AEHPAUIFunctionHandler@@@ZV?$allocator@P8CScriptObjectServerSlot@@AEHPAUIFunctionHandler@@@Z@_STL@@@_STL@@IAEXPAP8CScriptObjectServerSlot@@AEHPAUIFunctionHandler@@@ZABQ83@AEH0@ZABU__false_type@2@I_N@Z 33055084 f i ScriptObjectServerSlot.obj
 0001:00054171       ?push_back@?$vector@P8CScriptObjectServerSlot@@AEHPAUIFunctionHandler@@@ZV?$allocator@P8CScriptObjectServerSlot@@AEHPAUIFunctionHandler@@@Z@_STL@@@_STL@@QAEXABQ8CScriptObjectServerSlot@@AEHPAUIFunctionHandler@@@Z@Z 33055171 f i ScriptObjectServerSlot.obj
 0001:000541a2       ?RegisterFunction@?$_ScriptableEx@VCScriptObjectServerSlot@@@@SAXPAUIScriptSystem@@PBDP8CScriptObjectServerSlot@@AEHPAUIFunctionHandler@@@Z@Z 330551a2 f i ScriptObjectServerSlot.obj
 0001:000541f2       ?SetHost@CScriptObjectSpectator@@QAEHPAUIFunctionHandler@@@Z 330551f2 f   ScriptObjectSpectator.obj
 0001:00054263       ?GetHost@CScriptObjectSpectator@@QAEHPAUIFunctionHandler@@@Z 33055263 f   ScriptObjectSpectator.obj
 0001:00054279       ??0CScriptObjectSpectator@@QAE@XZ 33055279 f   ScriptObjectSpectator.obj
 0001:0005429b       ??1CScriptObjectSpectator@@UAE@XZ 3305529b f   ScriptObjectSpectator.obj
 0001:000542ad       ?Create@CScriptObjectSpectator@@QAE_NPAUIScriptSystem@@PAVCSpectator@@@Z 330552ad f   ScriptObjectSpectator.obj
 0001:000542d6       ?InitializeTemplate@CScriptObjectSpectator@@SAXPAUIScriptSystem@@@Z 330552d6 f   ScriptObjectSpectator.obj
 0001:0005430e       ??1?$_ScriptableEx@VCScriptObjectSpectator@@@@UAE@XZ 3305530e f i ScriptObjectSpectator.obj
 0001:00054345       ??_G?$_ScriptableEx@VCScriptObjectSpectator@@@@UAEPAXI@Z 33055345 f i ScriptObjectSpectator.obj
 0001:00054345       ??_E?$_ScriptableEx@VCScriptObjectSpectator@@@@UAEPAXI@Z 33055345 f i ScriptObjectSpectator.obj
 0001:00054361       ?OnRelease@CScriptObjectAdvCamSystem@@UAEXXZ 33055361 f i XSystemBase.obj
 0001:00054361       ?OnRelease@CScriptObjectSpectator@@UAEXXZ 33055361 f i ScriptObjectSpectator.obj
 0001:00054361       ?OnRelease@CScriptObjectSynched2DTable@@UAEXXZ 33055361 f i XSystemBase.obj
 0001:00054361       ?OnRelease@CScriptObjectPlayer@@UAEXXZ 33055361 f i ScriptObjectPlayer.obj
 0001:00054371       ?Init@?$_ScriptableEx@VCScriptObjectSpectator@@@@QAEXPAUIScriptSystem@@PAVCScriptObjectSpectator@@@Z 33055371 f i ScriptObjectSpectator.obj
 0001:000543dd       ??_GCScriptObjectSpectator@@UAEPAXI@Z 330553dd f i ScriptObjectSpectator.obj
 0001:000543dd       ??_ECScriptObjectSpectator@@UAEPAXI@Z 330553dd f i ScriptObjectSpectator.obj
 0001:000543f9       ?FuncThunk@?$_ScriptableEx@VCScriptObjectSpectator@@@@KAHPAX@Z 330553f9 f i ScriptObjectSpectator.obj
 0001:00054462       ?_M_insert_overflow@?$vector@P8CScriptObjectSpectator@@AEHPAUIFunctionHandler@@@ZV?$allocator@P8CScriptObjectSpectator@@AEHPAUIFunctionHandler@@@Z@_STL@@@_STL@@IAEXPAP8CScriptObjectSpectator@@AEHPAUIFunctionHandler@@@ZABQ83@AEH0@ZABU__false_type@2@I_N@Z 33055462 f i ScriptObjectSpectator.obj
 0001:0005454f       ?push_back@?$vector@P8CScriptObjectSpectator@@AEHPAUIFunctionHandler@@@ZV?$allocator@P8CScriptObjectSpectator@@AEHPAUIFunctionHandler@@@Z@_STL@@@_STL@@QAEXABQ8CScriptObjectSpectator@@AEHPAUIFunctionHandler@@@Z@Z 3305554f f i ScriptObjectSpectator.obj
 0001:00054586       ?RegisterFunction@?$_ScriptableEx@VCScriptObjectSpectator@@@@SAXPAUIScriptSystem@@PBDP8CScriptObjectSpectator@@AEHPAUIFunctionHandler@@@Z@Z 33055586 f i ScriptObjectSpectator.obj
 0001:000545d6       ??1?$_ScriptableEx@VCScriptObjectStream@@@@UAE@XZ 330555d6 f i ScriptObjectStream.obj
 0001:0005460d       ??_G?$_ScriptableEx@VCScriptObjectStream@@@@UAEPAXI@Z 3305560d f i ScriptObjectStream.obj
 0001:0005460d       ??_E?$_ScriptableEx@VCScriptObjectStream@@@@UAEPAXI@Z 3305560d f i ScriptObjectStream.obj
 0001:00054629       ?__ntohl@CStream@@AAEII@Z  33055629 f i ScriptObjectStream.obj
 0001:00054629       ?__htonl@CStream@@AAEII@Z  33055629 f i ScriptObjectStream.obj
 0001:00054653       ?Debug@CStream@@QAEXPBD@Z  33055653 f i ScriptObjectStream.obj
 0001:000546d9       ?GetBit@CStream@@QAE_NIAA_N@Z 330556d9 f i ScriptObjectStream.obj
 0001:00054710       ?ReadNumberInBits@CStream@@QAE_NAAII@Z 33055710 f i ScriptObjectStream.obj
 0001:0005475f       ?WriteNumberInBits@CStream@@QAE_NHI@Z 3305575f f i ScriptObjectStream.obj
 0001:000547a2       ?Read@CStream@@QAE_NAA_N@Z 330557a2 f i ScriptObjectStream.obj
 0001:000547cf       ?Read@CStream@@QAE_NPADK@Z 330557cf f i ScriptObjectStream.obj
 0001:000547f9       ??0CScriptObjectStream@@QAE@XZ 330557f9 f   ScriptObjectStream.obj
 0001:0005480d       ??1CScriptObjectStream@@UAE@XZ 3305580d f   ScriptObjectStream.obj
 0001:00054818       ?WriteInt@CScriptObjectStream@@QAEHPAUIFunctionHandler@@@Z 33055818 f   ScriptObjectStream.obj
 0001:0005488b       ?WriteShort@CScriptObjectStream@@QAEHPAUIFunctionHandler@@@Z 3305588b f   ScriptObjectStream.obj
 0001:000548fe       ?WriteByte@CScriptObjectStream@@QAEHPAUIFunctionHandler@@@Z 330558fe f   ScriptObjectStream.obj
 0001:00054971       ?WriteFloat@CScriptObjectStream@@QAEHPAUIFunctionHandler@@@Z 33055971 f   ScriptObjectStream.obj
 0001:000549e4       ?WriteString@CScriptObjectStream@@QAEHPAUIFunctionHandler@@@Z 330559e4 f   ScriptObjectStream.obj
 0001:00054a4d       ?WriteNumberInBits@CScriptObjectStream@@QAEHPAUIFunctionHandler@@@Z 33055a4d f   ScriptObjectStream.obj
 0001:00054ac7       ?ReadInt@CScriptObjectStream@@QAEHPAUIFunctionHandler@@@Z 33055ac7 f   ScriptObjectStream.obj
 0001:00054b31       ?ReadShort@CScriptObjectStream@@QAEHPAUIFunctionHandler@@@Z 33055b31 f   ScriptObjectStream.obj
 0001:00054b9f       ?ReadByte@CScriptObjectStream@@QAEHPAUIFunctionHandler@@@Z 33055b9f f   ScriptObjectStream.obj
 0001:00054c0d       ?ReadFloat@CScriptObjectStream@@QAEHPAUIFunctionHandler@@@Z 33055c0d f   ScriptObjectStream.obj
 0001:00054c7d       ?ReadString@CScriptObjectStream@@QAEHPAUIFunctionHandler@@@Z 33055c7d f   ScriptObjectStream.obj
 0001:00054cf9       ?ReadBool@CScriptObjectStream@@QAEHPAUIFunctionHandler@@@Z 33055cf9 f   ScriptObjectStream.obj
 0001:00054d61       ?ReadNumberInBits@CScriptObjectStream@@QAEHPAUIFunctionHandler@@@Z 33055d61 f   ScriptObjectStream.obj
 0001:00054df6       ?Create@CScriptObjectStream@@QAE_NPAUIScriptSystem@@@Z 33055df6 f   ScriptObjectStream.obj
 0001:00054e09       ?WriteBool@CScriptObjectStream@@QAEHPAUIFunctionHandler@@@Z 33055e09 f   ScriptObjectStream.obj
 0001:00054e72       ?InitializeTemplate@CScriptObjectStream@@SAXPAUIScriptSystem@@@Z 33055e72 f   ScriptObjectStream.obj
 0001:00054f68       ?Init@?$_ScriptableEx@VCScriptObjectStream@@@@QAEXPAUIScriptSystem@@PAVCScriptObjectStream@@@Z 33055f68 f i ScriptObjectStream.obj
 0001:00054fd4       ?SetBit@CStream@@QAE_NIK@Z 33055fd4 f i ScriptObjectStream.obj
 0001:0005502c       ?Write@CStream@@QAE_N_N@Z  3305602c f i ScriptObjectStream.obj
 0001:0005504a       ??_ECScriptObjectStream@@UAEPAXI@Z 3305604a f i ScriptObjectStream.obj
 0001:0005504a       ??_GCScriptObjectStream@@UAEPAXI@Z 3305604a f i ScriptObjectStream.obj
 0001:00055066       ?FuncThunk@?$_ScriptableEx@VCScriptObjectStream@@@@KAHPAX@Z 33056066 f i ScriptObjectStream.obj
 0001:000550c8       ?_M_insert_overflow@?$vector@P8CScriptObjectStream@@AEHPAUIFunctionHandler@@@ZV?$allocator@P8CScriptObjectStream@@AEHPAUIFunctionHandler@@@Z@_STL@@@_STL@@IAEXPAP8CScriptObjectStream@@AEHPAUIFunctionHandler@@@ZABQ83@AEH0@ZABU__false_type@2@I_N@Z 330560c8 f i ScriptObjectStream.obj
 0001:000551b5       ?push_back@?$vector@P8CScriptObjectStream@@AEHPAUIFunctionHandler@@@ZV?$allocator@P8CScriptObjectStream@@AEHPAUIFunctionHandler@@@Z@_STL@@@_STL@@QAEXABQ8CScriptObjectStream@@AEHPAUIFunctionHandler@@@Z@Z 330561b5 f i ScriptObjectStream.obj
 0001:000551e6       ?RegisterFunction@?$_ScriptableEx@VCScriptObjectStream@@@@SAXPAUIScriptSystem@@PBDP8CScriptObjectStream@@AEHPAUIFunctionHandler@@@Z@Z 330561e6 f i ScriptObjectStream.obj
 0001:00055236       ?IsFloat@STableEntry@CSynched2DTable@@QBE_NXZ 33056236 f i ScriptObjectSynched2DTable.obj
 0001:0005524e       ?GetLineCount@CScriptObjectSynched2DTable@@QAEHPAUIFunctionHandler@@@Z 3305624e f   ScriptObjectSynched2DTable.obj
 0001:000552a4       ?GetColumnCount@CScriptObjectSynched2DTable@@QAEHPAUIFunctionHandler@@@Z 330562a4 f   ScriptObjectSynched2DTable.obj
 0001:000552fa       ?Create@CScriptObjectSynched2DTable@@QAE_NPAUIScriptSystem@@PAVCSynched2DTable@@@Z 330562fa f   ScriptObjectSynched2DTable.obj
 0001:00055323       ?SetEntryXY@CScriptObjectSynched2DTable@@QAEHPAUIFunctionHandler@@@Z 33056323 f   ScriptObjectSynched2DTable.obj
 0001:0005542b       ?SetEntriesY@CScriptObjectSynched2DTable@@QAEHPAUIFunctionHandler@@@Z 3305642b f   ScriptObjectSynched2DTable.obj
 0001:00055518       ?GetEntryFloatXY@CScriptObjectSynched2DTable@@QAEHPAUIFunctionHandler@@@Z 33056518 f   ScriptObjectSynched2DTable.obj
 0001:000555e6       ?GetEntryXY@CScriptObjectSynched2DTable@@QAEHPAUIFunctionHandler@@@Z 330565e6 f   ScriptObjectSynched2DTable.obj
 0001:000556f1       ?InitializeTemplate@CScriptObjectSynched2DTable@@SAXPAUIScriptSystem@@@Z 330566f1 f   ScriptObjectSynched2DTable.obj
 0001:0005577c       ?Init@?$_ScriptableEx@VCScriptObjectSynched2DTable@@@@QAEXPAUIScriptSystem@@PAVCScriptObjectSynched2DTable@@@Z 3305677c f i ScriptObjectSynched2DTable.obj
 0001:000557e8       ?FuncThunk@?$_ScriptableEx@VCScriptObjectSynched2DTable@@@@KAHPAX@Z 330567e8 f i ScriptObjectSynched2DTable.obj
 0001:00055851       ?_M_insert_overflow@?$vector@P8CScriptObjectSynched2DTable@@AEHPAUIFunctionHandler@@@ZV?$allocator@P8CScriptObjectSynched2DTable@@AEHPAUIFunctionHandler@@@Z@_STL@@@_STL@@IAEXPAP8CScriptObjectSynched2DTable@@AEHPAUIFunctionHandler@@@ZABQ83@AEH0@ZABU__false_type@2@I_N@Z 33056851 f i ScriptObjectSynched2DTable.obj
 0001:0005593e       ??0STableEntry@CSynched2DTable@@QAE@XZ 3305693e f i ScriptObjectSynched2DTable.obj
 0001:00055953       ?push_back@?$vector@P8CScriptObjectSynched2DTable@@AEHPAUIFunctionHandler@@@ZV?$allocator@P8CScriptObjectSynched2DTable@@AEHPAUIFunctionHandler@@@Z@_STL@@@_STL@@QAEXABQ8CScriptObjectSynched2DTable@@AEHPAUIFunctionHandler@@@Z@Z 33056953 f i ScriptObjectSynched2DTable.obj
 0001:0005598a       ?RegisterFunction@?$_ScriptableEx@VCScriptObjectSynched2DTable@@@@SAXPAUIScriptSystem@@PBDP8CScriptObjectSynched2DTable@@AEHPAUIFunctionHandler@@@Z@Z 3305698a f i ScriptObjectSynched2DTable.obj
 0001:000559da       ??0STableEntry@CSynched2DTable@@QAE@ABU01@@Z 330569da f i ScriptObjectSynched2DTable.obj
 0001:00055a1e       ?GetString@STableEntry@CSynched2DTable@@QBE?AV?$basic_string@DU?$char_traits@D@std@@V?$allocator@D@_STL@@@_STL@@XZ 33056a1e f i ScriptObjectSynched2DTable.obj
 0001:00055a39       ?GetX@STableLine@CSynched2DTable@@QAE?AUSTableEntry@2@I@Z 33056a39 f i ScriptObjectSynched2DTable.obj
 0001:00055a7a       ?GetXY@STable@CSynched2DTable@@QAE?AUSTableEntry@2@II@Z 33056a7a f i ScriptObjectSynched2DTable.obj
 0001:00055acd       ?GetVehicle@CScriptObjectVehicle@@QAEPAVCVehicle@@XZ 33056acd f   ScriptObjectVehicle.obj
 0001:00055ad1       ?HasAccelerated@CScriptObjectVehicle@@QAEHPAUIFunctionHandler@@@Z 33056ad1 f   ScriptObjectVehicle.obj
 0001:00055b35       ?IsBreaking@CScriptObjectVehicle@@QAEHPAUIFunctionHandler@@@Z 33056b35 f   ScriptObjectVehicle.obj
 0001:00055b8f       ?HandBreak@CScriptObjectVehicle@@QAEHPAUIFunctionHandler@@@Z 33056b8f f   ScriptObjectVehicle.obj
 0001:00055c01       ?SetGravity@CScriptObjectVehicle@@QAEHPAUIFunctionHandler@@@Z 33056c01 f   ScriptObjectVehicle.obj
 0001:00055c0d       ?EnableLights@CScriptObjectVehicle@@QAEHPAUIFunctionHandler@@@Z 33056c0d f   ScriptObjectVehicle.obj
 0001:00055c7f       ?SetWeaponLimits@CScriptObjectVehicle@@QAEHPAUIFunctionHandler@@@Z 33056c7f f   ScriptObjectVehicle.obj
 0001:00055d6c       ?AnimateMountedWeapon@CScriptObjectVehicle@@QAEHPAUIFunctionHandler@@@Z 33056d6c f   ScriptObjectVehicle.obj
 0001:00055df7       ??1CScriptObjectVehicle@@UAE@XZ 33056df7 f   ScriptObjectVehicle.obj
 0001:00055e80       ?SetVehicleEngineHealth@CScriptObjectVehicle@@QAEHPAUIFunctionHandler@@@Z 33056e80 f   ScriptObjectVehicle.obj
 0001:00055edb       ?SetUser@CScriptObjectVehicle@@QAEHPAUIFunctionHandler@@@Z 33056edb f   ScriptObjectVehicle.obj
 0001:000560cf       ?SetDrivingParameters@CScriptObjectVehicle@@QAEHPAUIFunctionHandler@@@Z 330570cf f   ScriptObjectVehicle.obj
 0001:0005638a       ?SetWaterVehicleParameters@CScriptObjectVehicle@@QAEHPAUIFunctionHandler@@@Z 3305738a f   ScriptObjectVehicle.obj
 0001:0005661c       ??0CScriptObjectVehicle@@QAE@XZ 3305761c f   ScriptObjectVehicle.obj
 0001:0005664a       ?Create@CScriptObjectVehicle@@QAE_NPAUIScriptSystem@@PAUIEntitySystem@@@Z 3305764a f   ScriptObjectVehicle.obj
 0001:0005669a       ?ReleaseUser@CScriptObjectVehicle@@QAEHPAUIFunctionHandler@@@Z 3305769a f   ScriptObjectVehicle.obj
 0001:0005695a       ?GetWheelStatus@CScriptObjectVehicle@@QAEHPAUIFunctionHandler@@@Z 3305795a f   ScriptObjectVehicle.obj
 0001:00056a8e       ?GetVehicleVelocity@CScriptObjectVehicle@@QAEHPAUIFunctionHandler@@@Z 33057a8e f   ScriptObjectVehicle.obj
 0001:00056b1f       ?GetVehicleStatus@CScriptObjectVehicle@@QAEHPAUIFunctionHandler@@@Z 33057b1f f   ScriptObjectVehicle.obj
 0001:00056c1e       ?WakeUp@CScriptObjectVehicle@@QAEHPAUIFunctionHandler@@@Z 33057c1e f   ScriptObjectVehicle.obj
 0001:00056ca0       ?SetCameraParameters@CScriptObjectVehicle@@QAEHPAUIFunctionHandler@@@Z 33057ca0 f   ScriptObjectVehicle.obj
 0001:00056ede       ?GetVertDeviation@CScriptObjectVehicle@@QAEHPAUIFunctionHandler@@@Z 33057ede f   ScriptObjectVehicle.obj
 0001:00057278       ?AnimateUsers@CScriptObjectVehicle@@QAEHPAUIFunctionHandler@@@Z 33058278 f   ScriptObjectVehicle.obj
 0001:00057310       ?ReleaseTemplate@CScriptObjectVehicle@@SAXXZ 33058310 f   ScriptObjectVehicle.obj
 0001:00057315       ?InitLights@CScriptObjectVehicle@@QAEHPAUIFunctionHandler@@@Z 33058315 f   ScriptObjectVehicle.obj
 0001:00057529       ?SetWeaponName@CScriptObjectVehicle@@QAEHPAUIFunctionHandler@@@Z 33058529 f   ScriptObjectVehicle.obj
 0001:000575b6       ?InitializeTemplate@CScriptObjectVehicle@@SAXPAUIScriptSystem@@@Z 330585b6 f   ScriptObjectVehicle.obj
 0001:000577ba       ?SetVehicle@CScriptObjectVehicle@@QAEXPAVCVehicle@@@Z 330587ba f   ScriptObjectVehicle.obj
 0001:000577dc       ??1?$_ScriptableEx@VCScriptObjectVehicle@@@@UAE@XZ 330587dc f i ScriptObjectVehicle.obj
 0001:00057813       ??_E?$_ScriptableEx@VCScriptObjectVehicle@@@@UAEPAXI@Z 33058813 f i ScriptObjectVehicle.obj
 0001:00057813       ??_G?$_ScriptableEx@VCScriptObjectVehicle@@@@UAEPAXI@Z 33058813 f i ScriptObjectVehicle.obj
 0001:0005782f       ?OnRelease@CScriptObjectVehicle@@UAEXXZ 3305882f f i ScriptObjectVehicle.obj
 0001:0005783d       ??_ECScriptObjectVehicle@@W3AEPAXI@Z 3305883d f i ScriptObjectVehicle.obj
 0001:00057845       ?Init@?$_ScriptableEx@VCScriptObjectVehicle@@@@QAEXPAUIScriptSystem@@PAVCScriptObjectVehicle@@@Z 33058845 f i ScriptObjectVehicle.obj
 0001:000578b1       ?GetThunk@?$_ScriptableEx@VCScriptObjectVehicle@@@@KAHPAX@Z 330588b1 f i ScriptObjectVehicle.obj
 0001:0005799a       ??0pe_params_pos@@QAE@XZ   3305899a f i ScriptObjectVehicle.obj
 0001:000579dd       ??_ECScriptObjectVehicle@@UAEPAXI@Z 330589dd f i ScriptObjectVehicle.obj
 0001:000579dd       ??_GCScriptObjectVehicle@@UAEPAXI@Z 330589dd f i ScriptObjectVehicle.obj
 0001:000579f9       ?FuncThunk@?$_ScriptableEx@VCScriptObjectVehicle@@@@KAHPAX@Z 330589f9 f i ScriptObjectVehicle.obj
 0001:00057a62       ??1?$_Vector_base@P8CScriptObjectVehicle@@AEHPAUIFunctionHandler@@@ZV?$allocator@P8CScriptObjectVehicle@@AEHPAUIFunctionHandler@@@Z@_STL@@@_STL@@QAE@XZ 33058a62 f i ScriptObjectVehicle.obj
 0001:00057a62       ??1?$_Vector_base@P8CUIVideoPanel@@AEHPAUIFunctionHandler@@@ZV?$allocator@P8CUIVideoPanel@@AEHPAUIFunctionHandler@@@Z@_STL@@@_STL@@QAE@XZ 33058a62 f i UIVideoPanel.obj
 0001:00057a62       ??1?$_Vector_base@P8CUICheckBox@@AEHPAUIFunctionHandler@@@ZV?$allocator@P8CUICheckBox@@AEHPAUIFunctionHandler@@@Z@_STL@@@_STL@@QAE@XZ 33058a62 f i UICheckBox.obj
 0001:00057a62       ??1?$_Vector_base@P8CScriptObjectSynched2DTable@@AEHPAUIFunctionHandler@@@ZV?$allocator@P8CScriptObjectSynched2DTable@@AEHPAUIFunctionHandler@@@Z@_STL@@@_STL@@QAE@XZ 33058a62 f i ScriptObjectSynched2DTable.obj
 0001:00057a62       ??1?$_Vector_base@P8CUIComboBox@@AEHPAUIFunctionHandler@@@ZV?$allocator@P8CUIComboBox@@AEHPAUIFunctionHandler@@@Z@_STL@@@_STL@@QAE@XZ 33058a62 f i UIComboBox.obj
 0001:00057a62       ??1?$_Vector_base@P8CScriptObjectWeaponClass@@AEHPAUIFunctionHandler@@@ZV?$allocator@P8CScriptObjectWeaponClass@@AEHPAUIFunctionHandler@@@Z@_STL@@@_STL@@QAE@XZ 33058a62 f i ScriptObjectWeaponClass.obj
 0001:00057a62       ??1?$_Vector_base@P8CUIEditBox@@AEHPAUIFunctionHandler@@@ZV?$allocator@P8CUIEditBox@@AEHPAUIFunctionHandler@@@Z@_STL@@@_STL@@QAE@XZ 33058a62 f i UIEditBox.obj
 0001:00057a62       ??1?$_Vector_base@P8CScriptObjectSpectator@@AEHPAUIFunctionHandler@@@ZV?$allocator@P8CScriptObjectSpectator@@AEHPAUIFunctionHandler@@@Z@_STL@@@_STL@@QAE@XZ 33058a62 f i ScriptObjectSpectator.obj
 0001:00057a62       ??1?$_Vector_base@P8CUIButton@@AEHPAUIFunctionHandler@@@ZV?$allocator@P8CUIButton@@AEHPAUIFunctionHandler@@@Z@_STL@@@_STL@@QAE@XZ 33058a62 f i UIButton.obj
 0001:00057a62       ??1?$_Vector_base@P8CScriptObjectPlayer@@AEHPAUIFunctionHandler@@@ZV?$allocator@P8CScriptObjectPlayer@@AEHPAUIFunctionHandler@@@Z@_STL@@@_STL@@QAE@XZ 33058a62 f i ScriptObjectPlayer.obj
 0001:00057a62       ??1?$_Vector_base@P8CUIScrollBar@@AEHPAUIFunctionHandler@@@ZV?$allocator@P8CUIScrollBar@@AEHPAUIFunctionHandler@@@Z@_STL@@@_STL@@QAE@XZ 33058a62 f i UIScrollBar.obj
 0001:00057a62       ??1?$_Vector_base@P8CScriptObjectAdvCamSystem@@AEHPAUIFunctionHandler@@@ZV?$allocator@P8CScriptObjectAdvCamSystem@@AEHPAUIFunctionHandler@@@Z@_STL@@@_STL@@QAE@XZ 33058a62 f i ScriptObjectAdvCamSystem.obj
 0001:00057a62       ??1?$_Vector_base@P8CUIListView@@AEHPAUIFunctionHandler@@@ZV?$allocator@P8CUIListView@@AEHPAUIFunctionHandler@@@Z@_STL@@@_STL@@QAE@XZ 33058a62 f i UIListView.obj
 0001:00057a62       ??1?$_Vector_base@P8CUIStatic@@AEHPAUIFunctionHandler@@@ZV?$allocator@P8CUIStatic@@AEHPAUIFunctionHandler@@@Z@_STL@@@_STL@@QAE@XZ 33058a62 f i UIStatic.obj
 0001:00057a7a       ??1?$_Vector_base@PAUProperty@?$_ScriptableEx@VCScriptObjectPlayer@@@@V?$allocator@PAUProperty@?$_ScriptableEx@VCScriptObjectPlayer@@@@@_STL@@@_STL@@QAE@XZ 33058a7a f i ScriptObjectPlayer.obj
 0001:00057a7a       ??1?$_Vector_base@PAUProperty@?$_ScriptableEx@VCScriptObjectStream@@@@V?$allocator@PAUProperty@?$_ScriptableEx@VCScriptObjectStream@@@@@_STL@@@_STL@@QAE@XZ 33058a7a f i Game.obj
 0001:00057a7a       ??1?$_Vector_base@PAUProperty@?$_ScriptableEx@VCScriptObjectLanguage@@@@V?$allocator@PAUProperty@?$_ScriptableEx@VCScriptObjectLanguage@@@@@_STL@@@_STL@@QAE@XZ 33058a7a f i Game.obj
 0001:00057a7a       ??1?$_Vector_base@P8CScriptObjectStream@@AEHPAUIFunctionHandler@@@ZV?$allocator@P8CScriptObjectStream@@AEHPAUIFunctionHandler@@@Z@_STL@@@_STL@@QAE@XZ 33058a7a f i ScriptObjectStream.obj
 0001:00057a7a       ??1?$_Vector_base@PAUProperty@?$_ScriptableEx@VCUIScreen@@@@V?$allocator@PAUProperty@?$_ScriptableEx@VCUIScreen@@@@@_STL@@@_STL@@QAE@XZ 33058a7a f i UISystem.obj
 0001:00057a7a       ??1?$_Vector_base@P8CScriptObjectClient@@AEHPAUIFunctionHandler@@@ZV?$allocator@P8CScriptObjectClient@@AEHPAUIFunctionHandler@@@Z@_STL@@@_STL@@QAE@XZ 33058a7a f i ScriptObjectClient.obj
 0001:00057a7a       ??1?$_Vector_base@PAUProperty@?$_ScriptableEx@VCScriptObjectServer@@@@V?$allocator@PAUProperty@?$_ScriptableEx@VCScriptObjectServer@@@@@_STL@@@_STL@@QAE@XZ 33058a7a f i Game.obj
 0001:00057a7a       ??1?$_Vector_base@P8CScriptObjectServer@@AEHPAUIFunctionHandler@@@ZV?$allocator@P8CScriptObjectServer@@AEHPAUIFunctionHandler@@@Z@_STL@@@_STL@@QAE@XZ 33058a7a f i ScriptObjectServer.obj
 0001:00057a7a       ??1?$_Vector_base@PAUProperty@?$_ScriptableEx@VCScriptObjectSynched2DTable@@@@V?$allocator@PAUProperty@?$_ScriptableEx@VCScriptObjectSynched2DTable@@@@@_STL@@@_STL@@QAE@XZ 33058a7a f i Game.obj
 0001:00057a7a       ??1?$_Vector_base@PAUProperty@?$_ScriptableEx@VCScriptObjectServerSlot@@@@V?$allocator@PAUProperty@?$_ScriptableEx@VCScriptObjectServerSlot@@@@@_STL@@@_STL@@QAE@XZ 33058a7a f i Game.obj
 0001:00057a7a       ??1?$_Vector_base@PAUa2DSegment@CXArea@@V?$allocator@PAUa2DSegment@CXArea@@@_STL@@@_STL@@QAE@XZ 33058a7a f i XArea.obj
 0001:00057a7a       ??1?$_Vector_base@P8CScriptObjectBoids@@AEHPAUIFunctionHandler@@@ZV?$allocator@P8CScriptObjectBoids@@AEHPAUIFunctionHandler@@@Z@_STL@@@_STL@@QAE@XZ 33058a7a f i ScriptObjectBoids.obj
 0001:00057a7a       ??1?$_Vector_base@PAUProperty@?$_ScriptableEx@VCUIVideoPanel@@@@V?$allocator@PAUProperty@?$_ScriptableEx@VCUIVideoPanel@@@@@_STL@@@_STL@@QAE@XZ 33058a7a f i UISystem.obj
 0001:00057a7a       ??1?$_Vector_base@PAUProperty@?$_ScriptableEx@VCUIStatic@@@@V?$allocator@PAUProperty@?$_ScriptableEx@VCUIStatic@@@@@_STL@@@_STL@@QAE@XZ 33058a7a f i UISystem.obj
 0001:00057a7a       ??1?$_Vector_base@PAVCScriptObjectFireParam@@V?$allocator@PAVCScriptObjectFireParam@@@_STL@@@_STL@@QAE@XZ 33058a7a f i ScriptObjectWeaponClass.obj
 0001:00057a7a       ??1?$_Vector_base@PAUProperty@?$_ScriptableEx@VCUIComboBox@@@@V?$allocator@PAUProperty@?$_ScriptableEx@VCUIComboBox@@@@@_STL@@@_STL@@QAE@XZ 33058a7a f i UISystem.obj
 0001:00057a7a       ??1?$_Vector_base@PAVCProjectileClass@@V?$allocator@PAVCProjectileClass@@@_STL@@@_STL@@QAE@XZ 33058a7a f i WeaponSystemEx.obj
 0001:00057a7a       ??1?$_Vector_base@P8CUIScreen@@AEHPAUIFunctionHandler@@@ZV?$allocator@P8CUIScreen@@AEHPAUIFunctionHandler@@@Z@_STL@@@_STL@@QAE@XZ 33058a7a f i UIScreen.obj
 0001:00057a7a       ??1?$_Vector_base@PAUProperty@?$_ScriptableEx@VCUIButton@@@@V?$allocator@PAUProperty@?$_ScriptableEx@VCUIButton@@@@@_STL@@@_STL@@QAE@XZ 33058a7a f i UISystem.obj
 0001:00057a7a       ??1?$_Vector_base@PAUProperty@?$_ScriptableEx@VCUICheckBox@@@@V?$allocator@PAUProperty@?$_ScriptableEx@VCUICheckBox@@@@@_STL@@@_STL@@QAE@XZ 33058a7a f i UISystem.obj
 0001:00057a7a       ??1?$_Vector_base@PAVCUIScreen@@V?$allocator@PAVCUIScreen@@@_STL@@@_STL@@QAE@XZ 33058a7a f i UISystem.obj
 0001:00057a7a       ??1?$_Vector_base@PAVCUIWidget@@V?$allocator@PAVCUIWidget@@@_STL@@@_STL@@QAE@XZ 33058a7a f i UIButton.obj
 0001:00057a7a       ??1?$_Vector_base@PAUIEntity@@V?$allocator@PAUIEntity@@@_STL@@@_STL@@QAE@XZ 33058a7a f i XClient.obj
 0001:00057a7a       ??1?$_Vector_base@PAUWeaponParams@@V?$allocator@PAUWeaponParams@@@_STL@@@_STL@@QAE@XZ 33058a7a f i WeaponClass.obj
 0001:00057a7a       ??1?$_Vector_base@P8CScriptObjectRenderer@@AEHPAUIFunctionHandler@@@ZV?$allocator@P8CScriptObjectRenderer@@AEHPAUIFunctionHandler@@@Z@_STL@@@_STL@@QAE@XZ 33058a7a f i ScriptObjectRenderer.obj
 0001:00057a7a       ??1?$_Vector_base@PAUProperty@?$_ScriptableEx@VCScriptObjectUI@@@@V?$allocator@PAUProperty@?$_ScriptableEx@VCScriptObjectUI@@@@@_STL@@@_STL@@QAE@XZ 33058a7a f i Game.obj
 0001:00057a7a       ??1?$_Vector_base@PAUProperty@?$_ScriptableEx@VCUIListView@@@@V?$allocator@PAUProperty@?$_ScriptableEx@VCUIListView@@@@@_STL@@@_STL@@QAE@XZ 33058a7a f i UISystem.obj
 0001:00057a7a       ??1?$_Vector_base@PAUSGameModDescription@@V?$allocator@PAUSGameModDescription@@@_STL@@@_STL@@QAE@XZ 33058a7a f i GameMods.obj
 0001:00057a7a       ??1?$_Vector_base@KV?$allocator@K@_STL@@@_STL@@QAE@XZ 33058a7a f i XNetworkStats.obj
 0001:00057a7a       ??1?$_Vector_base@PAUProperty@?$_ScriptableEx@VCScriptObjectRenderer@@@@V?$allocator@PAUProperty@?$_ScriptableEx@VCScriptObjectRenderer@@@@@_STL@@@_STL@@QAE@XZ 33058a7a f i Game.obj
 0001:00057a7a       ??1?$_Vector_base@P8CScriptObjectInput@@AEHPAUIFunctionHandler@@@ZV?$allocator@P8CScriptObjectInput@@AEHPAUIFunctionHandler@@@Z@_STL@@@_STL@@QAE@XZ 33058a7a f i ScriptObjectInput.obj
 0001:00057a7a       ??1?$_Vector_base@PAUProperty@?$_ScriptableEx@VCScriptObjectAdvCamSystem@@@@V?$allocator@PAUProperty@?$_ScriptableEx@VCScriptObjectAdvCamSystem@@@@@_STL@@@_STL@@QAE@XZ 33058a7a f i Game.obj
 0001:00057a7a       ??1?$_Vector_base@PAUProperty@?$_ScriptableEx@VCUIEditBox@@@@V?$allocator@PAUProperty@?$_ScriptableEx@VCUIEditBox@@@@@_STL@@@_STL@@QAE@XZ 33058a7a f i UISystem.obj
 0001:00057a7a       ??1?$_Vector_base@P8CScriptObjectLanguage@@AEHPAUIFunctionHandler@@@ZV?$allocator@P8CScriptObjectLanguage@@AEHPAUIFunctionHandler@@@Z@_STL@@@_STL@@QAE@XZ 33058a7a f i ScriptObjectLanguage.obj
 0001:00057a7a       ??1?$_Vector_base@PAUProperty@?$_ScriptableEx@VCUIScrollBar@@@@V?$allocator@PAUProperty@?$_ScriptableEx@VCUIScrollBar@@@@@_STL@@@_STL@@QAE@XZ 33058a7a f i UISystem.obj
 0001:00057a7a       ??1?$_Vector_base@PAUProperty@?$_ScriptableEx@VCScriptObjectVehicle@@@@V?$allocator@PAUProperty@?$_ScriptableEx@VCScriptObjectVehicle@@@@@_STL@@@_STL@@QAE@XZ 33058a7a f i ScriptObjectVehicle.obj
 0001:00057a7a       ??1?$_Vector_base@PAVCBoidObject@@V?$allocator@PAVCBoidObject@@@_STL@@@_STL@@QAE@XZ 33058a7a f i Flock.obj
 0001:00057a7a       ??1?$_Vector_base@P8CScriptObjectGame@@AEHPAUIFunctionHandler@@@ZV?$allocator@P8CScriptObjectGame@@AEHPAUIFunctionHandler@@@Z@_STL@@@_STL@@QAE@XZ 33058a7a f i ScriptObjectGame.obj
 0001:00057a7a       ??1?$_Vector_base@PAVCXArea@@V?$allocator@PAVCXArea@@@_STL@@@_STL@@QAE@XZ 33058a7a f i XArea.obj
 0001:00057a7a       ??1?$_Vector_base@PAUIScriptObject@@V?$allocator@PAUIScriptObject@@@_STL@@@_STL@@QAE@XZ 33058a7a f i ScriptObjectGame.obj
 0001:00057a7a       ??1?$_Vector_base@PAUProperty@?$_ScriptableEx@VCScriptObjectInput@@@@V?$allocator@PAUProperty@?$_ScriptableEx@VCScriptObjectInput@@@@@_STL@@@_STL@@QAE@XZ 33058a7a f i Game.obj
 0001:00057a7a       ??1?$_Vector_base@PAUUIListItem@@V?$allocator@PAUUIListItem@@@_STL@@@_STL@@QAE@XZ 33058a7a f i UIListView.obj
 0001:00057a7a       ??1?$_Vector_base@P8CScriptObjectUI@@AEHPAUIFunctionHandler@@@ZV?$allocator@P8CScriptObjectUI@@AEHPAUIFunctionHandler@@@Z@_STL@@@_STL@@QAE@XZ 33058a7a f i ScriptObjectUI.obj
 0001:00057a7a       ??1?$_Vector_base@PAUProperty@?$_ScriptableEx@VCScriptObjectSpectator@@@@V?$allocator@PAUProperty@?$_ScriptableEx@VCScriptObjectSpectator@@@@@_STL@@@_STL@@QAE@XZ 33058a7a f i Game.obj
 0001:00057a7a       ??1?$_Vector_base@PAUIStatObj@@V?$allocator@PAUIStatObj@@@_STL@@@_STL@@QAE@XZ 33058a7a f i WeaponSystemEx.obj
 0001:00057a7a       ??1?$_Vector_base@PAUProperty@?$_ScriptableEx@VCScriptObjectFireParam@@@@V?$allocator@PAUProperty@?$_ScriptableEx@VCScriptObjectFireParam@@@@@_STL@@@_STL@@QAE@XZ 33058a7a f i ScriptObjectWeaponClass.obj
 0001:00057a7a       ??1?$_Vector_base@PAUProperty@?$_ScriptableEx@VCScriptObjectGame@@@@V?$allocator@PAUProperty@?$_ScriptableEx@VCScriptObjectGame@@@@@_STL@@@_STL@@QAE@XZ 33058a7a f i Game.obj
 0001:00057a7a       ??1?$_Vector_base@PAVCWeaponClass@@V?$allocator@PAVCWeaponClass@@@_STL@@@_STL@@QAE@XZ 33058a7a f i WeaponSystemEx.obj
 0001:00057a7a       ??1?$_Vector_base@PAUProperty@?$_ScriptableEx@VCScriptObjectAI@@@@V?$allocator@PAUProperty@?$_ScriptableEx@VCScriptObjectAI@@@@@_STL@@@_STL@@QAE@XZ 33058a7a f i Game.obj
 0001:00057a7a       ??1?$_Vector_base@PAVCPlayer@@V?$allocator@PAVCPlayer@@@_STL@@@_STL@@QAE@XZ 33058a7a f i GameEquipPacks.obj
 0001:00057a7a       ??1?$_Vector_base@IV?$allocator@I@_STL@@@_STL@@QAE@XZ 33058a7a f i XServer.obj
 0001:00057a7a       ??1?$_Vector_base@P8CScriptObjectAI@@AEHPAUIFunctionHandler@@@ZV?$allocator@P8CScriptObjectAI@@AEHPAUIFunctionHandler@@@Z@_STL@@@_STL@@QAE@XZ 33058a7a f i ScriptObjectAI.obj
 0001:00057a7a       ??1?$_Vector_base@PAUProperty@?$_ScriptableEx@VCScriptObjectWeaponClass@@@@V?$allocator@PAUProperty@?$_ScriptableEx@VCScriptObjectWeaponClass@@@@@_STL@@@_STL@@QAE@XZ 33058a7a f i ScriptObjectWeaponClass.obj
 0001:00057a7a       ??1?$_Vector_base@PAUProperty@?$_ScriptableEx@VCScriptObjectBoids@@@@V?$allocator@PAUProperty@?$_ScriptableEx@VCScriptObjectBoids@@@@@_STL@@@_STL@@QAE@XZ 33058a7a f i Game.obj
 0001:00057a7a       ??1?$_Vector_base@PAVCFlock@@V?$allocator@PAVCFlock@@@_STL@@@_STL@@QAE@XZ 33058a7a f i Flock.obj
 0001:00057a7a       ??1?$_Vector_base@PAVCScriptObjectRenderer@@V?$allocator@PAVCScriptObjectRenderer@@@_STL@@@_STL@@QAE@XZ 33058a7a f i ScriptObjectGame.obj
 0001:00057a7a       ??1?$_Vector_base@PAUProperty@?$_ScriptableEx@VCScriptObjectClient@@@@V?$allocator@PAUProperty@?$_ScriptableEx@VCScriptObjectClient@@@@@_STL@@@_STL@@QAE@XZ 33058a7a f i Game.obj
 0001:00057a7a       ??1?$_Vector_base@P8CScriptObjectServerSlot@@AEHPAUIFunctionHandler@@@ZV?$allocator@P8CScriptObjectServerSlot@@AEHPAUIFunctionHandler@@@Z@_STL@@@_STL@@QAE@XZ 33058a7a f i ScriptObjectServerSlot.obj
 0001:00057a7a       ??1?$_Vector_base@HV?$allocator@H@_STL@@@_STL@@QAE@XZ 33058a7a f i UIListView.obj
 0001:00057a7a       ??1?$_Vector_base@PAUUIComboItem@@V?$allocator@PAUUIComboItem@@@_STL@@@_STL@@QAE@XZ 33058a7a f i UIComboBox.obj
 0001:00057a92       ??1?$vector@P8CScriptObjectPlayer@@AEHPAUIFunctionHandler@@@ZV?$allocator@P8CScriptObjectPlayer@@AEHPAUIFunctionHandler@@@Z@_STL@@@_STL@@QAE@XZ 33058a92 f i ScriptObjectPlayer.obj
 0001:00057a92       ??1?$vector@P8CUIComboBox@@AEHPAUIFunctionHandler@@@ZV?$allocator@P8CUIComboBox@@AEHPAUIFunctionHandler@@@Z@_STL@@@_STL@@QAE@XZ 33058a92 f i UIComboBox.obj
 0001:00057a92       ??1?$vector@P8CScriptObjectAdvCamSystem@@AEHPAUIFunctionHandler@@@ZV?$allocator@P8CScriptObjectAdvCamSystem@@AEHPAUIFunctionHandler@@@Z@_STL@@@_STL@@QAE@XZ 33058a92 f i ScriptObjectAdvCamSystem.obj
 0001:00057a92       ??1?$vector@P8CUIListView@@AEHPAUIFunctionHandler@@@ZV?$allocator@P8CUIListView@@AEHPAUIFunctionHandler@@@Z@_STL@@@_STL@@QAE@XZ 33058a92 f i UIListView.obj
 0001:00057a92       ??1?$vector@P8CUIScrollBar@@AEHPAUIFunctionHandler@@@ZV?$allocator@P8CUIScrollBar@@AEHPAUIFunctionHandler@@@Z@_STL@@@_STL@@QAE@XZ 33058a92 f i UIScrollBar.obj
 0001:00057a92       ??1?$vector@P8CUIButton@@AEHPAUIFunctionHandler@@@ZV?$allocator@P8CUIButton@@AEHPAUIFunctionHandler@@@Z@_STL@@@_STL@@QAE@XZ 33058a92 f i UIButton.obj
 0001:00057a92       ??1?$vector@P8CScriptObjectSynched2DTable@@AEHPAUIFunctionHandler@@@ZV?$allocator@P8CScriptObjectSynched2DTable@@AEHPAUIFunctionHandler@@@Z@_STL@@@_STL@@QAE@XZ 33058a92 f i ScriptObjectSynched2DTable.obj
 0001:00057a92       ??1?$vector@P8CUIVideoPanel@@AEHPAUIFunctionHandler@@@ZV?$allocator@P8CUIVideoPanel@@AEHPAUIFunctionHandler@@@Z@_STL@@@_STL@@QAE@XZ 33058a92 f i UIVideoPanel.obj
 0001:00057a92       ??1?$vector@P8CScriptObjectVehicle@@AEHPAUIFunctionHandler@@@ZV?$allocator@P8CScriptObjectVehicle@@AEHPAUIFunctionHandler@@@Z@_STL@@@_STL@@QAE@XZ 33058a92 f i ScriptObjectVehicle.obj
 0001:00057a92       ??1?$vector@P8CScriptObjectSpectator@@AEHPAUIFunctionHandler@@@ZV?$allocator@P8CScriptObjectSpectator@@AEHPAUIFunctionHandler@@@Z@_STL@@@_STL@@QAE@XZ 33058a92 f i ScriptObjectSpectator.obj
 0001:00057a92       ??1?$vector@P8CUIEditBox@@AEHPAUIFunctionHandler@@@ZV?$allocator@P8CUIEditBox@@AEHPAUIFunctionHandler@@@Z@_STL@@@_STL@@QAE@XZ 33058a92 f i UIEditBox.obj
 0001:00057a92       ??1?$vector@P8CScriptObjectWeaponClass@@AEHPAUIFunctionHandler@@@ZV?$allocator@P8CScriptObjectWeaponClass@@AEHPAUIFunctionHandler@@@Z@_STL@@@_STL@@QAE@XZ 33058a92 f i ScriptObjectWeaponClass.obj
 0001:00057a92       ??1?$vector@P8CUIStatic@@AEHPAUIFunctionHandler@@@ZV?$allocator@P8CUIStatic@@AEHPAUIFunctionHandler@@@Z@_STL@@@_STL@@QAE@XZ 33058a92 f i UIStatic.obj
 0001:00057a92       ??1?$vector@P8CUICheckBox@@AEHPAUIFunctionHandler@@@ZV?$allocator@P8CUICheckBox@@AEHPAUIFunctionHandler@@@Z@_STL@@@_STL@@QAE@XZ 33058a92 f i UICheckBox.obj
 0001:00057a97       ?AllowPropertiesMapping@?$_ScriptableEx@VCScriptObjectVehicle@@@@SAXPAUIScriptSystem@@@Z 33058a97 f i ScriptObjectVehicle.obj
 0001:00057add       ?_M_insert_overflow@?$vector@P8CScriptObjectVehicle@@AEHPAUIFunctionHandler@@@ZV?$allocator@P8CScriptObjectVehicle@@AEHPAUIFunctionHandler@@@Z@_STL@@@_STL@@IAEXPAP8CScriptObjectVehicle@@AEHPAUIFunctionHandler@@@ZABQ83@AEH0@ZABU__false_type@2@I_N@Z 33058add f i ScriptObjectVehicle.obj
 0001:00057bca       ?ReleaseTemplate@?$_ScriptableEx@VCScriptObjectVehicle@@@@SAXXZ 33058bca f i ScriptObjectVehicle.obj
 0001:00057c38       ?InsertProperty@?$_ScriptableEx@VCScriptObjectVehicle@@@@SAXPBDAAUProperty@1@@Z 33058c38 f i ScriptObjectVehicle.obj
 0001:00057ccf       ?push_back@?$vector@P8CScriptObjectVehicle@@AEHPAUIFunctionHandler@@@ZV?$allocator@P8CScriptObjectVehicle@@AEHPAUIFunctionHandler@@@Z@_STL@@@_STL@@QAEXABQ8CScriptObjectVehicle@@AEHPAUIFunctionHandler@@@Z@Z 33058ccf f i ScriptObjectVehicle.obj
 0001:00057d06       ?RegisterFunction@?$_ScriptableEx@VCScriptObjectVehicle@@@@SAXPAUIScriptSystem@@PBDP8CScriptObjectVehicle@@AEHPAUIFunctionHandler@@@Z@Z 33058d06 f i ScriptObjectVehicle.obj
 0001:00057d56       ?RegisterProperty@?$_ScriptableEx@VCScriptObjectVehicle@@@@SAXPBDW4PropertyType@1@I@Z 33058d56 f i ScriptObjectVehicle.obj
 0001:00057d77       ?SetThunk@?$_ScriptableEx@VCScriptObjectVehicle@@@@KAHPAX@Z 33058d77 f i ScriptObjectVehicle.obj
 0001:00057eb4       ?EnablePropertiesMapping@?$_ScriptableEx@VCScriptObjectVehicle@@@@QAE_NPAX@Z 33058eb4 f i ScriptObjectVehicle.obj
 0001:00057ed3       ?SetShaderFloat@CScriptObjectWeaponClass@@QAEHPAUIFunctionHandler@@@Z 33058ed3 f   ScriptObjectWeaponClass.obj
 0001:00057fa3       ?ResetAnimation@CScriptObjectWeaponClass@@QAEHPAUIFunctionHandler@@@Z 33058fa3 f   ScriptObjectWeaponClass.obj
 0001:00058003       ?GetAnimationLength@CScriptObjectWeaponClass@@QAEHPAUIFunctionHandler@@@Z 33059003 f   ScriptObjectWeaponClass.obj
 0001:0005808f       ?GetCurAnimation@CScriptObjectWeaponClass@@QAEHPAUIFunctionHandler@@@Z 3305908f f   ScriptObjectWeaponClass.obj
 0001:00058126       ?IsAnimationRunning@CScriptObjectWeaponClass@@QAEHPAUIFunctionHandler@@@Z 33059126 f   ScriptObjectWeaponClass.obj
 0001:0005819a       ?SetHoldingType@CScriptObjectWeaponClass@@QAEHPAUIFunctionHandler@@@Z 3305919a f   ScriptObjectWeaponClass.obj
 0001:00058204       ?AttachObjectToBone@CScriptObjectWeaponClass@@QAEHPAUIFunctionHandler@@@Z 33059204 f   ScriptObjectWeaponClass.obj
 0001:00058289       ?DetachObjectToBone@CScriptObjectWeaponClass@@QAEHPAUIFunctionHandler@@@Z 33059289 f   ScriptObjectWeaponClass.obj
 0001:00058303       ??0CScriptObjectFireParam@@QAE@XZ 33059303 f   ScriptObjectWeaponClass.obj
 0001:00058317       ??1CScriptObjectFireParam@@UAE@XZ 33059317 f   ScriptObjectWeaponClass.obj
 0001:00058322       ?SetAnimationKeyEvent@CScriptObjectWeaponClass@@QAEHPAUIFunctionHandler@@@Z 33059322 f   ScriptObjectWeaponClass.obj
 0001:000583e6       ?Create@CScriptObjectWeaponClass@@QAE_NPAVCXGame@@PAVCWeaponClass@@@Z 330593e6 f   ScriptObjectWeaponClass.obj
 0001:000584db       ?GetPos@CScriptObjectWeaponClass@@QAEHPAUIFunctionHandler@@@Z 330594db f   ScriptObjectWeaponClass.obj
 0001:00058573       ?SetFirstPersonWeaponPos@CScriptObjectWeaponClass@@QAEHPAUIFunctionHandler@@@Z 33059573 f   ScriptObjectWeaponClass.obj
 0001:00058652       ?GetInstantHit@CScriptObjectWeaponClass@@QAEHPAUIFunctionHandler@@@Z 33059652 f   ScriptObjectWeaponClass.obj
 0001:00058cbd       ?GetProjectileFiringAngle@CScriptObjectWeaponClass@@QAEHPAUIFunctionHandler@@@Z 33059cbd f   ScriptObjectWeaponClass.obj
 0001:00058eee       ?Hit@CScriptObjectWeaponClass@@QAEHPAUIFunctionHandler@@@Z 33059eee f   ScriptObjectWeaponClass.obj
 0001:000590c5       ?GetDirection@CScriptObjectWeaponClass@@CAXPAUIEntity@@AAU?$Vec3_tpl@M@@@Z 3305a0c5 f   ScriptObjectWeaponClass.obj
 0001:00059456       ?GetBonePos@CScriptObjectWeaponClass@@QAEHPAUIFunctionHandler@@@Z 3305a456 f   ScriptObjectWeaponClass.obj
 0001:0005971e       ?DrawScopeFlare@CScriptObjectWeaponClass@@QAEHPAUIFunctionHandler@@@Z 3305a71e f   ScriptObjectWeaponClass.obj
 0001:00059eb0       ??0CScriptObjectWeaponClass@@QAE@XZ 3305aeb0 f   ScriptObjectWeaponClass.obj
 0001:00059eea       ??1CScriptObjectWeaponClass@@UAE@XZ 3305aeea f   ScriptObjectWeaponClass.obj
 0001:00059f56       ?ReleaseTemplate@CScriptObjectFireParam@@SAXXZ 3305af56 f   ScriptObjectWeaponClass.obj
 0001:00059f5b       ?ReleaseTemplate@CScriptObjectWeaponClass@@SAXXZ 3305af5b f   ScriptObjectWeaponClass.obj
 0001:00059f7a       ?StartAnimation@CScriptObjectWeaponClass@@QAEHPAUIFunctionHandler@@@Z 3305af7a f   ScriptObjectWeaponClass.obj
 0001:0005a141       ?LoadObject@CScriptObjectWeaponClass@@QAEHPAUIFunctionHandler@@@Z 3305b141 f   ScriptObjectWeaponClass.obj
 0001:0005a1ae       ?CacheObject@CScriptObjectWeaponClass@@QAEHPAUIFunctionHandler@@@Z 3305b1ae f   ScriptObjectWeaponClass.obj
 0001:0005a258       ?InitializeTemplate@CScriptObjectFireParam@@SAXPAUIScriptSystem@@@Z 3305b258 f   ScriptObjectWeaponClass.obj
 0001:0005a3f3       ?SetName@CScriptObjectWeaponClass@@QAEHPAUIFunctionHandler@@@Z 3305b3f3 f   ScriptObjectWeaponClass.obj
 0001:0005a49d       ?SetBindBone@CScriptObjectWeaponClass@@QAEHPAUIFunctionHandler@@@Z 3305b49d f   ScriptObjectWeaponClass.obj
 0001:0005a54a       ?Create@CScriptObjectFireParam@@QAE_NPAUIScriptSystem@@PAUWeaponParams@@@Z 3305b54a f   ScriptObjectWeaponClass.obj
 0001:0005a57f       ?SetWeaponFireParams@CScriptObjectWeaponClass@@QAEHPAUIFunctionHandler@@@Z 3305b57f f   ScriptObjectWeaponClass.obj
 0001:0005a976       ?InitializeTemplate@CScriptObjectWeaponClass@@SAXPAUIScriptSystem@@@Z 3305b976 f   ScriptObjectWeaponClass.obj
 0001:0005ab59       ??1?$_ScriptableEx@VCScriptObjectFireParam@@@@UAE@XZ 3305bb59 f i ScriptObjectWeaponClass.obj
 0001:0005ab90       ??1?$_ScriptableEx@VCScriptObjectWeaponClass@@@@UAE@XZ 3305bb90 f i ScriptObjectWeaponClass.obj
 0001:0005abc7       ??_G?$_ScriptableEx@VCScriptObjectFireParam@@@@UAEPAXI@Z 3305bbc7 f i ScriptObjectWeaponClass.obj
 0001:0005abc7       ??_E?$_ScriptableEx@VCScriptObjectFireParam@@@@UAEPAXI@Z 3305bbc7 f i ScriptObjectWeaponClass.obj
 0001:0005abe3       ??_E?$_ScriptableEx@VCScriptObjectWeaponClass@@@@UAEPAXI@Z 3305bbe3 f i ScriptObjectWeaponClass.obj
 0001:0005abe3       ??_G?$_ScriptableEx@VCScriptObjectWeaponClass@@@@UAEPAXI@Z 3305bbe3 f i ScriptObjectWeaponClass.obj
 0001:0005abff       ?FClamp@@YAMMMM@Z          3305bbff f i ScriptObjectWeaponClass.obj
 0001:0005ac2b       ?Clamp@CFColor@@QAEXMM@Z   3305bc2b f i ScriptObjectWeaponClass.obj
 0001:0005acaa       ??$_Pow_int@M@@YAMMH@Z     3305bcaa f i ScriptObjectWeaponClass.obj
 0001:0005acdb       ?Init@?$_ScriptableEx@VCScriptObjectFireParam@@@@QAEXPAUIScriptSystem@@PAVCScriptObjectFireParam@@@Z 3305bcdb f i ScriptObjectWeaponClass.obj
 0001:0005ad47       ?Init@?$_ScriptableEx@VCScriptObjectWeaponClass@@@@QAEXPAUIScriptSystem@@PAVCScriptObjectWeaponClass@@@Z 3305bd47 f i ScriptObjectWeaponClass.obj
 0001:0005adb3       ?GetThunk@?$_ScriptableEx@VCScriptObjectFireParam@@@@KAHPAX@Z 3305bdb3 f i ScriptObjectWeaponClass.obj
 0001:0005ae9c       ??_ECScriptObjectFireParam@@UAEPAXI@Z 3305be9c f i ScriptObjectWeaponClass.obj
 0001:0005ae9c       ??_GCScriptObjectFireParam@@UAEPAXI@Z 3305be9c f i ScriptObjectWeaponClass.obj
 0001:0005aeb8       ?FuncThunk@?$_ScriptableEx@VCScriptObjectWeaponClass@@@@KAHPAX@Z 3305beb8 f i ScriptObjectWeaponClass.obj
 0001:0005af21       ??$__uninitialized_fill_n@PAP8CScriptObjectSynched2DTable@@AEHPAUIFunctionHandler@@@ZIP81@AEH0@Z@_STL@@YAPAP8CScriptObjectSynched2DTable@@AEHPAUIFunctionHandler@@@ZPAP81@AEH0@ZIABQ81@AEH0@ZABU__false_type@0@@Z 3305bf21 f i ScriptObjectSynched2DTable.obj
 0001:0005af21       ??$__uninitialized_fill_n@PAP8CUIButton@@AEHPAUIFunctionHandler@@@ZIP81@AEH0@Z@_STL@@YAPAP8CUIButton@@AEHPAUIFunctionHandler@@@ZPAP81@AEH0@ZIABQ81@AEH0@ZABU__false_type@0@@Z 3305bf21 f i UIButton.obj
 0001:0005af21       ??$__uninitialized_fill_n@PAP8CUIComboBox@@AEHPAUIFunctionHandler@@@ZIP81@AEH0@Z@_STL@@YAPAP8CUIComboBox@@AEHPAUIFunctionHandler@@@ZPAP81@AEH0@ZIABQ81@AEH0@ZABU__false_type@0@@Z 3305bf21 f i UIComboBox.obj
 0001:0005af21       ??$__uninitialized_fill_n@PAP8CUIListView@@AEHPAUIFunctionHandler@@@ZIP81@AEH0@Z@_STL@@YAPAP8CUIListView@@AEHPAUIFunctionHandler@@@ZPAP81@AEH0@ZIABQ81@AEH0@ZABU__false_type@0@@Z 3305bf21 f i UIListView.obj
 0001:0005af21       ??$__uninitialized_fill_n@PAP8CUIEditBox@@AEHPAUIFunctionHandler@@@ZIP81@AEH0@Z@_STL@@YAPAP8CUIEditBox@@AEHPAUIFunctionHandler@@@ZPAP81@AEH0@ZIABQ81@AEH0@ZABU__false_type@0@@Z 3305bf21 f i UIEditBox.obj
 0001:0005af21       ??$__uninitialized_fill_n@PAP8CScriptObjectSpectator@@AEHPAUIFunctionHandler@@@ZIP81@AEH0@Z@_STL@@YAPAP8CScriptObjectSpectator@@AEHPAUIFunctionHandler@@@ZPAP81@AEH0@ZIABQ81@AEH0@ZABU__false_type@0@@Z 3305bf21 f i ScriptObjectSpectator.obj
 0001:0005af21       ??$__uninitialized_fill_n@PAP8CUIScrollBar@@AEHPAUIFunctionHandler@@@ZIP81@AEH0@Z@_STL@@YAPAP8CUIScrollBar@@AEHPAUIFunctionHandler@@@ZPAP81@AEH0@ZIABQ81@AEH0@ZABU__false_type@0@@Z 3305bf21 f i UIScrollBar.obj
 0001:0005af21       ??$__uninitialized_fill_n@PAP8CScriptObjectPlayer@@AEHPAUIFunctionHandler@@@ZIP81@AEH0@Z@_STL@@YAPAP8CScriptObjectPlayer@@AEHPAUIFunctionHandler@@@ZPAP81@AEH0@ZIABQ81@AEH0@ZABU__false_type@0@@Z 3305bf21 f i ScriptObjectPlayer.obj
 0001:0005af21       ??$__uninitialized_fill_n@PAP8CScriptObjectVehicle@@AEHPAUIFunctionHandler@@@ZIP81@AEH0@Z@_STL@@YAPAP8CScriptObjectVehicle@@AEHPAUIFunctionHandler@@@ZPAP81@AEH0@ZIABQ81@AEH0@ZABU__false_type@0@@Z 3305bf21 f i ScriptObjectVehicle.obj
 0001:0005af21       ??$__uninitialized_fill_n@PAP8CUICheckBox@@AEHPAUIFunctionHandler@@@ZIP81@AEH0@Z@_STL@@YAPAP8CUICheckBox@@AEHPAUIFunctionHandler@@@ZPAP81@AEH0@ZIABQ81@AEH0@ZABU__false_type@0@@Z 3305bf21 f i UICheckBox.obj
 0001:0005af21       ??$__uninitialized_fill_n@PAP8CScriptObjectWeaponClass@@AEHPAUIFunctionHandler@@@ZIP81@AEH0@Z@_STL@@YAPAP8CScriptObjectWeaponClass@@AEHPAUIFunctionHandler@@@ZPAP81@AEH0@ZIABQ81@AEH0@ZABU__false_type@0@@Z 3305bf21 f i ScriptObjectWeaponClass.obj
 0001:0005af21       ??$__uninitialized_fill_n@PAP8CUIVideoPanel@@AEHPAUIFunctionHandler@@@ZIP81@AEH0@Z@_STL@@YAPAP8CUIVideoPanel@@AEHPAUIFunctionHandler@@@ZPAP81@AEH0@ZIABQ81@AEH0@ZABU__false_type@0@@Z 3305bf21 f i UIVideoPanel.obj
 0001:0005af21       ??$__uninitialized_fill_n@PAP8CUIStatic@@AEHPAUIFunctionHandler@@@ZIP81@AEH0@Z@_STL@@YAPAP8CUIStatic@@AEHPAUIFunctionHandler@@@ZPAP81@AEH0@ZIABQ81@AEH0@ZABU__false_type@0@@Z 3305bf21 f i UIStatic.obj
 0001:0005af21       ??$__uninitialized_fill_n@PAP8CScriptObjectAdvCamSystem@@AEHPAUIFunctionHandler@@@ZIP81@AEH0@Z@_STL@@YAPAP8CScriptObjectAdvCamSystem@@AEHPAUIFunctionHandler@@@ZPAP81@AEH0@ZIABQ81@AEH0@ZABU__false_type@0@@Z 3305bf21 f i ScriptObjectAdvCamSystem.obj
 0001:0005af46       ?OnRelease@CScriptObjectWeaponClass@@UAEXXZ 3305bf46 f i ScriptObjectWeaponClass.obj
 0001:0005af67       ?AllowPropertiesMapping@?$_ScriptableEx@VCScriptObjectFireParam@@@@SAXPAUIScriptSystem@@@Z 3305bf67 f i ScriptObjectWeaponClass.obj
 0001:0005afad       ?_M_insert_overflow@?$vector@P8CScriptObjectWeaponClass@@AEHPAUIFunctionHandler@@@ZV?$allocator@P8CScriptObjectWeaponClass@@AEHPAUIFunctionHandler@@@Z@_STL@@@_STL@@IAEXPAP8CScriptObjectWeaponClass@@AEHPAUIFunctionHandler@@@ZABQ83@AEH0@ZABU__false_type@2@I_N@Z 3305bfad f i ScriptObjectWeaponClass.obj
 0001:0005b09a       ??0WeaponParams@@QAE@XZ    3305c09a f i ScriptObjectWeaponClass.obj
 0001:0005b0dd       ??_ECScriptObjectWeaponClass@@UAEPAXI@Z 3305c0dd f i ScriptObjectWeaponClass.obj
 0001:0005b0dd       ??_GCScriptObjectWeaponClass@@UAEPAXI@Z 3305c0dd f i ScriptObjectWeaponClass.obj
 0001:0005b0f9       ??1WeaponParams@@QAE@XZ    3305c0f9 f i ScriptObjectWeaponClass.obj
 0001:0005b104       ?ReleaseTemplate@?$_ScriptableEx@VCScriptObjectFireParam@@@@SAXXZ 3305c104 f i ScriptObjectWeaponClass.obj
 0001:0005b172       ?ReleaseTemplate@?$_ScriptableEx@VCScriptObjectWeaponClass@@@@SAXXZ 3305c172 f i ScriptObjectWeaponClass.obj
 0001:0005b1e0       ?InsertProperty@?$_ScriptableEx@VCScriptObjectFireParam@@@@SAXPBDAAUProperty@1@@Z 3305c1e0 f i ScriptObjectWeaponClass.obj
 0001:0005b277       ?push_back@?$vector@P8CScriptObjectWeaponClass@@AEHPAUIFunctionHandler@@@ZV?$allocator@P8CScriptObjectWeaponClass@@AEHPAUIFunctionHandler@@@Z@_STL@@@_STL@@QAEXABQ8CScriptObjectWeaponClass@@AEHPAUIFunctionHandler@@@Z@Z 3305c277 f i ScriptObjectWeaponClass.obj
 0001:0005b2ae       ?RegisterProperty@?$_ScriptableEx@VCScriptObjectFireParam@@@@SAXPBDW4PropertyType@1@I@Z 3305c2ae f i ScriptObjectWeaponClass.obj
 0001:0005b2cf       ?RegisterFunction@?$_ScriptableEx@VCScriptObjectWeaponClass@@@@SAXPAUIScriptSystem@@PBDP8CScriptObjectWeaponClass@@AEHPAUIFunctionHandler@@@Z@Z 3305c2cf f i ScriptObjectWeaponClass.obj
 0001:0005b31f       ?SetThunk@?$_ScriptableEx@VCScriptObjectFireParam@@@@KAHPAX@Z 3305c31f f i ScriptObjectWeaponClass.obj
 0001:0005b45c       ?EnablePropertiesMapping@?$_ScriptableEx@VCScriptObjectFireParam@@@@QAE_NPAX@Z 3305c45c f i ScriptObjectWeaponClass.obj
 0001:0005b47b       ?OnSpawnContainer@CXServer@@UAEXAAVCEntityDesc@@PAUIEntity@@@Z 3305c47b f   XServer.obj
 0001:0005b483       ?GetMsgName@CXServer@@SAPBDE@Z 3305c483 f   XServer.obj
 0001:0005b585       ?GetMaxUpdateRate@CXServer@@QBEIXZ 3305c585 f   XServer.obj
 0001:0005b590       ?IsInDestruction@CXServer@@QBE_NXZ 3305c590 f   XServer.obj
 0001:0005b597       ?UnregisterXSlot@CXServer@@QAEXK@Z 3305c597 f   XServer.obj
 0001:0005b59a       ?OnMapChanged@CXServer@@QAEXXZ 3305c59a f   XServer.obj
 0001:0005b5a5       ?ProcessXMLInfoRequest@CXServer@@UAE_NPBD0H@Z 3305c5a5 f   XServer.obj
 0001:0005b608       ?IsIDBanned@CXServer@@QAE_NABVBannedID@@@Z 3305c608 f   XServer.obj
 0001:0005b638       ?IsIPBanned@CXServer@@UAE_NI@Z 3305c638 f   XServer.obj
 0001:0005b65e       ?UpdateXServerNetwork@CXServer@@QAEXXZ 3305c65e f   XServer.obj
 0001:0005b6fc       ?BindEntity@CXServer@@QAEXGGE@Z 3305c6fc f   XServer.obj
 0001:0005b7e8       ?UnbindEntity@CXServer@@QAEXGGE@Z 3305c7e8 f   XServer.obj
 0001:0005b8d4       ?GetNumPlayers@CXServer@@QAEHXZ 3305c8d4 f   XServer.obj
 0001:0005b8db       ?AddToTeam@CXServer@@QAEXPBDH@Z 3305c8db f   XServer.obj
 0001:0005ba0c       ?RemoveFromTeam@CXServer@@QAEXH@Z 3305ca0c f   XServer.obj
 0001:0005bb2a       ?AddTeam@CXServer@@QAEXPBD@Z 3305cb2a f   XServer.obj
 0001:0005bc53       ?RemoveTeam@CXServer@@QAEXPBD@Z 3305cc53 f   XServer.obj
 0001:0005bcd6       ?SendRequestScriptHash@CXServer@@QAEXGPBD0@Z 3305ccd6 f   XServer.obj
 0001:0005bda5       ?SetTeamScore@CXServer@@QAEXPBDH@Z 3305cda5 f   XServer.obj
 0001:0005bee7       ?SetTeamFlags@CXServer@@QAEXPBDH@Z 3305cee7 f   XServer.obj
 0001:0005c021       ?OnSpawn@CXServer@@UAEXPAUIEntity@@AAVCEntityDesc@@@Z 3305d021 f   XServer.obj
 0001:0005c079       ?OnRemove@CXServer@@UAEXPAUIEntity@@@Z 3305d079 f   XServer.obj
 0001:0005c0ac       ?MemStats@CXServer@@QAEIXZ 3305d0ac f   XServer.obj
 0001:0005c0e6       ?GetFirstRespawnPoint@CXServer@@QAEPAUITagPoint@@XZ 3305d0e6 f   XServer.obj
 0001:0005c0fc       ?GetNextRespawnPoint@CXServer@@QAEPAUITagPoint@@XZ 3305d0fc f   XServer.obj
 0001:0005c11f       ?GetPrevRespawnPoint@CXServer@@QAEPAUITagPoint@@XZ 3305d11f f   XServer.obj
 0001:0005c15d       ?BroadcastReliable@CXServer@@UAEXEAAVCStream@@_N@Z 3305d15d f   XServer.obj
 0001:0005c210       ?BroadcastUnreliable@CXServer@@QAEXEAAVCStream@@H@Z 3305d210 f   XServer.obj
 0001:0005c2d6       ?BroadcastText@CXServer@@QAEXPBDM@Z 3305d2d6 f   XServer.obj
 0001:0005c336       ?BroadcastCommand@CXServer@@QAEXPBD@Z 3305d336 f   XServer.obj
 0001:0005c38e       ?BroadcastCommand@CXServer@@QAEXPBDABU?$Vec3_tpl@M@@1GE@Z 3305d38e f   XServer.obj
 0001:0005c3f5       ?SyncVariable@CXServer@@QAEXPAUICVar@@@Z 3305d3f5 f   XServer.obj
 0001:0005c4b6       ?SyncAIState@CXServer@@QAEXXZ 3305d4b6 f   XServer.obj
 0001:0005c55e       ?GetSchedulingDelay@CXServer@@QAEIXZ 3305d55e f   XServer.obj
 0001:0005c650       ?GetServerSlotByIP@CXServer@@QBEPAVCXServerSlot@@I@Z 3305d650 f   XServer.obj
 0001:0005c692       ?GetSlotInfo@CXServer@@UAE_NIAAUSSlotInfo@IServerSecuritySink@@H@Z 3305d692 f   XServer.obj
 0001:0005c764       ?ClearSlots@CXServer@@QAEXXZ 3305d764 f   XServer.obj
 0001:0005c7e5       ?Update@CXServer@@QAEXXZ   3305d7e5 f   XServer.obj
 0001:0005ca31       ?GetRespawnPoint@CXServer@@QAEPAUITagPoint@@PAD@Z 3305da31 f   XServer.obj
 0001:0005ca92       ?DrawNetStats@CXServer@@QAEXPAUIRenderer@@@Z 3305da92 f   XServer.obj
 0001:0005cdd9       ?RegisterSlot@CXServer@@QAEXPAVCXServerSlot@@@Z 3305ddd9 f   XServer.obj
 0001:0005ce0c       ?CreateServerSlot@CXServer@@UAE_NPAUIServerSlot@@@Z 3305de0c f   XServer.obj
 0001:0005cead       ?GetRandomRespawnPoint@CXServer@@QAEPAUITagPoint@@PBD@Z 3305dead f   XServer.obj
 0001:0005cfd0       ??1CXServer@@UAE@XZ        3305dfd0 f   XServer.obj
 0001:0005d10f       ?GetServerInfoRules@CXServer@@UAE_NAAV?$basic_string@DU?$char_traits@D@std@@V?$allocator@D@_STL@@@_STL@@@Z 3305e10f f   XServer.obj
 0001:0005d2ae       ?GetServerInfo@CXServer@@QAE_NXZ 3305e2ae f   XServer.obj
 0001:0005d3c4       ?RemoveRespawnPoint@CXServer@@QAEXPAUITagPoint@@@Z 3305e3c4 f   XServer.obj
 0001:0005d3fe       ?CheaterFound@CXServer@@UAEXIHPBD@Z 3305e3fe f   XServer.obj
 0001:0005d541       ?GetServerInfoStatus@CXServer@@UAE_NAAV?$basic_string@DU?$char_traits@D@std@@V?$allocator@D@_STL@@@_STL@@@Z 3305e541 f   XServer.obj
 0001:0005d677       ?GetServerInfoStatus@CXServer@@UAE_NAAV?$basic_string@DU?$char_traits@D@std@@V?$allocator@D@_STL@@@_STL@@000PA_NPAH2@Z 3305e677 f   XServer.obj
 0001:0005d6f1       ?GetServerInfoPlayers@CXServer@@UAE_NQAPAV?$basic_string@DU?$char_traits@D@std@@V?$allocator@D@_STL@@@_STL@@AAH@Z 3305e6f1 f   XServer.obj
 0001:0005da7e       ?OnClientMsgText@CXServer@@QAEXGAAVCStream@@@Z 3305ea7e f   XServer.obj
 0001:0005dace       ?GetContext@CXServer@@QAE_NAAUSXGameContext@@@Z 3305eace f   XServer.obj
 0001:0005dae3       ?AddRespawnPoint@CXServer@@QAEXPAUITagPoint@@@Z 3305eae3 f   XServer.obj
 0001:0005db93       ?SaveBanList@CXServer@@QAEX_N0@Z 3305eb93 f   XServer.obj
 0001:0005dda2       ?BanIP@CXServer@@UAEXI@Z   3305eda2 f   XServer.obj
 0001:0005ddd1       ?UnbanIP@CXServer@@UAEXI@Z 3305edd1 f   XServer.obj
 0001:0005de0f       ?BanID@CXServer@@QAEXABVBannedID@@@Z 3305ee0f f   XServer.obj
 0001:0005de3d       ?UnbanID@CXServer@@QAEXABVBannedID@@@Z 3305ee3d f   XServer.obj
 0001:0005de84       ?LoadBanList@CXServer@@QAEX_N0@Z 3305ee84 f   XServer.obj
 0001:0005e1c7       ??0CXServer@@QAE@PAVCXGame@@GPBD_N@Z 3305f1c7 f   XServer.obj
 0001:0005e563       ??$__destroy_aux@PAVBannedID@@@_STL@@YAXPAVBannedID@@0ABU__false_type@0@@Z 3305f563 f i XServer.obj
 0001:0005e57d       ??1XmlNodeRef@@QAE@XZ      3305f57d f i XServer.obj
 0001:0005e589       ?CryLogAlways@@YAXPBDZZ    3305f589 f i XServer.obj
 0001:0005e5b3       ??1CTimeValue@@UAE@XZ      3305f5b3 f i XServer.obj
 0001:0005e5ba       ??_ECTimeValue@@UAEPAXI@Z  3305f5ba f i XServer.obj
 0001:0005e5ba       ??_GCTimeValue@@UAEPAXI@Z  3305f5ba f i XServer.obj
 0001:0005e5d7       ?Write@CStream@@QAE_NAAV1@@Z 3305f5d7 f i XServer.obj
 0001:0005e61a       ?Write@CStream@@QAE_NABU?$Vec3_tpl@M@@@Z 3305f61a f i XServer.obj
 0001:0005e660       ??8BannedID@@QBE_NABV0@@Z  3305f660 f i XServer.obj
 0001:0005e689       ??$_Construct@U?$pair@$$CBEPAVCXServerSlot@@@_STL@@U12@@_STL@@YAXPAU?$pair@$$CBEPAVCXServerSlot@@@0@ABU10@@Z 3305f689 f i XServer.obj
 0001:0005e6a0       ?WritePkd@CStream@@QAE_NE@Z 3305f6a0 f i XServer.obj
 0001:0005e6d3       ?WritePkd@CStream@@QAE_NH@Z 3305f6d3 f i XServer.obj
 0001:0005e726       ?deallocate@?$allocator@UUIListColumn@@@_STL@@QAEXPAUUIListColumn@@I@Z 3305f726 f i UIListView.obj
 0001:0005e726       ?deallocate@?$allocator@VBannedID@@@_STL@@QAEXPAVBannedID@@I@Z 3305f726 f i XServer.obj
 0001:0005e743       ?_M_erase@?$_Rb_tree@EU?$pair@$$CBEPAVCXServerSlot@@@_STL@@U?$_Select1st@U?$pair@$$CBEPAVCXServerSlot@@@_STL@@@2@U?$less@E@2@V?$allocator@U?$pair@$$CBEPAVCXServerSlot@@@_STL@@@2@@_STL@@AAEXPAU?$_Rb_tree_node@U?$pair@$$CBEPAVCXServerSlot@@@_STL@@@2@@Z 3305f743 f i XServer.obj
 0001:0005e773       ??$_Destroy@PAVBannedID@@@_STL@@YAXPAVBannedID@@0@Z 3305f773 f i XServer.obj
 0001:0005e78b       ??1?$_Vector_base@UUIListColumn@@V?$allocator@UUIListColumn@@@_STL@@@_STL@@QAE@XZ 3305f78b f i UIListView.obj
 0001:0005e78b       ??1?$_Vector_base@VBannedID@@V?$allocator@VBannedID@@@_STL@@@_STL@@QAE@XZ 3305f78b f i XServer.obj
 0001:0005e7aa       ?clear@?$_Rb_tree@EU?$pair@$$CBEPAVCXServerSlot@@@_STL@@U?$_Select1st@U?$pair@$$CBEPAVCXServerSlot@@@_STL@@@2@U?$less@E@2@V?$allocator@U?$pair@$$CBEPAVCXServerSlot@@@_STL@@@2@@_STL@@QAEXXZ 3305f7aa f i XServer.obj
 0001:0005e7d3       ??1?$_Rb_tree_base@U?$pair@$$CBHPAUScriptTimer@@@_STL@@V?$allocator@U?$pair@$$CBHPAUScriptTimer@@@_STL@@@2@@_STL@@QAE@XZ 3305f7d3 f i ScriptTimerMgr.obj
 0001:0005e7d3       ??1?$_Rb_tree_base@U?$pair@$$CBGH@_STL@@V?$allocator@U?$pair@$$CBGH@_STL@@@2@@_STL@@QAE@XZ 3305f7d3 f i XServerSlot.obj
 0001:0005e7d3       ??1?$_Rb_tree_base@U?$pair@$$CBHH@_STL@@V?$allocator@U?$pair@$$CBHH@_STL@@@2@@_STL@@QAE@XZ 3305f7d3 f i XSystemBase.obj
 0001:0005e7d3       ??1?$_Rb_tree_base@U?$pair@$$CBEPAVCXServerSlot@@@_STL@@V?$allocator@U?$pair@$$CBEPAVCXServerSlot@@@_STL@@@2@@_STL@@QAE@XZ 3305f7d3 f i XServer.obj
 0001:0005e7d3       ??1?$_Rb_tree_base@U?$pair@$$CBHUSMatProps@@@_STL@@V?$allocator@U?$pair@$$CBHUSMatProps@@@_STL@@@2@@_STL@@QAE@XZ 3305f7d3 f i XSurfaceMgr.obj
 0001:0005e7dd       ?_M_clear@?$vector@VBannedID@@V?$allocator@VBannedID@@@_STL@@@_STL@@IAEXXZ 3305f7dd f i XServer.obj
 0001:0005e806       ?_M_create_node@?$_Rb_tree@EU?$pair@$$CBEPAVCXServerSlot@@@_STL@@U?$_Select1st@U?$pair@$$CBEPAVCXServerSlot@@@_STL@@@2@U?$less@E@2@V?$allocator@U?$pair@$$CBEPAVCXServerSlot@@@_STL@@@2@@_STL@@IAEPAU?$_Rb_tree_node@U?$pair@$$CBEPAVCXServerSlot@@@_STL@@@2@ABU?$pair@$$CBEPAVCXServerSlot@@@2@@Z 3305f806 f i XServer.obj
 0001:0005e826       ??1?$vector@VBannedID@@V?$allocator@VBannedID@@@_STL@@@_STL@@QAE@XZ 3305f826 f i XServer.obj
 0001:0005e85b       ?erase@?$map@HPAUScriptTimer@@U?$less@H@_STL@@V?$allocator@U?$pair@$$CBHPAUScriptTimer@@@_STL@@@3@@_STL@@QAE?AU?$_Rb_tree_iterator@U?$pair@$$CBHPAUScriptTimer@@@_STL@@U?$_Nonconst_traits@U?$pair@$$CBHPAUScriptTimer@@@_STL@@@2@@2@U32@@Z 3305f85b f i ScriptTimerMgr.obj
 0001:0005e85b       ?erase@?$map@GHU?$less@G@_STL@@V?$allocator@U?$pair@$$CBGH@_STL@@@2@@_STL@@QAE?AU?$_Rb_tree_iterator@U?$pair@$$CBGH@_STL@@U?$_Nonconst_traits@U?$pair@$$CBGH@_STL@@@2@@2@U32@@Z 3305f85b f i XServerSlot.obj
 0001:0005e85b       ?erase@?$map@EPAVCXServerSlot@@U?$less@E@_STL@@V?$allocator@U?$pair@$$CBEPAVCXServerSlot@@@_STL@@@3@@_STL@@QAE?AU?$_Rb_tree_iterator@U?$pair@$$CBEPAVCXServerSlot@@@_STL@@U?$_Nonconst_traits@U?$pair@$$CBEPAVCXServerSlot@@@_STL@@@2@@2@U32@@Z 3305f85b f i XServer.obj
 0001:0005e883       ??1?$_Rb_tree@EU?$pair@$$CBEPAVCXServerSlot@@@_STL@@U?$_Select1st@U?$pair@$$CBEPAVCXServerSlot@@@_STL@@@2@U?$less@E@2@V?$allocator@U?$pair@$$CBEPAVCXServerSlot@@@_STL@@@2@@_STL@@QAE@XZ 3305f883 f i XServer.obj
 0001:0005e8b5       ?insert@?$basic_string@DU?$char_traits@D@std@@V?$allocator@D@_STL@@@_STL@@QAEXPADID@Z 3305f8b5 f i XServer.obj
 0001:0005e9bc       ?_M_insert@?$_Rb_tree@EU?$pair@$$CBEPAVCXServerSlot@@@_STL@@U?$_Select1st@U?$pair@$$CBEPAVCXServerSlot@@@_STL@@@2@U?$less@E@2@V?$allocator@U?$pair@$$CBEPAVCXServerSlot@@@_STL@@@2@@_STL@@AAE?AU?$_Rb_tree_iterator@U?$pair@$$CBEPAVCXServerSlot@@@_STL@@U?$_Nonconst_traits@U?$pair@$$CBEPAVCXServerSlot@@@_STL@@@2@@2@PAU_Rb_tree_node_base@2@0ABU?$pair@$$CBEPAVCXServerSlot@@@2@0@Z 3305f9bc f i XServer.obj
 0001:0005ea44       ??1?$map@EPAVCXServerSlot@@U?$less@E@_STL@@V?$allocator@U?$pair@$$CBEPAVCXServerSlot@@@_STL@@@3@@_STL@@QAE@XZ 3305fa44 f i XServer.obj
 0001:0005ea49       ?insert_unique@?$_Rb_tree@EU?$pair@$$CBEPAVCXServerSlot@@@_STL@@U?$_Select1st@U?$pair@$$CBEPAVCXServerSlot@@@_STL@@@2@U?$less@E@2@V?$allocator@U?$pair@$$CBEPAVCXServerSlot@@@_STL@@@2@@_STL@@QAE?AU?$pair@U?$_Rb_tree_iterator@U?$pair@$$CBEPAVCXServerSlot@@@_STL@@U?$_Nonconst_traits@U?$pair@$$CBEPAVCXServerSlot@@@_STL@@@2@@_STL@@_N@2@ABU?$pair@$$CBEPAVCXServerSlot@@@2@@Z 3305fa49 f i XServer.obj
 0001:0005eacf       ?equal_range@?$_Rb_tree@V?$basic_string@DU?$char_traits@D@std@@V?$allocator@D@_STL@@@_STL@@U?$pair@$$CBV?$basic_string@DU?$char_traits@D@std@@V?$allocator@D@_STL@@@_STL@@PAUITagPoint@@@2@U?$_Select1st@U?$pair@$$CBV?$basic_string@DU?$char_traits@D@std@@V?$allocator@D@_STL@@@_STL@@PAUITagPoint@@@_STL@@@2@U?$less@V?$basic_string@DU?$char_traits@D@std@@V?$allocator@D@_STL@@@_STL@@@2@V?$allocator@U?$pair@$$CBV?$basic_string@DU?$char_traits@D@std@@V?$allocator@D@_STL@@@_STL@@PAUITagPoint@@@_STL@@@2@@_STL@@QBE?AU?$pair@U?$_Rb_tree_iterator@U?$pair@$$CBV?$basic_string@DU?$char_traits@D@std@@V?$allocator@D@_STL@@@_STL@@PAUITagPoint@@@_STL@@U?$_Const_traits@U?$pair@$$CBV?$basic_string@DU?$char_traits@D@std@@V?$allocator@D@_STL@@@_STL@@PAUITagPoint@@@_STL@@@2@@_STL@@U12@@2@ABV?$basic_string@DU?$char_traits@D@std@@V?$allocator@D@_STL@@@2@@Z 3305facf f i XServer.obj
 0001:0005eaf9       ??1SlotNetStats@@QAE@XZ    3305faf9 f i XServer.obj
 0001:0005eaf9       ??1couterEntry@CPlayer@@QAE@XZ 3305faf9 f i XPlayer.obj
 0001:0005eaf9       ??1TextMessage@@QAE@XZ     3305faf9 f i ScriptObjectClient.obj
 0001:0005eb01       ??0?$map@EPAVCXServerSlot@@U?$less@E@_STL@@V?$allocator@U?$pair@$$CBEPAVCXServerSlot@@@_STL@@@3@@_STL@@QAE@XZ 3305fb01 f i XServer.obj
 0001:0005eb01       ??0?$map@HHU?$less@H@_STL@@V?$allocator@U?$pair@$$CBHH@_STL@@@2@@_STL@@QAE@XZ 3305fb01 f i XSystemBase.obj
 0001:0005eb01       ??0?$map@GHU?$less@G@_STL@@V?$allocator@U?$pair@$$CBGH@_STL@@@2@@_STL@@QAE@XZ 3305fb01 f i XServerSlot.obj
 0001:0005eb01       ??0?$map@HPAUScriptTimer@@U?$less@H@_STL@@V?$allocator@U?$pair@$$CBHPAUScriptTimer@@@_STL@@@3@@_STL@@QAE@XZ 3305fb01 f i ScriptTimerMgr.obj
 0001:0005eb01       ??0?$map@HUSMatProps@@U?$less@H@_STL@@V?$allocator@U?$pair@$$CBHUSMatProps@@@_STL@@@3@@_STL@@QAE@XZ 3305fb01 f i XSurfaceMgr.obj
 0001:0005eb1a       ?count@?$_Rb_tree@V?$basic_string@DU?$char_traits@D@std@@V?$allocator@D@_STL@@@_STL@@U?$pair@$$CBV?$basic_string@DU?$char_traits@D@std@@V?$allocator@D@_STL@@@_STL@@PAUITagPoint@@@2@U?$_Select1st@U?$pair@$$CBV?$basic_string@DU?$char_traits@D@std@@V?$allocator@D@_STL@@@_STL@@PAUITagPoint@@@_STL@@@2@U?$less@V?$basic_string@DU?$char_traits@D@std@@V?$allocator@D@_STL@@@_STL@@@2@V?$allocator@U?$pair@$$CBV?$basic_string@DU?$char_traits@D@std@@V?$allocator@D@_STL@@@_STL@@PAUITagPoint@@@_STL@@@2@@_STL@@QBEIABV?$basic_string@DU?$char_traits@D@std@@V?$allocator@D@_STL@@@2@@Z 3305fb1a f i XServer.obj
 0001:0005eb43       ??0BannedID@@QAE@XZ        3305fb43 f i XServer.obj
 0001:0005eb67       ?insert@?$basic_string@DU?$char_traits@D@std@@V?$allocator@D@_STL@@@_STL@@QAEAAV12@IID@Z 3305fb67 f i XServer.obj
 0001:0005ebb2       ?append@?$basic_string@DU?$char_traits@D@std@@V?$allocator@D@_STL@@@_STL@@QAEAAV12@ID@Z 3305fbb2 f i XServer.obj
 0001:0005ec3c       ??$_Construct@U?$pair@$$CBV?$basic_string@DU?$char_traits@D@std@@V?$allocator@D@_STL@@@_STL@@PAUITagPoint@@@_STL@@U12@@_STL@@YAXPAU?$pair@$$CBV?$basic_string@DU?$char_traits@D@std@@V?$allocator@D@_STL@@@_STL@@PAUITagPoint@@@0@ABU10@@Z 3305fc3c f i XServer.obj
 0001:0005ec69       ?_M_erase@?$_Rb_tree@V?$basic_string@DU?$char_traits@D@std@@V?$allocator@D@_STL@@@_STL@@U?$pair@$$CBV?$basic_string@DU?$char_traits@D@std@@V?$allocator@D@_STL@@@_STL@@PAUITagPoint@@@2@U?$_Select1st@U?$pair@$$CBV?$basic_string@DU?$char_traits@D@std@@V?$allocator@D@_STL@@@_STL@@PAUITagPoint@@@_STL@@@2@U?$less@V?$basic_string@DU?$char_traits@D@std@@V?$allocator@D@_STL@@@_STL@@@2@V?$allocator@U?$pair@$$CBV?$basic_string@DU?$char_traits@D@std@@V?$allocator@D@_STL@@@_STL@@PAUITagPoint@@@_STL@@@2@@_STL@@AAEXPAU?$_Rb_tree_node@U?$pair@$$CBV?$basic_string@DU?$char_traits@D@std@@V?$allocator@D@_STL@@@_STL@@PAUITagPoint@@@_STL@@@2@@Z 3305fc69 f i XServer.obj
 0001:0005eca1       ?resize@?$basic_string@DU?$char_traits@D@std@@V?$allocator@D@_STL@@@_STL@@QAEXID@Z 3305fca1 f i XServer.obj
 0001:0005ecd2       ?erase@?$_Rb_tree@V?$basic_string@DU?$char_traits@D@std@@V?$allocator@D@_STL@@@_STL@@U?$pair@$$CBV?$basic_string@DU?$char_traits@D@std@@V?$allocator@D@_STL@@@_STL@@PAVCTagPoint@@@2@U?$_Select1st@U?$pair@$$CBV?$basic_string@DU?$char_traits@D@std@@V?$allocator@D@_STL@@@_STL@@PAVCTagPoint@@@_STL@@@2@U?$less@V?$basic_string@DU?$char_traits@D@std@@V?$allocator@D@_STL@@@_STL@@@2@V?$allocator@U?$pair@$$CBV?$basic_string@DU?$char_traits@D@std@@V?$allocator@D@_STL@@@_STL@@PAVCTagPoint@@@_STL@@@2@@_STL@@QAEXU?$_Rb_tree_iterator@U?$pair@$$CBV?$basic_string@DU?$char_traits@D@std@@V?$allocator@D@_STL@@@_STL@@PAVCTagPoint@@@_STL@@U?$_Nonconst_traits@U?$pair@$$CBV?$basic_string@DU?$char_traits@D@std@@V?$allocator@D@_STL@@@_STL@@PAVCTagPoint@@@_STL@@@2@@2@@Z 3305fcd2 f i GameTagPoints.obj
 0001:0005ecd2       ?erase@?$_Rb_tree@V?$basic_string@DU?$char_traits@D@std@@V?$allocator@D@_STL@@@_STL@@U?$pair@$$CBV?$basic_string@DU?$char_traits@D@std@@V?$allocator@D@_STL@@@_STL@@PAUITagPoint@@@2@U?$_Select1st@U?$pair@$$CBV?$basic_string@DU?$char_traits@D@std@@V?$allocator@D@_STL@@@_STL@@PAUITagPoint@@@_STL@@@2@U?$less@V?$basic_string@DU?$char_traits@D@std@@V?$allocator@D@_STL@@@_STL@@@2@V?$allocator@U?$pair@$$CBV?$basic_string@DU?$char_traits@D@std@@V?$allocator@D@_STL@@@_STL@@PAUITagPoint@@@_STL@@@2@@_STL@@QAEXU?$_Rb_tree_iterator@U?$pair@$$CBV?$basic_string@DU?$char_traits@D@std@@V?$allocator@D@_STL@@@_STL@@PAUITagPoint@@@_STL@@U?$_Nonconst_traits@U?$pair@$$CBV?$basic_string@DU?$char_traits@D@std@@V?$allocator@D@_STL@@@_STL@@PAUITagPoint@@@_STL@@@2@@2@@Z 3305fcd2 f i XServer.obj
 0001:0005ed0c       ?_M_create_node@?$_Rb_tree@V?$basic_string@DU?$char_traits@D@std@@V?$allocator@D@_STL@@@_STL@@U?$pair@$$CBV?$basic_string@DU?$char_traits@D@std@@V?$allocator@D@_STL@@@_STL@@PAUITagPoint@@@2@U?$_Select1st@U?$pair@$$CBV?$basic_string@DU?$char_traits@D@std@@V?$allocator@D@_STL@@@_STL@@PAUITagPoint@@@_STL@@@2@U?$less@V?$basic_string@DU?$char_traits@D@std@@V?$allocator@D@_STL@@@_STL@@@2@V?$allocator@U?$pair@$$CBV?$basic_string@DU?$char_traits@D@std@@V?$allocator@D@_STL@@@_STL@@PAUITagPoint@@@_STL@@@2@@_STL@@IAEPAU?$_Rb_tree_node@U?$pair@$$CBV?$basic_string@DU?$char_traits@D@std@@V?$allocator@D@_STL@@@_STL@@PAUITagPoint@@@_STL@@@2@ABU?$pair@$$CBV?$basic_string@DU?$char_traits@D@std@@V?$allocator@D@_STL@@@_STL@@PAUITagPoint@@@2@@Z 3305fd0c f i XServer.obj
 0001:0005ed6b       ?clear@?$_Rb_tree@V?$basic_string@DU?$char_traits@D@std@@V?$allocator@D@_STL@@@_STL@@U?$pair@$$CBV?$basic_string@DU?$char_traits@D@std@@V?$allocator@D@_STL@@@_STL@@PAUITagPoint@@@2@U?$_Select1st@U?$pair@$$CBV?$basic_string@DU?$char_traits@D@std@@V?$allocator@D@_STL@@@_STL@@PAUITagPoint@@@_STL@@@2@U?$less@V?$basic_string@DU?$char_traits@D@std@@V?$allocator@D@_STL@@@_STL@@@2@V?$allocator@U?$pair@$$CBV?$basic_string@DU?$char_traits@D@std@@V?$allocator@D@_STL@@@_STL@@PAUITagPoint@@@_STL@@@2@@_STL@@QAEXXZ 3305fd6b f i XServer.obj
 0001:0005ed94       ??1?$_Rb_tree@V?$basic_string@DU?$char_traits@D@std@@V?$allocator@D@_STL@@@_STL@@U?$pair@$$CBV?$basic_string@DU?$char_traits@D@std@@V?$allocator@D@_STL@@@_STL@@PAUITagPoint@@@2@U?$_Select1st@U?$pair@$$CBV?$basic_string@DU?$char_traits@D@std@@V?$allocator@D@_STL@@@_STL@@PAUITagPoint@@@_STL@@@2@U?$less@V?$basic_string@DU?$char_traits@D@std@@V?$allocator@D@_STL@@@_STL@@@2@V?$allocator@U?$pair@$$CBV?$basic_string@DU?$char_traits@D@std@@V?$allocator@D@_STL@@@_STL@@PAUITagPoint@@@_STL@@@2@@_STL@@QAE@XZ 3305fd94 f i XServer.obj
 0001:0005edc6       ?_M_insert@?$_Rb_tree@V?$basic_string@DU?$char_traits@D@std@@V?$allocator@D@_STL@@@_STL@@U?$pair@$$CBV?$basic_string@DU?$char_traits@D@std@@V?$allocator@D@_STL@@@_STL@@PAUITagPoint@@@2@U?$_Select1st@U?$pair@$$CBV?$basic_string@DU?$char_traits@D@std@@V?$allocator@D@_STL@@@_STL@@PAUITagPoint@@@_STL@@@2@U?$less@V?$basic_string@DU?$char_traits@D@std@@V?$allocator@D@_STL@@@_STL@@@2@V?$allocator@U?$pair@$$CBV?$basic_string@DU?$char_traits@D@std@@V?$allocator@D@_STL@@@_STL@@PAUITagPoint@@@_STL@@@2@@_STL@@AAE?AU?$_Rb_tree_iterator@U?$pair@$$CBV?$basic_string@DU?$char_traits@D@std@@V?$allocator@D@_STL@@@_STL@@PAUITagPoint@@@_STL@@U?$_Nonconst_traits@U?$pair@$$CBV?$basic_string@DU?$char_traits@D@std@@V?$allocator@D@_STL@@@_STL@@PAUITagPoint@@@_STL@@@2@@2@PAU_Rb_tree_node_base@2@0ABU?$pair@$$CBV?$basic_string@DU?$char_traits@D@std@@V?$allocator@D@_STL@@@_STL@@PAUITagPoint@@@2@0@Z 3305fdc6 f i XServer.obj
 0001:0005ee5a       ??1?$multimap@V?$basic_string@DU?$char_traits@D@std@@V?$allocator@D@_STL@@@_STL@@PAUITagPoint@@U?$less@V?$basic_string@DU?$char_traits@D@std@@V?$allocator@D@_STL@@@_STL@@@2@V?$allocator@U?$pair@$$CBV?$basic_string@DU?$char_traits@D@std@@V?$allocator@D@_STL@@@_STL@@PAUITagPoint@@@_STL@@@2@@_STL@@QAE@XZ 3305fe5a f i XServer.obj
 0001:0005ee5f       ?OnBind@CXServer@@UAEXGGE@Z 3305fe5f f i XServer.obj
 0001:0005ee67       ?OnUnbind@CXServer@@UAEXGGE@Z 3305fe67 f i XServer.obj
 0001:0005ee6f       ?insert_equal@?$_Rb_tree@V?$basic_string@DU?$char_traits@D@std@@V?$allocator@D@_STL@@@_STL@@U?$pair@$$CBV?$basic_string@DU?$char_traits@D@std@@V?$allocator@D@_STL@@@_STL@@PAUITagPoint@@@2@U?$_Select1st@U?$pair@$$CBV?$basic_string@DU?$char_traits@D@std@@V?$allocator@D@_STL@@@_STL@@PAUITagPoint@@@_STL@@@2@U?$less@V?$basic_string@DU?$char_traits@D@std@@V?$allocator@D@_STL@@@_STL@@@2@V?$allocator@U?$pair@$$CBV?$basic_string@DU?$char_traits@D@std@@V?$allocator@D@_STL@@@_STL@@PAUITagPoint@@@_STL@@@2@@_STL@@QAE?AU?$_Rb_tree_iterator@U?$pair@$$CBV?$basic_string@DU?$char_traits@D@std@@V?$allocator@D@_STL@@@_STL@@PAUITagPoint@@@_STL@@U?$_Nonconst_traits@U?$pair@$$CBV?$basic_string@DU?$char_traits@D@std@@V?$allocator@D@_STL@@@_STL@@PAUITagPoint@@@_STL@@@2@@2@ABU?$pair@$$CBV?$basic_string@DU?$char_traits@D@std@@V?$allocator@D@_STL@@@_STL@@PAUITagPoint@@@2@@Z 3305fe6f f i XServer.obj
 0001:0005eeb8       ?Read@TextMessage@@QAE_NAAVCStream@@@Z 3305feb8 f i XServer.obj
 0001:0005ef56       ??_GCXServer@@UAEPAXI@Z    3305ff56 f i XServer.obj
 0001:0005ef56       ??_ECXServer@@UAEPAXI@Z    3305ff56 f i XServer.obj
 0001:0005ef72       ??4SXGameContext@@QAEAAU0@ABU0@@Z 3305ff72 f i XServer.obj
 0001:0005efd5       ??4BannedID@@QAEAAV0@ABV0@@Z 3305ffd5 f i XServer.obj
 0001:0005f00b       ??$_Construct@VBannedID@@V1@@_STL@@YAXPAVBannedID@@ABV1@@Z 3306000b f i XServer.obj
 0001:0005f038       ??$__uninitialized_copy@PAVBannedID@@PAV1@@_STL@@YAPAVBannedID@@PAV1@00ABU__false_type@0@@Z 33060038 f i XServer.obj
 0001:0005f098       ??$__uninitialized_fill_n@PAVBannedID@@IV1@@_STL@@YAPAVBannedID@@PAV1@IABV1@ABU__false_type@0@@Z 33060098 f i XServer.obj
 0001:0005f0f8       ??$__copy@PAVBannedID@@PAV1@H@_STL@@YAPAVBannedID@@PAV1@00ABUrandom_access_iterator_tag@0@PAH@Z 330600f8 f i XServer.obj
 0001:0005f12a       ?_M_insert_overflow@?$vector@VBannedID@@V?$allocator@VBannedID@@@_STL@@@_STL@@IAEXPAVBannedID@@ABV3@ABU__false_type@2@I_N@Z 3306012a f i XServer.obj
 0001:0005f237       ??$__copy_ptrs@PAVBannedID@@PAV1@@_STL@@YAPAVBannedID@@PAV1@00ABU__false_type@0@@Z 33060237 f i XServer.obj
 0001:0005f254       ?push_back@?$vector@VBannedID@@V?$allocator@VBannedID@@@_STL@@@_STL@@QAEXABVBannedID@@@Z 33060254 f i XServer.obj
 0001:0005f28b       ?erase@?$vector@VBannedID@@V?$allocator@VBannedID@@@_STL@@@_STL@@QAEPAVBannedID@@PAV3@@Z 3306028b f i XServer.obj
 0001:0005f2c3       ?erase@?$vector@VBannedID@@V?$allocator@VBannedID@@@_STL@@@_STL@@QAEPAVBannedID@@PAV3@0@Z 330602c3 f i XServer.obj
 0001:0005f2f6       ?ChangeGameRules@CXServerRules@@AAE_NPBD@Z 330602f6 f   XServerRules.obj
 0001:0005f347       ?Init@CXServerRules@@QAE_NPAVCXGame@@PAUIConsole@@PAUIScriptSystem@@PAUILog@@@Z 33060347 f   XServerRules.obj
 0001:0005f424       ?ShutDown@CXServerRules@@QAEXXZ 33060424 f   XServerRules.obj
 0001:0005f458       ?MapChanged@CXServerRules@@QAEXXZ 33060458 f   XServerRules.obj
 0001:0005f481       ?GetGameType@CXServerRules@@QAEPBDXZ 33060481 f   XServerRules.obj
 0001:0005f4ec       ?PrintEnterGameMessage@CXServerRules@@QAEXPBDH@Z 330604ec f   XServerRules.obj
 0001:0005f4ef       ?OnPlayerRespawn@CXServerRules@@QAEXPAUIEntity@@@Z 330604ef f   XServerRules.obj
 0001:0005f535       ?OnClientConnect@CXServerRules@@QAEHPAUIScriptObject@@H@Z 33060535 f   XServerRules.obj
 0001:0005f583       ?OnClientDisconnect@CXServerRules@@QAEXPAUIScriptObject@@@Z 33060583 f   XServerRules.obj
 0001:0005f5bb       ?OnClientRequestRespawn@CXServerRules@@QAEXPAUIScriptObject@@G@Z 330605bb f   XServerRules.obj
 0001:0005f601       ?OnSpectatorSwitchModeRequest@CXServerRules@@QAEXPAUIEntity@@@Z 33060601 f   XServerRules.obj
 0001:0005f647       ?OnAfterLoad@CXServerRules@@QAEXXZ 33060647 f   XServerRules.obj
 0001:0005f688       ?CallVote@CXServerRules@@QAEXAAVCScriptObjectServerSlot@@PAD1@Z 33060688 f   XServerRules.obj
 0001:0005f6db       ?Vote@CXServerRules@@QAEXAAVCScriptObjectServerSlot@@H@Z 330606db f   XServerRules.obj
 0001:0005f722       ?Kill@CXServerRules@@QAEXAAVCScriptObjectServerSlot@@@Z 33060722 f   XServerRules.obj
 0001:0005f75d       ?OnHitPlayer@CXServerRules@@QAEXABUSWeaponHit@@@Z 3306075d f   XServerRules.obj
 0001:0005f8fe       ?Update@CXServerRules@@QAEXXZ 330608fe f   XServerRules.obj
 0001:0005f9ae       ?OnHitObject@CXServerRules@@QAEXABUSWeaponHit@@@Z 330609ae f   XServerRules.obj
 0001:0005fb4f       ?OnClientMsgJoinTeamRequest@CXServerRules@@QAEHPAVCXServerSlot@@EPBD@Z 33060b4f f   XServerRules.obj
 0001:0005fc08       ?OnClientCmd@CXServerRules@@QAEHPAVCXServerSlot@@PBD@Z 33060c08 f   XServerRules.obj
 0001:0005fc54       ?SendWorldTextMessage@CXServerRules@@QAEXGAAUTextMessage@@@Z 33060c54 f   XServerRules.obj
 0001:0005fca7       ?SendEntityTextMessage@CXServerRules@@QAEXGAAUTextMessage@@@Z 33060ca7 f   XServerRules.obj
 0001:0005fd67       ?SendTeamTextMessage@CXServerRules@@QAEXGAAUTextMessage@@@Z 33060d67 f   XServerRules.obj
 0001:0005fdfa       ??0CXServerRules@@QAE@XZ   33060dfa f   XServerRules.obj
 0001:0005fe1d       ??1CXServerRules@@UAE@XZ   33060e1d f   XServerRules.obj
 0001:0005fe52       ?GetGameStuffScript@CXServerRules@@QAE?AV?$basic_string@DU?$char_traits@D@std@@V?$allocator@D@_STL@@@_STL@@XZ 33060e52 f   XServerRules.obj
 0001:0005fe6d       ?SetGameStuffScript@CXServerRules@@QAEXV?$basic_string@DU?$char_traits@D@std@@V?$allocator@D@_STL@@@_STL@@@Z 33060e6d f   XServerRules.obj
 0001:0005fea7       ?OnClientMsgText@CXServerRules@@QAEXGAAUTextMessage@@@Z 33060ea7 f   XServerRules.obj
 0001:0006009e       ??_GCXServerRules@@UAEPAXI@Z 3306109e f i XServerRules.obj
 0001:0006009e       ??_ECXServerRules@@UAEPAXI@Z 3306109e f i XServerRules.obj
 0001:000600ba       ?OnXServerSlotConnect@CXServerSlot@@UAEXPBEI@Z 330610ba f   XServerSlot.obj
 0001:000600f9       ?Disconnect@CXServerSlot@@QAEXPBD@Z 330610f9 f   XServerSlot.obj
 0001:00060110       ?GetID@CXServerSlot@@QAEEXZ 33061110 f   XServerSlot.obj
 0001:0006011b       ?IsXServerSlotGarbage@CXServerSlot@@QAE_NXZ 3306111b f   XServerSlot.obj
 0001:00060122       ?IsLocalHost@CXServerSlot@@QAE_NXZ 33061122 f   XServerSlot.obj
 0001:00060129       ?GetPing@CXServerSlot@@QAEIXZ 33061129 f   XServerSlot.obj
 0001:00060134       ?GetServer@CXServerSlot@@QAEPAVCXServer@@XZ 33061134 f   XServerSlot.obj
 0001:0006013b       ?ConvertToValidPlayerName@CXServerSlot@@SAXPBDPADI@Z 3306113b f   XServerSlot.obj
 0001:000601ea       ?IsReady@CXServerSlot@@QAE_NXZ 330611ea f   XServerSlot.obj
 0001:000601f5       ?GetPlayerId@CXServerSlot@@QBEGXZ 330611f5 f   XServerSlot.obj
 0001:000601fd       ?OnClientMsgKill@CXServerSlot@@AAEXAAVCStream@@@Z 330611fd f   XServerSlot.obj
 0001:00060218       ?IsContextReady@CXServerSlot@@QAE_NXZ 33061218 f   XServerSlot.obj
 0001:0006021f       ?OccupyLazyChannel@CXServerSlot@@QAE_NXZ 3306121f f   XServerSlot.obj
 0001:00060243       ?GetServerLazyChannelState@CXServerSlot@@QAE_NXZ 33061243 f   XServerSlot.obj
 0001:0006024a       ?ShouldSendOverLazyChannel@CXServerSlot@@QAE_NXZ 3306124a f   XServerSlot.obj
 0001:0006026e       ?IsClientSideEntity@CXServerSlot@@QAE_NPAUIEntity@@@Z 3306126e f   XServerSlot.obj
 0001:000602cb       ?OnClientReturnScriptHash@CXServerSlot@@AAEXAAVCStream@@@Z 330612cb f   XServerSlot.obj
 0001:000602f4       ?ResetBandwidthStats@CXServerSlot@@QAEXXZ 330612f4 f   XServerSlot.obj
 0001:00060309       ?OnXServerSlotDisconnect@CXServerSlot@@UAEXPBD@Z 33061309 f   XServerSlot.obj
 0001:00060359       ?BanByIP@CXServerSlot@@QAEXXZ 33061359 f   XServerSlot.obj
 0001:00060378       ?SendReliable@CXServerSlot@@QAEXAAVCStream@@_N@Z 33061378 f   XServerSlot.obj
 0001:000603b0       ?SendUnreliable@CXServerSlot@@QAEXAAVCStream@@@Z 330613b0 f   XServerSlot.obj
 0001:000603e4       ?GetName@CXServerSlot@@QAEPBDXZ 330613e4 f   XServerSlot.obj
 0001:000603eb       ?GetModel@CXServerSlot@@QAEPBDXZ 330613eb f   XServerSlot.obj
 0001:000603f2       ?GetHatModel@CXServerSlot@@QAEPBDXZ 330613f2 f   XServerSlot.obj
 0001:000603f9       ?GetColor@CXServerSlot@@QAEPBDXZ 330613f9 f   XServerSlot.obj
 0001:00060400       ?OnClientMsgVote@CXServerSlot@@AAEXAAVCStream@@@Z 33061400 f   XServerSlot.obj
 0001:00060434       ?OnClientMsgRate@CXServerSlot@@AAEXAAVCStream@@@Z 33061434 f   XServerSlot.obj
 0001:00060494       ?OnClientMsgAIState@CXServerSlot@@AAEXAAVCStream@@@Z 33061494 f   XServerSlot.obj
 0001:000604c5       ?GetBandwidthStats@CXServerSlot@@QAEXAAUSServerSlotBandwidthStats@@@Z 330614c5 f   XServerSlot.obj
 0001:000604ec       ?SendReliableMsg@CXServerSlot@@QAEIEAAVCStream@@_NPBD@Z 330614ec f   XServerSlot.obj
 0001:0006057d       ?SendUnreliableMsg@CXServerSlot@@QAEIEAAVCStream@@PBD_N@Z 3306157d f   XServerSlot.obj
 0001:00060625       ?SetPlayerID@CXServerSlot@@QAEXG@Z 33061625 f   XServerSlot.obj
 0001:000607b8       ?SetGameState@CXServerSlot@@QAEXHH@Z 330617b8 f   XServerSlot.obj
 0001:00060843       ?SendTextMessage@CXServerSlot@@QAEXAAUTextMessage@@_N@Z 33061843 f   XServerSlot.obj
 0001:000608aa       ?OnSpawnEntity@CXServerSlot@@QAEXAAVCEntityDesc@@PAUIEntity@@_N@Z 330618aa f   XServerSlot.obj
 0001:00060980       ?OnRemoveEntity@CXServerSlot@@QAEXPAUIEntity@@@Z 33061980 f   XServerSlot.obj
 0001:00060a16       ?FinishOnContextReady@CXServerSlot@@AAEXXZ 33061a16 f   XServerSlot.obj
 0001:00060c0f       ?SendCommand@CXServerSlot@@QAEXPBD@Z 33061c0f f   XServerSlot.obj
 0001:00060c81       ?SendCommand@CXServerSlot@@QAEXPBDABU?$Vec3_tpl@M@@1GE@Z 33061c81 f   XServerSlot.obj
 0001:00060e0d       ?SendScoreBoard@CXServerSlot@@AAEXXZ 33061e0d f   XServerSlot.obj
 0001:00060fec       ?OnClientMsgPlayerProcessingCmd@CXServerSlot@@AAEXAAVCStream@@@Z 33061fec f   XServerSlot.obj
 0001:000617f7       ?IsEntityOffSync@CXServerSlot@@QAE_NG@Z 330627f7 f   XServerSlot.obj
 0001:00061897       ??1CXServerSlot@@UAE@XZ    33062897 f   XServerSlot.obj
 0001:00061957       ??0CXServerSlot@@QAE@PAVCXServer@@PAUIServerSlot@@@Z 33062957 f   XServerSlot.obj
 0001:00061b20       ?ContextSetup@CXServerSlot@@QAEXXZ 33062b20 f   XServerSlot.obj
 0001:00061bee       ?MarkEntityOffSync@CXServerSlot@@QAEXG@Z 33062bee f   XServerSlot.obj
 0001:00061d56       ?OnClientOffSyncEntityList@CXServerSlot@@AAEXAAVCStream@@@Z 33062d56 f   XServerSlot.obj
 0001:00061d96       ?SendText@CXServerSlot@@QAEXPBDM@Z 33062d96 f   XServerSlot.obj
 0001:00061df0       ?Update@CXServerSlot@@QAEX_N0@Z 33062df0 f   XServerSlot.obj
 0001:00061ef6       ?ValidateName@CXServerSlot@@AAEXXZ 33062ef6 f   XServerSlot.obj
 0001:00061fc4       ?ClientString@CXServerSlot@@AAEXPBD@Z 33062fc4 f   XServerSlot.obj
 0001:00061feb       ?GetNetStats@CXServerSlot@@QAEXAAUSlotNetStats@@@Z 33062feb f   XServerSlot.obj
 0001:00062044       ?OnXPlayerAuthorization@CXServerSlot@@UAEX_NPBDPBEI@Z 33063044 f   XServerSlot.obj
 0001:00062155       ?BanByID@CXServerSlot@@QAEXXZ 33063155 f   XServerSlot.obj
 0001:000621d9       ?OnContextReady@CXServerSlot@@UAEXAAVCStream@@@Z 330631d9 f   XServerSlot.obj
 0001:000622d5       ?OnClientMsgCallVote@CXServerSlot@@AAEXAAVCStream@@@Z 330632d5 f   XServerSlot.obj
 0001:00062366       ?OnClientMsgName@CXServerSlot@@AAEXAAVCStream@@@Z 33063366 f   XServerSlot.obj
 0001:000625b8       ?OnClientMsgJoinTeamRequest@CXServerSlot@@AAEXAAVCStream@@@Z 330635b8 f   XServerSlot.obj
 0001:00062631       ?OnClientMsgCmd@CXServerSlot@@AAEXAAVCStream@@@Z 33063631 f   XServerSlot.obj
 0001:00062699       ?ParseIncomingStream@CXServerSlot@@AAE_NAAVCStream@@@Z 33063699 f   XServerSlot.obj
 0001:000627ed       ?OnData@CXServerSlot@@UAEXAAVCStream@@@Z 330637ed f   XServerSlot.obj
 0001:00062820       ?Read@CStream@@QAE_NAAU?$Vec3_tpl@M@@@Z 33063820 f i XServerSlot.obj
 0001:0006284f       ?ReadPkd@CStream@@QAE_NAAG@Z 3306384f f i XServerSlot.obj
 0001:0006288e       ?ReadPkd@CStream@@QAE_NAAF@Z 3306388e f i XServerSlot.obj
 0001:000628df       ?Seek@CStream@@QAE_NI@Z    330638df f i XServerSlot.obj
 0001:000628fa       ?AddTimeSlice@CXEntityProcessingCmd@@QAEHPAMH@Z 330638fa f i XServerSlot.obj
 0001:00062934       ?InsertTimeSlice@CXEntityProcessingCmd@@QAEHMH@Z 33063934 f i XServerSlot.obj
 0001:0006297f       ?QuantizeTime@CXGame@@QAEHM@Z 3306397f f i XServerSlot.obj
 0001:000629b6       ?Write@CStreamData_Normal@@UBE_NAAVCStream@@@Z 330639b6 f i XServerSlot.obj
 0001:00062b26       ?IsActive@CStreamData_WorldPos@@SA_NXZ 33063b26 f i XServerSlot.obj
 0001:00062b26       ?IsActive@CStreamData_Normal@@SA_NXZ 33063b26 f i XServerSlot.obj
 0001:00062b3c       ?WriteNumberInBits@CStream@@QAE_NII@Z 33063b3c f i XServerSlot.obj
 0001:00062b9b       ?OnElementFound@CCVarSerialize@@UAEXPAUICVar@@@Z 33063b9b f i XServerSlot.obj
 0001:00062bc8       ??$_M_find@G@?$_Rb_tree@GGU?$_Identity@G@_STL@@U?$less@G@2@V?$allocator@G@2@@_STL@@ABEPAU?$_Rb_tree_node@G@1@ABG@Z 33063bc8 f i XSystemBase.obj
 0001:00062bc8       ??$_M_find@G@?$_Rb_tree@GU?$pair@$$CBGH@_STL@@U?$_Select1st@U?$pair@$$CBGH@_STL@@@2@U?$less@G@2@V?$allocator@U?$pair@$$CBGH@_STL@@@2@@_STL@@ABEPAU?$_Rb_tree_node@U?$pair@$$CBGH@_STL@@@1@ABG@Z 33063bc8 f i XServerSlot.obj
 0001:00062bc8       ??$_M_find@G@?$_Rb_tree@GU?$pair@$$CBGUEntityClass@@@_STL@@U?$_Select1st@U?$pair@$$CBGUEntityClass@@@_STL@@@2@U?$less@G@2@V?$allocator@U?$pair@$$CBGUEntityClass@@@_STL@@@2@@_STL@@ABEPAU?$_Rb_tree_node@U?$pair@$$CBGUEntityClass@@@_STL@@@1@ABG@Z 33063bc8 f i EntityClassRegistry.obj
 0001:00062c04       ??$_Construct@U?$pair@$$CBGH@_STL@@U12@@_STL@@YAXPAU?$pair@$$CBGH@0@ABU10@@Z 33063c04 f i XServerSlot.obj
 0001:00062c1d       ?WritePkd@CStream@@QAE_NG@Z 33063c1d f i XServerSlot.obj
 0001:00062c5a       ?WritePkd@CStream@@QAE_NF@Z 33063c5a f i XServerSlot.obj
 0001:00062caf       ?Write@CEntityDesc@@QAE_NPAUIBitStream@@AAVCStream@@@Z 33063caf f i XServerSlot.obj
 0001:00062f00       ?Write@TextMessage@@QAE_NAAVCStream@@@Z 33063f00 f i XServerSlot.obj
 0001:00062f9b       ?Read@CStreamData_WorldPos@@UBE_NAAVCStream@@@Z 33063f9b f i XServerSlot.obj
 0001:0006308d       ?Write@CStreamData_WorldPos@@UBE_NAAVCStream@@@Z 3306408d f i XServerSlot.obj
 0001:000631bb       ?Read@CStreamData_Normal@@UBE_NAAVCStream@@@Z 330641bb f i XServerSlot.obj
 0001:0006333a       ?_M_erase@?$_Rb_tree@GU?$pair@$$CBGH@_STL@@U?$_Select1st@U?$pair@$$CBGH@_STL@@@2@U?$less@G@2@V?$allocator@U?$pair@$$CBGH@_STL@@@2@@_STL@@AAEXPAU?$_Rb_tree_node@U?$pair@$$CBGH@_STL@@@2@@Z 3306433a f i XServerSlot.obj
 0001:0006336a       ?erase@?$_Rb_tree@GU?$pair@$$CBGH@_STL@@U?$_Select1st@U?$pair@$$CBGH@_STL@@@2@U?$less@G@2@V?$allocator@U?$pair@$$CBGH@_STL@@@2@@_STL@@QAEXU?$_Rb_tree_iterator@U?$pair@$$CBGH@_STL@@U?$_Nonconst_traits@U?$pair@$$CBGH@_STL@@@2@@2@@Z 3306436a f i XServerSlot.obj
 0001:0006336a       ?erase@?$_Rb_tree@HU?$pair@$$CBHPAUScriptTimer@@@_STL@@U?$_Select1st@U?$pair@$$CBHPAUScriptTimer@@@_STL@@@2@U?$less@H@2@V?$allocator@U?$pair@$$CBHPAUScriptTimer@@@_STL@@@2@@_STL@@QAEXU?$_Rb_tree_iterator@U?$pair@$$CBHPAUScriptTimer@@@_STL@@U?$_Nonconst_traits@U?$pair@$$CBHPAUScriptTimer@@@_STL@@@2@@2@@Z 3306436a f i ScriptTimerMgr.obj
 0001:0006336a       ?erase@?$_Rb_tree@EU?$pair@$$CBEPAVCXServerSlot@@@_STL@@U?$_Select1st@U?$pair@$$CBEPAVCXServerSlot@@@_STL@@@2@U?$less@E@2@V?$allocator@U?$pair@$$CBEPAVCXServerSlot@@@_STL@@@2@@_STL@@QAEXU?$_Rb_tree_iterator@U?$pair@$$CBEPAVCXServerSlot@@@_STL@@U?$_Nonconst_traits@U?$pair@$$CBEPAVCXServerSlot@@@_STL@@@2@@2@@Z 3306436a f i XServer.obj
 0001:00063398       ?clear@?$_Rb_tree@GU?$pair@$$CBGH@_STL@@U?$_Select1st@U?$pair@$$CBGH@_STL@@@2@U?$less@G@2@V?$allocator@U?$pair@$$CBGH@_STL@@@2@@_STL@@QAEXXZ 33064398 f i XServerSlot.obj
 0001:000633c1       ?_M_create_node@?$_Rb_tree@GU?$pair@$$CBGH@_STL@@U?$_Select1st@U?$pair@$$CBGH@_STL@@@2@U?$less@G@2@V?$allocator@U?$pair@$$CBGH@_STL@@@2@@_STL@@IAEPAU?$_Rb_tree_node@U?$pair@$$CBGH@_STL@@@2@ABU?$pair@$$CBGH@2@@Z 330643c1 f i XServerSlot.obj
 0001:000633e1       ??1?$_Rb_tree@GU?$pair@$$CBGH@_STL@@U?$_Select1st@U?$pair@$$CBGH@_STL@@@2@U?$less@G@2@V?$allocator@U?$pair@$$CBGH@_STL@@@2@@_STL@@QAE@XZ 330643e1 f i XServerSlot.obj
 0001:00063413       ?_M_insert@?$_Rb_tree@GU?$pair@$$CBGH@_STL@@U?$_Select1st@U?$pair@$$CBGH@_STL@@@2@U?$less@G@2@V?$allocator@U?$pair@$$CBGH@_STL@@@2@@_STL@@AAE?AU?$_Rb_tree_iterator@U?$pair@$$CBGH@_STL@@U?$_Nonconst_traits@U?$pair@$$CBGH@_STL@@@2@@2@PAU_Rb_tree_node_base@2@0ABU?$pair@$$CBGH@2@0@Z 33064413 f i XServerSlot.obj
 0001:0006349d       ??1?$map@GHU?$less@G@_STL@@V?$allocator@U?$pair@$$CBGH@_STL@@@2@@_STL@@QAE@XZ 3306449d f i XServerSlot.obj
 0001:000634a2       ??0?$_Rb_tree@EU?$pair@$$CBEPAVCXServerSlot@@@_STL@@U?$_Select1st@U?$pair@$$CBEPAVCXServerSlot@@@_STL@@@2@U?$less@E@2@V?$allocator@U?$pair@$$CBEPAVCXServerSlot@@@_STL@@@2@@_STL@@QAE@ABU?$less@E@1@ABV?$allocator@U?$pair@$$CBEPAVCXServerSlot@@@_STL@@@1@@Z 330644a2 f i XServer.obj
 0001:000634a2       ??0?$_Rb_tree@HU?$pair@$$CBHUSMatProps@@@_STL@@U?$_Select1st@U?$pair@$$CBHUSMatProps@@@_STL@@@2@U?$less@H@2@V?$allocator@U?$pair@$$CBHUSMatProps@@@_STL@@@2@@_STL@@QAE@ABU?$less@H@1@ABV?$allocator@U?$pair@$$CBHUSMatProps@@@_STL@@@1@@Z 330644a2 f i XSurfaceMgr.obj
 0001:000634a2       ??0?$_Rb_tree@GU?$pair@$$CBGH@_STL@@U?$_Select1st@U?$pair@$$CBGH@_STL@@@2@U?$less@G@2@V?$allocator@U?$pair@$$CBGH@_STL@@@2@@_STL@@QAE@ABU?$less@G@1@ABV?$allocator@U?$pair@$$CBGH@_STL@@@1@@Z 330644a2 f i XServerSlot.obj
 0001:000634a2       ??0?$_Rb_tree@HU?$pair@$$CBHH@_STL@@U?$_Select1st@U?$pair@$$CBHH@_STL@@@2@U?$less@H@2@V?$allocator@U?$pair@$$CBHH@_STL@@@2@@_STL@@QAE@ABU?$less@H@1@ABV?$allocator@U?$pair@$$CBHH@_STL@@@1@@Z 330644a2 f i XSystemBase.obj
 0001:000634a2       ??0?$_Rb_tree@HU?$pair@$$CBHPAUScriptTimer@@@_STL@@U?$_Select1st@U?$pair@$$CBHPAUScriptTimer@@@_STL@@@2@U?$less@H@2@V?$allocator@U?$pair@$$CBHPAUScriptTimer@@@_STL@@@2@@_STL@@QAE@ABU?$less@H@1@ABV?$allocator@U?$pair@$$CBHPAUScriptTimer@@@_STL@@@1@@Z 330644a2 f i ScriptTimerMgr.obj
 0001:000634cc       ?insert_unique@?$_Rb_tree@GU?$pair@$$CBGH@_STL@@U?$_Select1st@U?$pair@$$CBGH@_STL@@@2@U?$less@G@2@V?$allocator@U?$pair@$$CBGH@_STL@@@2@@_STL@@QAE?AU?$pair@U?$_Rb_tree_iterator@U?$pair@$$CBGH@_STL@@U?$_Nonconst_traits@U?$pair@$$CBGH@_STL@@@2@@_STL@@_N@2@ABU?$pair@$$CBGH@2@@Z 330644cc f i XServerSlot.obj
 0001:00063556       ??_ECXServerSlot@@UAEPAXI@Z 33064556 f i XServerSlot.obj
 0001:00063556       ??_GCXServerSlot@@UAEPAXI@Z 33064556 f i XServerSlot.obj
 0001:00063572       ??0BannedID@@QAE@PBEEABV?$basic_string@DU?$char_traits@D@std@@V?$allocator@D@_STL@@@_STL@@@Z 33064572 f i XServerSlot.obj
 0001:000635e6       ?SetSendPerSecond@CXSnapshot@@QAEXH@Z 330645e6 f   XSnapshot.obj
 0001:000635f7       ?GetSendPerSecond@CXSnapshot@@QAEHXZ 330645f7 f   XSnapshot.obj
 0001:0006360d       ?GetLastUpdate@CXSnapshot@@QBEMXZ 3306460d f   XSnapshot.obj
 0001:00063611       ?SetClientBitsPerSecond@CXSnapshot@@QAEXI@Z 33064611 f   XSnapshot.obj
 0001:0006361e       ?Init@CXSnapshot@@QAEXPAVCXServer@@PAVCXServerSlot@@@Z 3306461e f   XSnapshot.obj
 0001:00063659       ?Reset@CXSnapshot@@AAEXXZ  33064659 f   XSnapshot.obj
 0001:00063680       ?BuildAndSendSnapshot@CXSnapshot@@QAEXXZ 33064680 f   XSnapshot.obj
 0001:00063ae6       ?RemoveEntity@CXSnapshot@@QAE_NPAUIEntity@@@Z 33064ae6 f   XSnapshot.obj
 0001:00063b54       ??1CXSnapshot@@QAE@XZ      33064b54 f   XSnapshot.obj
 0001:00063b9c       ??0CXSnapshot@@QAE@XZ      33064b9c f   XSnapshot.obj
 0001:00063c0b       ?AddEntity@CXSnapshot@@QAEXPAUIEntity@@@Z 33064c0b f   XSnapshot.obj
 0001:00063c7f       ??$_Construct@VCNetEntityInfo@@V1@@_STL@@YAXPAVCNetEntityInfo@@ABV1@@Z 33064c7f f i XSnapshot.obj
 0001:00063cac       ?CryWarning@@YAXW4EValidatorModule@@W4EValidatorSeverity@@PBDZZ 33064cac f i XSnapshot.obj
 0001:00063cfd       ?GetCommandClientPhysTime@CXServerSlot@@QAEIXZ 33064cfd f i XSnapshot.obj
 0001:00063d13       ?GetClientWorldPhysTime@CXServerSlot@@QAEIXZ 33064d13 f i XSnapshot.obj
 0001:00063d29       ?GameWarning@@YAXPBDZZ     33064d29 f i XSnapshot.obj
 0001:00063d65       ?deallocate@?$allocator@U?$_List_node@VCNetEntityInfo@@@_STL@@@_STL@@QAEXPAU?$_List_node@VCNetEntityInfo@@@2@I@Z 33064d65 f i XSnapshot.obj
 0001:00063d85       ?clear@?$_List_base@VCNetEntityInfo@@V?$allocator@VCNetEntityInfo@@@_STL@@@_STL@@QAEXXZ 33064d85 f i XSnapshot.obj
 0001:00063dba       ?erase@?$list@VCNetEntityInfo@@V?$allocator@VCNetEntityInfo@@@_STL@@@_STL@@QAE?AU?$_List_iterator@VCNetEntityInfo@@U?$_Nonconst_traits@VCNetEntityInfo@@@_STL@@@2@U32@@Z 33064dba f i XSnapshot.obj
 0001:00063dec       ??1?$_List_base@VCNetEntityInfo@@V?$allocator@VCNetEntityInfo@@@_STL@@@_STL@@QAE@XZ 33064dec f i XSnapshot.obj
 0001:00063e01       ??1?$list@VCNetEntityInfo@@V?$allocator@VCNetEntityInfo@@@_STL@@@_STL@@QAE@XZ 33064e01 f i XSnapshot.obj
 0001:00063e06       ??0?$_List_base@VCNetEntityInfo@@V?$allocator@VCNetEntityInfo@@@_STL@@@_STL@@QAE@ABV?$allocator@VCNetEntityInfo@@@1@@Z 33064e06 f i XSnapshot.obj
 0001:00063e2c       ?_M_create_node@?$list@VCNetEntityInfo@@V?$allocator@VCNetEntityInfo@@@_STL@@@_STL@@IAEPAU?$_List_node@VCNetEntityInfo@@@2@ABVCNetEntityInfo@@@Z 33064e2c f i XSnapshot.obj
 0001:00063e8b       ?insert@?$list@VCNetEntityInfo@@V?$allocator@VCNetEntityInfo@@@_STL@@@_STL@@QAE?AU?$_List_iterator@VCNetEntityInfo@@U?$_Nonconst_traits@VCNetEntityInfo@@@_STL@@@2@U32@ABVCNetEntityInfo@@@Z 33064e8b f i XSnapshot.obj
 0001:00063eb0       ?push_back@?$list@VCNetEntityInfo@@V?$allocator@VCNetEntityInfo@@@_STL@@@_STL@@QAEXABVCNetEntityInfo@@@Z 33064eb0 f i XSnapshot.obj
 0001:00063eca       ?GetEntity@CXSystemBase@@UAEPAUIEntity@@G@Z 33064eca f   XSystemBase.obj
 0001:00063ed2       ?GetEntity@CXSystemBase@@UAEPAUIEntity@@PBD@Z 33064ed2 f   XSystemBase.obj
 0001:00063eda       ?GetEntities@CXSystemBase@@UAEPAUIEntityIt@@XZ 33064eda f   XSystemBase.obj
 0001:00063ee2       ?EntityExists@CXSystemBase@@UAE_NG@Z 33064ee2 f   XSystemBase.obj
 0001:00063ef3       ?GetLocalPlayer@CXSystemBase@@UAEPAUIEntity@@XZ 33064ef3 f   XSystemBase.obj
 0001:00063f1f       ?StartLoading@CXSystemBase@@QAEX_N@Z 33064f1f f   XSystemBase.obj
 0001:00063fad       ?RecursiveSetEntityProperties@CXSystemBase@@IAEXPAV_SmartScriptObject@@PAUIXMLDOMNodeList@XDOM@@@Z 33064fad f   XSystemBase.obj
 0001:00064280       ?EndLoading@CXSystemBase@@QAEX_N@Z 33065280 f   XSystemBase.obj
 0001:00064392       ?SetEntityProperties@CXSystemBase@@MAEXPAUIEntity@@PAUIXMLDOMNode@XDOM@@@Z 33065392 f   XSystemBase.obj
 0001:000645a4       ?BindChildren@CXSystemBase@@MAEXXZ 330655a4 f   XSystemBase.obj
 0001:00064632       ?GetTeamId@CXSystemBase@@UAEHPBD@Z 33065632 f   XSystemBase.obj
 0001:0006466e       ?Write@Team@@QAE_NAAVCStream@@@Z 3306566e f   XSystemBase.obj
 0001:0006470c       ?GetTeamScore@CXSystemBase@@UAEHH@Z 3306570c f   XSystemBase.obj
 0001:0006472c       ?GetTeamFlags@CXSystemBase@@UAEHH@Z 3306572c f   XSystemBase.obj
 0001:0006474c       ?GetTeamName@CXSystemBase@@UAE_NHPAD@Z 3306574c f   XSystemBase.obj
 0001:0006477b       ?GetEntityTeam@CXSystemBase@@UAEHH@Z 3306577b f   XSystemBase.obj
 0001:000647b4       ?GetTeamMembersCount@CXSystemBase@@UAEHH@Z 330657b4 f   XSystemBase.obj
 0001:000647d3       ?SetTeamScore@CXSystemBase@@UAEXHF@Z 330657d3 f   XSystemBase.obj
 0001:00064800       ?SetTeamFlags@CXSystemBase@@UAEXHH@Z 33065800 f   XSystemBase.obj
 0001:0006482c       ?OnRemove@CXSystemBase@@UAEXPAUIEntity@@@Z 3306582c f   XSystemBase.obj
 0001:00064889       ?InitRegistry@CXSystemBase@@IAEXPBD@Z 33065889 f   XSystemBase.obj
 0001:0006493f       ?LoadLanguageTable@CXSystemBase@@QAE_NPBD0@Z 3306593f f   XSystemBase.obj
 0001:00064998       ?LoadMaterials@CXSystemBase@@QAE_NPAUIXMLDOMDocument@XDOM@@@Z 33065998 f   XSystemBase.obj
 0001:00064c1b       ?OnSpawnContainer@CXSystemBase@@UAEXAAVCEntityDesc@@PAUIEntity@@@Z 33065c1b f   XSystemBase.obj
 0001:0006517b       ?OnSpawn@CXSystemBase@@UAEXPAUIEntity@@AAVCEntityDesc@@@Z 3306617b f   XSystemBase.obj
 0001:000654ad       ?SetTeam@CXSystemBase@@UAEXGH@Z 330664ad f   XSystemBase.obj
 0001:00065528       ?SetLevelFolder@SMissionInfo@CXSystemBase@@QAEXPBD@Z 33066528 f   XSystemBase.obj
 0001:000655bd       ??1CXSystemBase@@UAE@XZ    330665bd f   XSystemBase.obj
 0001:00065628       ?GetMission@CXSystemBase@@QAEXPAUIXMLDOMDocument@XDOM@@PBDAAUSMissionInfo@1@@Z 33066628 f   XSystemBase.obj
 0001:000659ae       ?LoadMusic@CXSystemBase@@IAEXAAUSMissionInfo@1@@Z 330669ae f   XSystemBase.obj
 0001:00065c44       ?AddMPProtectedFiles@CXSystemBase@@IAEXAAUSMissionInfo@1@@Z 33066c44 f   XSystemBase.obj
 0001:00065cbe       ??0CXSystemBase@@QAE@PAVCXGame@@PAUILog@@@Z 33066cbe f   XSystemBase.obj
 0001:00065d51       ?RemoveTeam@CXSystemBase@@UAEXH@Z 33066d51 f   XSystemBase.obj
 0001:00065d72       ?Read@Team@@QAE_NAAVCStream@@@Z 33066d72 f   XSystemBase.obj
 0001:00065e14       ?SetEntityEvents@CXSystemBase@@IAEXPAUIEntity@@PAUIXMLDOMNodeList@XDOM@@@Z 33066e14 f   XSystemBase.obj
 0001:0006613d       ?SpawnEntityFromXMLNode@CXSystemBase@@QAE_NV?$_smart_ptr@UIXMLDOMNode@XDOM@@@@PAVCEntityStreamData@@@Z 3306713d f   XSystemBase.obj
 0001:00066ccb       ?LoadXMLNode@CXSystemBase@@IAEXPAUIXMLDOMNode@XDOM@@_N@Z 33067ccb f   XSystemBase.obj
 0001:00068f2d       ?AddTeam@CXSystemBase@@UAEHPBDH@Z 33069f2d f   XSystemBase.obj
 0001:00068fcf       ?ReadTeams@CXSystemBase@@UAE_NAAVCStream@@@Z 33069fcf f   XSystemBase.obj
 0001:00069069       ?LoadLevelEntities@CXSystemBase@@QAE_NAAUSMissionInfo@1@@Z 3306a069 f   XSystemBase.obj
 0001:000691d6       ?LoadLevelCommon@CXSystemBase@@QAE_NAAUSMissionInfo@1@@Z 3306a1d6 f   XSystemBase.obj
 0001:0006994f       ??0?$_smart_ptr@UIXMLDOMNode@XDOM@@@@QAE@ABV0@@Z 3306a94f f i XSystemBase.obj
 0001:00069968       ??1?$_ScriptableEx@VCScriptObjectAdvCamSystem@@@@UAE@XZ 3306a968 f i XSystemBase.obj
 0001:0006999f       ??1?$_ScriptableEx@VCScriptObjectSynched2DTable@@@@UAE@XZ 3306a99f f i XSystemBase.obj
 0001:000699d6       ??_G?$_ScriptableEx@VCScriptObjectAdvCamSystem@@@@UAEPAXI@Z 3306a9d6 f i XSystemBase.obj
 0001:000699d6       ??_E?$_ScriptableEx@VCScriptObjectAdvCamSystem@@@@UAEPAXI@Z 3306a9d6 f i XSystemBase.obj
 0001:000699f2       ??_E?$_ScriptableEx@VCScriptObjectSynched2DTable@@@@UAEPAXI@Z 3306a9f2 f i XSystemBase.obj
 0001:000699f2       ??_G?$_ScriptableEx@VCScriptObjectSynched2DTable@@@@UAEPAXI@Z 3306a9f2 f i XSystemBase.obj
 0001:00069a0e       ??$replace@PADD@_STL@@YAXPAD0ABD1@Z 3306aa0e f i XSystemBase.obj
 0001:00069a2e       ?CryLogComment@@YAXPBDZZ   3306aa2e f i XSystemBase.obj
 0001:00069a6a       ??GCTimeValue@@QBE?AV0@ABV0@@Z 3306aa6a f i XSystemBase.obj
 0001:00069a94       ?SetViewDistRatio@IEntityRender@@QAEXH@Z 3306aa94 f i XSystemBase.obj
 0001:00069ab5       ?SetLodRatio@IEntityRender@@QAEXH@Z 3306aab5 f i XSystemBase.obj
 0001:00069ad6       ??1AutoSuspendTimeQuota@@QAE@XZ 3306aad6 f i XSystemBase.obj
 0001:00069add       ??0CScriptObjectAdvCamSystem@@QAE@XZ 3306aadd f i XSystemBase.obj
 0001:00069aff       ??_GCScriptObjectAdvCamSystem@@UAEPAXI@Z 3306aaff f i XSystemBase.obj
 0001:00069aff       ??_ECScriptObjectAdvCamSystem@@UAEPAXI@Z 3306aaff f i XSystemBase.obj
 0001:00069b1b       ??1CScriptObjectAdvCamSystem@@UAE@XZ 3306ab1b f i XSystemBase.obj
 0001:00069b2d       ??0CScriptObjectSynched2DTable@@QAE@XZ 3306ab2d f i XSystemBase.obj
 0001:00069b4f       ??_ECScriptObjectSynched2DTable@@UAEPAXI@Z 3306ab4f f i XSystemBase.obj
 0001:00069b4f       ??_GCScriptObjectSynched2DTable@@UAEPAXI@Z 3306ab4f f i XSystemBase.obj
 0001:00069b6b       ??1CScriptObjectSynched2DTable@@UAE@XZ 3306ab6b f i XSystemBase.obj
 0001:00069b7d       ??0CTableClone@@QAE@PAUIScriptSystem@@PAUIScriptObject@@1@Z 3306ab7d f i XSystemBase.obj
 0001:00069baa       ?BindEntity@CXSystemBase@@UAEXGG@Z 3306abaa f i XSystemBase.obj
 0001:00069baa       ?OnSpawn@CXSystemDummy@@UAEXPAUIEntity@@AAVCEntityDesc@@@Z 3306abaa f i XSystemDummy.obj
 0001:00069baa       ?UnbindEntity@CXSystemBase@@UAEXGG@Z 3306abaa f i XSystemBase.obj
 0001:00069baa       ?Update@CBoidObject@@UAEXMAAUSBoidContext@@@Z 3306abaa f i Flock.obj
 0001:00069baa       ?OnElementFound@CXSurfaceMgr@@UAEXHW4ScriptVarType@@@Z 3306abaa f i XSurfaceMgr.obj
 0001:00069baa       ?SetVariable@CXSystemBase@@UAEXPBD0@Z 3306abaa f i XSystemBase.obj
 0001:00069baa       ?OnElementFound@CTableClone@@UAEXHW4ScriptVarType@@@Z 3306abaa f i XSystemBase.obj
 0001:00069baa       ?SetTeamScore@CXSystemDummy@@UAEXHF@Z 3306abaa f i XSystemDummy.obj
 0001:00069baa       ?OnSpawnContainer@CXSystemDummy@@UAEXAAVCEntityDesc@@PAUIEntity@@@Z 3306abaa f i XSystemDummy.obj
 0001:00069bad       ?OnElementFound@CTableClone@@UAEXPBDW4ScriptVarType@@@Z 3306abad f i XSystemBase.obj
 0001:00069c3d       ??4?$SafeString@$0BAA@@@QAEAAV0@ABV?$basic_string@DU?$char_traits@D@std@@V?$allocator@D@_STL@@@_STL@@@Z 3306ac3d f i XSystemBase.obj
 0001:00069c58       ??$_M_find@H@?$_Rb_tree@HU?$pair@$$CBHUWeaponInfo@@@_STL@@U?$_Select1st@U?$pair@$$CBHUWeaponInfo@@@_STL@@@2@U?$less@H@2@V?$allocator@U?$pair@$$CBHUWeaponInfo@@@_STL@@@2@@_STL@@ABEPAU?$_Rb_tree_node@U?$pair@$$CBHUWeaponInfo@@@_STL@@@1@ABH@Z 3306ac58 f i XPlayer.obj
 0001:00069c58       ??$_M_find@H@?$_Rb_tree@HU?$pair@$$CBHPAUScriptTimer@@@_STL@@U?$_Select1st@U?$pair@$$CBHPAUScriptTimer@@@_STL@@@2@U?$less@H@2@V?$allocator@U?$pair@$$CBHPAUScriptTimer@@@_STL@@@2@@_STL@@ABEPAU?$_Rb_tree_node@U?$pair@$$CBHPAUScriptTimer@@@_STL@@@1@ABH@Z 3306ac58 f i ScriptTimerMgr.obj
 0001:00069c58       ??$_M_find@H@?$_Rb_tree@HHU?$_Identity@H@_STL@@U?$less@H@2@V?$allocator@H@2@@_STL@@ABEPAU?$_Rb_tree_node@H@1@ABH@Z 3306ac58 f i XSystemBase.obj
 0001:00069c58       ??$_M_find@H@?$_Rb_tree@HU?$pair@$$CBHV?$basic_string@DU?$char_traits@D@std@@V?$allocator@D@_STL@@@_STL@@@_STL@@U?$_Select1st@U?$pair@$$CBHV?$basic_string@DU?$char_traits@D@std@@V?$allocator@D@_STL@@@_STL@@@_STL@@@2@U?$less@H@2@V?$allocator@U?$pair@$$CBHV?$basic_string@DU?$char_traits@D@std@@V?$allocator@D@_STL@@@_STL@@@_STL@@@2@@_STL@@ABEPAU?$_Rb_tree_node@U?$pair@$$CBHV?$basic_string@DU?$char_traits@D@std@@V?$allocator@D@_STL@@@_STL@@@_STL@@@1@ABH@Z 3306ac58 f i XSurfaceMgr.obj
 0001:00069c58       ??$_M_find@H@?$_Rb_tree@HU?$pair@$$CBHUTeam@@@_STL@@U?$_Select1st@U?$pair@$$CBHUTeam@@@_STL@@@2@U?$less@H@2@V?$allocator@U?$pair@$$CBHUTeam@@@_STL@@@2@@_STL@@ABEPAU?$_Rb_tree_node@U?$pair@$$CBHUTeam@@@_STL@@@1@ABH@Z 3306ac58 f i XSystemBase.obj
 0001:00069c58       ??$_M_find@H@?$_Rb_tree@HU?$pair@$$CBHUSMatProps@@@_STL@@U?$_Select1st@U?$pair@$$CBHUSMatProps@@@_STL@@@2@U?$less@H@2@V?$allocator@U?$pair@$$CBHUSMatProps@@@_STL@@@2@@_STL@@ABEPAU?$_Rb_tree_node@U?$pair@$$CBHUSMatProps@@@_STL@@@1@ABH@Z 3306ac58 f i XSurfaceMgr.obj
 0001:00069c90       ??$__find_if@V?$reverse_iterator@PBD@_STL@@U?$_Eq_char_bound@U?$char_traits@D@std@@@2@@_STL@@YA?AV?$reverse_iterator@PBD@0@V10@0U?$_Eq_char_bound@U?$char_traits@D@std@@@0@ABUrandom_access_iterator_tag@0@@Z 3306ac90 f i XSystemBase.obj
 0001:00069d63       ??$_M_find@G@?$_Rb_tree@HHU?$_Identity@H@_STL@@U?$less@H@2@V?$allocator@H@2@@_STL@@ABEPAU?$_Rb_tree_node@H@1@ABG@Z 3306ad63 f i XSystemBase.obj
 0001:00069d9d       ??$_Construct@P8CUIComboBox@@AEHPAUIFunctionHandler@@@ZP81@AEH0@Z@_STL@@YAXPAP8CUIComboBox@@AEHPAUIFunctionHandler@@@ZABQ81@AEH0@Z@Z 3306ad9d f i UIComboBox.obj
 0001:00069d9d       ??$_Construct@P8CScriptObjectPlayer@@AEHPAUIFunctionHandler@@@ZP81@AEH0@Z@_STL@@YAXPAP8CScriptObjectPlayer@@AEHPAUIFunctionHandler@@@ZABQ81@AEH0@Z@Z 3306ad9d f i ScriptObjectPlayer.obj
 0001:00069d9d       ??$_Construct@P8CUIEditBox@@AEHPAUIFunctionHandler@@@ZP81@AEH0@Z@_STL@@YAXPAP8CUIEditBox@@AEHPAUIFunctionHandler@@@ZABQ81@AEH0@Z@Z 3306ad9d f i UIEditBox.obj
 0001:00069d9d       ??$_Construct@U?$pair@$$CBHH@_STL@@U12@@_STL@@YAXPAU?$pair@$$CBHH@0@ABU10@@Z 3306ad9d f i XSystemBase.obj
 0001:00069d9d       ??$_Construct@P8CUIScrollBar@@AEHPAUIFunctionHandler@@@ZP81@AEH0@Z@_STL@@YAXPAP8CUIScrollBar@@AEHPAUIFunctionHandler@@@ZABQ81@AEH0@Z@Z 3306ad9d f i UIScrollBar.obj
 0001:00069d9d       ??$_Construct@P8CUIButton@@AEHPAUIFunctionHandler@@@ZP81@AEH0@Z@_STL@@YAXPAP8CUIButton@@AEHPAUIFunctionHandler@@@ZABQ81@AEH0@Z@Z 3306ad9d f i UIButton.obj
 0001:00069d9d       ??$_Construct@P8CScriptObjectSynched2DTable@@AEHPAUIFunctionHandler@@@ZP81@AEH0@Z@_STL@@YAXPAP8CScriptObjectSynched2DTable@@AEHPAUIFunctionHandler@@@ZABQ81@AEH0@Z@Z 3306ad9d f i ScriptObjectSynched2DTable.obj
 0001:00069d9d       ??$_Construct@P8CUIListView@@AEHPAUIFunctionHandler@@@ZP81@AEH0@Z@_STL@@YAXPAP8CUIListView@@AEHPAUIFunctionHandler@@@ZABQ81@AEH0@Z@Z 3306ad9d f i UIListView.obj
 0001:00069d9d       ??$_Construct@P8CUIStatic@@AEHPAUIFunctionHandler@@@ZP81@AEH0@Z@_STL@@YAXPAP8CUIStatic@@AEHPAUIFunctionHandler@@@ZABQ81@AEH0@Z@Z 3306ad9d f i UIStatic.obj
 0001:00069d9d       ??$_Construct@P8CScriptObjectSpectator@@AEHPAUIFunctionHandler@@@ZP81@AEH0@Z@_STL@@YAXPAP8CScriptObjectSpectator@@AEHPAUIFunctionHandler@@@ZABQ81@AEH0@Z@Z 3306ad9d f i ScriptObjectSpectator.obj
 0001:00069d9d       ??$_Construct@P8CScriptObjectAdvCamSystem@@AEHPAUIFunctionHandler@@@ZP81@AEH0@Z@_STL@@YAXPAP8CScriptObjectAdvCamSystem@@AEHPAUIFunctionHandler@@@ZABQ81@AEH0@Z@Z 3306ad9d f i ScriptObjectAdvCamSystem.obj
 0001:00069d9d       ??$_Construct@P8CUIVideoPanel@@AEHPAUIFunctionHandler@@@ZP81@AEH0@Z@_STL@@YAXPAP8CUIVideoPanel@@AEHPAUIFunctionHandler@@@ZABQ81@AEH0@Z@Z 3306ad9d f i UIVideoPanel.obj
 0001:00069d9d       ??$_Construct@U?$pair@$$CBHPAUScriptTimer@@@_STL@@U12@@_STL@@YAXPAU?$pair@$$CBHPAUScriptTimer@@@0@ABU10@@Z 3306ad9d f i ScriptTimerMgr.obj
 0001:00069d9d       ??$_Construct@P8CUICheckBox@@AEHPAUIFunctionHandler@@@ZP81@AEH0@Z@_STL@@YAXPAP8CUICheckBox@@AEHPAUIFunctionHandler@@@ZABQ81@AEH0@Z@Z 3306ad9d f i UICheckBox.obj
 0001:00069d9d       ??$_Construct@P8CScriptObjectVehicle@@AEHPAUIFunctionHandler@@@ZP81@AEH0@Z@_STL@@YAXPAP8CScriptObjectVehicle@@AEHPAUIFunctionHandler@@@ZABQ81@AEH0@Z@Z 3306ad9d f i ScriptObjectVehicle.obj
 0001:00069d9d       ??$_Construct@P8CScriptObjectWeaponClass@@AEHPAUIFunctionHandler@@@ZP81@AEH0@Z@_STL@@YAXPAP8CScriptObjectWeaponClass@@AEHPAUIFunctionHandler@@@ZABQ81@AEH0@Z@Z 3306ad9d f i ScriptObjectWeaponClass.obj
 0001:00069db4       ??0CEntityDesc@@QAE@HG@Z   3306adb4 f i XSystemBase.obj
 0001:00069e92       ?deallocate@?$allocator@U?$_Rb_tree_node@U?$pair@$$CBGH@_STL@@@_STL@@@_STL@@QAEXPAU?$_Rb_tree_node@U?$pair@$$CBGH@_STL@@@2@I@Z 3306ae92 f i XServerSlot.obj
 0001:00069e92       ?deallocate@?$allocator@Utag_Vtx@@@_STL@@QAEXPAUtag_Vtx@@I@Z 3306ae92 f i ScriptObjectRenderer.obj
 0001:00069e92       ?deallocate@?$allocator@U?$_Rb_tree_node@U?$pair@$$CBHPAUScriptTimer@@@_STL@@@_STL@@@_STL@@QAEXPAU?$_Rb_tree_node@U?$pair@$$CBHPAUScriptTimer@@@_STL@@@2@I@Z 3306ae92 f i ScriptTimerMgr.obj
 0001:00069e92       ?deallocate@?$allocator@U?$_Rb_tree_node@U?$pair@$$CBEPAVCXServerSlot@@@_STL@@@_STL@@@_STL@@QAEXPAU?$_Rb_tree_node@U?$pair@$$CBEPAVCXServerSlot@@@_STL@@@2@I@Z 3306ae92 f i XServer.obj
 0001:00069e92       ?deallocate@?$allocator@U?$_Rb_tree_node@U?$pair@$$CBHH@_STL@@@_STL@@@_STL@@QAEXPAU?$_Rb_tree_node@U?$pair@$$CBHH@_STL@@@2@I@Z 3306ae92 f i XSystemBase.obj
 0001:00069e92       ?deallocate@?$allocator@U?$_Rb_tree_node@U?$pair@$$CBHUSMatProps@@@_STL@@@_STL@@@_STL@@QAEXPAU?$_Rb_tree_node@U?$pair@$$CBHUSMatProps@@@_STL@@@2@I@Z 3306ae92 f i XSurfaceMgr.obj
 0001:00069eb2       ?_M_lower_bound@?$_Rb_tree@HU?$pair@$$CBHV?$basic_string@DU?$char_traits@D@std@@V?$allocator@D@_STL@@@_STL@@@_STL@@U?$_Select1st@U?$pair@$$CBHV?$basic_string@DU?$char_traits@D@std@@V?$allocator@D@_STL@@@_STL@@@_STL@@@2@U?$less@H@2@V?$allocator@U?$pair@$$CBHV?$basic_string@DU?$char_traits@D@std@@V?$allocator@D@_STL@@@_STL@@@_STL@@@2@@_STL@@ABEPAU?$_Rb_tree_node@U?$pair@$$CBHV?$basic_string@DU?$char_traits@D@std@@V?$allocator@D@_STL@@@_STL@@@_STL@@@2@ABH@Z 3306aeb2 f i XSurfaceMgr.obj
 0001:00069eb2       ?_M_lower_bound@?$_Rb_tree@HHU?$_Identity@H@_STL@@U?$less@H@2@V?$allocator@H@2@@_STL@@ABEPAU?$_Rb_tree_node@H@2@ABH@Z 3306aeb2 f i XSystemBase.obj
 0001:00069eb2       ?_M_lower_bound@?$_Rb_tree@HU?$pair@$$CBHUTeam@@@_STL@@U?$_Select1st@U?$pair@$$CBHUTeam@@@_STL@@@2@U?$less@H@2@V?$allocator@U?$pair@$$CBHUTeam@@@_STL@@@2@@_STL@@ABEPAU?$_Rb_tree_node@U?$pair@$$CBHUTeam@@@_STL@@@2@ABH@Z 3306aeb2 f i XSystemBase.obj
 0001:00069eb2       ?_M_lower_bound@?$_Rb_tree@HU?$pair@$$CBHUSMatProps@@@_STL@@U?$_Select1st@U?$pair@$$CBHUSMatProps@@@_STL@@@2@U?$less@H@2@V?$allocator@U?$pair@$$CBHUSMatProps@@@_STL@@@2@@_STL@@ABEPAU?$_Rb_tree_node@U?$pair@$$CBHUSMatProps@@@_STL@@@2@ABH@Z 3306aeb2 f i XSurfaceMgr.obj
 0001:00069eb2       ?_M_lower_bound@?$_Rb_tree@HU?$pair@$$CBHUtWeaponPersistentData@@@_STL@@U?$_Select1st@U?$pair@$$CBHUtWeaponPersistentData@@@_STL@@@2@U?$less@H@2@V?$allocator@U?$pair@$$CBHUtWeaponPersistentData@@@_STL@@@2@@_STL@@ABEPAU?$_Rb_tree_node@U?$pair@$$CBHUtWeaponPersistentData@@@_STL@@@2@ABH@Z 3306aeb2 f i ScriptObjectPlayer.obj
 0001:00069eb2       ?_M_lower_bound@?$_Rb_tree@HU?$pair@$$CBHH@_STL@@U?$_Select1st@U?$pair@$$CBHH@_STL@@@2@U?$less@H@2@V?$allocator@U?$pair@$$CBHH@_STL@@@2@@_STL@@ABEPAU?$_Rb_tree_node@U?$pair@$$CBHH@_STL@@@2@ABH@Z 3306aeb2 f i XSystemBase.obj
 0001:00069eb2       ?_M_lower_bound@?$_Rb_tree@HU?$pair@$$CBHUWeaponInfo@@@_STL@@U?$_Select1st@U?$pair@$$CBHUWeaponInfo@@@_STL@@@2@U?$less@H@2@V?$allocator@U?$pair@$$CBHUWeaponInfo@@@_STL@@@2@@_STL@@ABEPAU?$_Rb_tree_node@U?$pair@$$CBHUWeaponInfo@@@_STL@@@2@ABH@Z 3306aeb2 f i ScriptObjectPlayer.obj
 0001:00069ed7       ?_M_upper_bound@?$_Rb_tree@HU?$pair@$$CBHUTeam@@@_STL@@U?$_Select1st@U?$pair@$$CBHUTeam@@@_STL@@@2@U?$less@H@2@V?$allocator@U?$pair@$$CBHUTeam@@@_STL@@@2@@_STL@@ABEPAU?$_Rb_tree_node@U?$pair@$$CBHUTeam@@@_STL@@@2@ABH@Z 3306aed7 f i XSystemBase.obj
 0001:00069ed7       ?_M_upper_bound@?$_Rb_tree@HHU?$_Identity@H@_STL@@U?$less@H@2@V?$allocator@H@2@@_STL@@ABEPAU?$_Rb_tree_node@H@2@ABH@Z 3306aed7 f i XSystemBase.obj
 0001:00069efc       ?_M_erase@?$_Rb_tree@HHU?$_Identity@H@_STL@@U?$less@H@2@V?$allocator@H@2@@_STL@@AAEXPAU?$_Rb_tree_node@H@2@@Z 3306aefc f i XSystemBase.obj
 0001:00069f2c       ?clear@?$_List_base@VCEntityStreamData@@V?$allocator@VCEntityStreamData@@@_STL@@@_STL@@QAEXXZ 3306af2c f i XSystemBase.obj
 0001:00069f60       ?_M_erase@?$_Rb_tree@HU?$pair@$$CBHH@_STL@@U?$_Select1st@U?$pair@$$CBHH@_STL@@@2@U?$less@H@2@V?$allocator@U?$pair@$$CBHH@_STL@@@2@@_STL@@AAEXPAU?$_Rb_tree_node@U?$pair@$$CBHH@_STL@@@2@@Z 3306af60 f i XSystemBase.obj
 0001:00069f90       ?_M_erase@?$_Rb_tree@GGU?$_Identity@G@_STL@@U?$less@G@2@V?$allocator@G@2@@_STL@@AAEXPAU?$_Rb_tree_node@G@2@@Z 3306af90 f i XSystemBase.obj
 0001:00069fc0       ??$find_if@V?$reverse_iterator@PBD@_STL@@U?$_Eq_char_bound@U?$char_traits@D@std@@@2@@_STL@@YA?AV?$reverse_iterator@PBD@0@V10@0U?$_Eq_char_bound@U?$char_traits@D@std@@@0@@Z 3306afc0 f i XSystemBase.obj
 0001:00069fea       ??$__distance@U?$_Rb_tree_iterator@U?$pair@$$CBV?$basic_string@DU?$char_traits@D@std@@V?$allocator@D@_STL@@@_STL@@PAUITagPoint@@@_STL@@U?$_Const_traits@U?$pair@$$CBV?$basic_string@DU?$char_traits@D@std@@V?$allocator@D@_STL@@@_STL@@PAUITagPoint@@@_STL@@@2@@_STL@@@_STL@@YAHABU?$_Rb_tree_iterator@U?$pair@$$CBV?$basic_string@DU?$char_traits@D@std@@V?$allocator@D@_STL@@@_STL@@PAUITagPoint@@@_STL@@U?$_Const_traits@U?$pair@$$CBV?$basic_string@DU?$char_traits@D@std@@V?$allocator@D@_STL@@@_STL@@PAUITagPoint@@@_STL@@@2@@0@0ABUinput_iterator_tag@0@@Z 3306afea f i XServer.obj
 0001:00069fea       ??$__distance@U?$_Rb_tree_iterator@U?$pair@$$CBHUTeam@@@_STL@@U?$_Nonconst_traits@U?$pair@$$CBHUTeam@@@_STL@@@2@@_STL@@@_STL@@YAHABU?$_Rb_tree_iterator@U?$pair@$$CBHUTeam@@@_STL@@U?$_Nonconst_traits@U?$pair@$$CBHUTeam@@@_STL@@@2@@0@0ABUinput_iterator_tag@0@@Z 3306afea f i XSystemBase.obj
 0001:00069fea       ??$__distance@U?$_Rb_tree_iterator@U?$pair@$$CBV?$basic_string@DU?$char_traits@D@std@@V?$allocator@D@_STL@@@_STL@@PAVCTagPoint@@@_STL@@U?$_Nonconst_traits@U?$pair@$$CBV?$basic_string@DU?$char_traits@D@std@@V?$allocator@D@_STL@@@_STL@@PAVCTagPoint@@@_STL@@@2@@_STL@@@_STL@@YAHABU?$_Rb_tree_iterator@U?$pair@$$CBV?$basic_string@DU?$char_traits@D@std@@V?$allocator@D@_STL@@@_STL@@PAVCTagPoint@@@_STL@@U?$_Nonconst_traits@U?$pair@$$CBV?$basic_string@DU?$char_traits@D@std@@V?$allocator@D@_STL@@@_STL@@PAVCTagPoint@@@_STL@@@2@@0@0ABUinput_iterator_tag@0@@Z 3306afea f i GameTagPoints.obj
 0001:00069fea       ??$__distance@U?$_Rb_tree_iterator@HU?$_Nonconst_traits@H@_STL@@@_STL@@@_STL@@YAHABU?$_Rb_tree_iterator@HU?$_Nonconst_traits@H@_STL@@@0@0ABUinput_iterator_tag@0@@Z 3306afea f i XSystemBase.obj
 0001:0006a00d       ?clear@?$_Rb_tree@HHU?$_Identity@H@_STL@@U?$less@H@2@V?$allocator@H@2@@_STL@@QAEXXZ 3306b00d f i XSystemBase.obj
 0001:0006a036       ??1?$_Vector_base@UUIListImage@@V?$allocator@UUIListImage@@@_STL@@@_STL@@QAE@XZ 3306b036 f i UIListView.obj
 0001:0006a036       ??1?$_Vector_base@UEntityEventTarget@@V?$allocator@UEntityEventTarget@@@_STL@@@_STL@@QAE@XZ 3306b036 f i XSystemBase.obj
 0001:0006a055       ??1?$_List_base@VCEntityStreamData@@V?$allocator@VCEntityStreamData@@@_STL@@@_STL@@QAE@XZ 3306b055 f i XSystemBase.obj
 0001:0006a06a       ?clear@?$_Rb_tree@HU?$pair@$$CBHH@_STL@@U?$_Select1st@U?$pair@$$CBHH@_STL@@@2@U?$less@H@2@V?$allocator@U?$pair@$$CBHH@_STL@@@2@@_STL@@QAEXXZ 3306b06a f i XSystemBase.obj
 0001:0006a093       ?clear@?$_Rb_tree@GGU?$_Identity@G@_STL@@U?$less@G@2@V?$allocator@G@2@@_STL@@QAEXXZ 3306b093 f i XSystemBase.obj
 0001:0006a0bc       ??1?$_Rb_tree_base@GV?$allocator@G@_STL@@@_STL@@QAE@XZ 3306b0bc f i XSystemBase.obj
 0001:0006a0bc       ??1?$_Rb_tree_base@HV?$allocator@H@_STL@@@_STL@@QAE@XZ 3306b0bc f i XSystemBase.obj
 0001:0006a0c6       ?erase@?$_Rb_tree@HHU?$_Identity@H@_STL@@U?$less@H@2@V?$allocator@H@2@@_STL@@QAEXU?$_Rb_tree_iterator@HU?$_Nonconst_traits@H@_STL@@@2@0@Z 3306b0c6 f i XSystemBase.obj
 0001:0006a10a       ?rfind@?$basic_string@DU?$char_traits@D@std@@V?$allocator@D@_STL@@@_STL@@QBEIDI@Z 3306b10a f i XSystemBase.obj
 0001:0006a166       ?_M_create_node@?$_Rb_tree@HHU?$_Identity@H@_STL@@U?$less@H@2@V?$allocator@H@2@@_STL@@IAEPAU?$_Rb_tree_node@H@2@ABH@Z 3306b166 f i XSystemBase.obj
 0001:0006a180       ?_M_clone_node@?$_Rb_tree@HHU?$_Identity@H@_STL@@U?$less@H@2@V?$allocator@H@2@@_STL@@IAEPAU?$_Rb_tree_node@H@2@PAU32@@Z 3306b180 f i XSystemBase.obj
 0001:0006a19e       ?_M_create_node@?$_Rb_tree@HU?$pair@$$CBHH@_STL@@U?$_Select1st@U?$pair@$$CBHH@_STL@@@2@U?$less@H@2@V?$allocator@U?$pair@$$CBHH@_STL@@@2@@_STL@@IAEPAU?$_Rb_tree_node@U?$pair@$$CBHH@_STL@@@2@ABU?$pair@$$CBHH@2@@Z 3306b19e f i XSystemBase.obj
 0001:0006a19e       ?_M_create_node@?$_Rb_tree@HU?$pair@$$CBHPAUScriptTimer@@@_STL@@U?$_Select1st@U?$pair@$$CBHPAUScriptTimer@@@_STL@@@2@U?$less@H@2@V?$allocator@U?$pair@$$CBHPAUScriptTimer@@@_STL@@@2@@_STL@@IAEPAU?$_Rb_tree_node@U?$pair@$$CBHPAUScriptTimer@@@_STL@@@2@ABU?$pair@$$CBHPAUScriptTimer@@@2@@Z 3306b19e f i ScriptTimerMgr.obj
 0001:0006a1be       ?_M_create_node@?$_Rb_tree@GGU?$_Identity@G@_STL@@U?$less@G@2@V?$allocator@G@2@@_STL@@IAEPAU?$_Rb_tree_node@G@2@ABG@Z 3306b1be f i XSystemBase.obj
 0001:0006a1da       ??1?$_Rb_tree@HHU?$_Identity@H@_STL@@U?$less@H@2@V?$allocator@H@2@@_STL@@QAE@XZ 3306b1da f i XSystemBase.obj
 0001:0006a20c       ??1?$list@VCEntityStreamData@@V?$allocator@VCEntityStreamData@@@_STL@@@_STL@@QAE@XZ 3306b20c f i XSystemBase.obj
 0001:0006a211       ??1?$_Rb_tree@HU?$pair@$$CBHH@_STL@@U?$_Select1st@U?$pair@$$CBHH@_STL@@@2@U?$less@H@2@V?$allocator@U?$pair@$$CBHH@_STL@@@2@@_STL@@QAE@XZ 3306b211 f i XSystemBase.obj
 0001:0006a243       ??1?$_Rb_tree@GGU?$_Identity@G@_STL@@U?$less@G@2@V?$allocator@G@2@@_STL@@QAE@XZ 3306b243 f i XSystemBase.obj
 0001:0006a275       ??0?$_List_base@VCEntityStreamData@@V?$allocator@VCEntityStreamData@@@_STL@@@_STL@@QAE@ABV?$allocator@VCEntityStreamData@@@1@@Z 3306b275 f i XSystemBase.obj
 0001:0006a29b       ?equal_range@?$_Rb_tree@HHU?$_Identity@H@_STL@@U?$less@H@2@V?$allocator@H@2@@_STL@@QAE?AU?$pair@U?$_Rb_tree_iterator@HU?$_Nonconst_traits@H@_STL@@@_STL@@U12@@2@ABH@Z 3306b29b f i XSystemBase.obj
 0001:0006a29b       ?equal_range@?$_Rb_tree@HU?$pair@$$CBHUTeam@@@_STL@@U?$_Select1st@U?$pair@$$CBHUTeam@@@_STL@@@2@U?$less@H@2@V?$allocator@U?$pair@$$CBHUTeam@@@_STL@@@2@@_STL@@QAE?AU?$pair@U?$_Rb_tree_iterator@U?$pair@$$CBHUTeam@@@_STL@@U?$_Nonconst_traits@U?$pair@$$CBHUTeam@@@_STL@@@2@@_STL@@U12@@2@ABH@Z 3306b29b f i XSystemBase.obj
 0001:0006a2c5       ??0?$_Rb_tree_base@U?$pair@$$CBHUWeaponInfo@@@_STL@@V?$allocator@U?$pair@$$CBHUWeaponInfo@@@_STL@@@2@@_STL@@QAE@ABV?$allocator@U?$pair@$$CBHUWeaponInfo@@@_STL@@@1@@Z 3306b2c5 f i XPlayer.obj
 0001:0006a2c5       ??0?$_Rb_tree_base@U?$pair@$$CBHUTeam@@@_STL@@V?$allocator@U?$pair@$$CBHUTeam@@@_STL@@@2@@_STL@@QAE@ABV?$allocator@U?$pair@$$CBHUTeam@@@_STL@@@1@@Z 3306b2c5 f i XSystemBase.obj
 0001:0006a2e6       ??0?$_Rb_tree_base@GV?$allocator@G@_STL@@@_STL@@QAE@ABV?$allocator@G@1@@Z 3306b2e6 f i XSystemBase.obj
 0001:0006a2e6       ??0?$_Rb_tree_base@HV?$allocator@H@_STL@@@_STL@@QAE@ABV?$allocator@H@1@@Z 3306b2e6 f i XSystemBase.obj
 0001:0006a307       ??0?$_Rb_tree_base@V?$basic_string@DU?$char_traits@D@std@@V?$allocator@D@_STL@@@_STL@@V?$allocator@V?$basic_string@DU?$char_traits@D@std@@V?$allocator@D@_STL@@@_STL@@@2@@_STL@@QAE@ABV?$allocator@V?$basic_string@DU?$char_traits@D@std@@V?$allocator@D@_STL@@@_STL@@@1@@Z 3306b307 f i XSystemBase.obj
 0001:0006a307       ??0?$_Rb_tree_base@U?$pair@$$CBEUSDirtylist@CSynched2DTable@@@_STL@@V?$allocator@U?$pair@$$CBEUSDirtylist@CSynched2DTable@@@_STL@@@2@@_STL@@QAE@ABV?$allocator@U?$pair@$$CBEUSDirtylist@CSynched2DTable@@@_STL@@@1@@Z 3306b307 f i Synched2DTable.obj
 0001:0006a328       ?_M_insert@?$_Rb_tree@HHU?$_Identity@H@_STL@@U?$less@H@2@V?$allocator@H@2@@_STL@@AAE?AU?$_Rb_tree_iterator@HU?$_Nonconst_traits@H@_STL@@@2@PAU_Rb_tree_node_base@2@0ABH0@Z 3306b328 f i XSystemBase.obj
 0001:0006a3b0       ?_M_copy@?$_Rb_tree@HHU?$_Identity@H@_STL@@U?$less@H@2@V?$allocator@H@2@@_STL@@AAEPAU?$_Rb_tree_node@H@2@PAU32@0@Z 3306b3b0 f i XSystemBase.obj
 0001:0006a44d       ?insert_unique@?$_Rb_tree@HU?$pair@$$CBHH@_STL@@U?$_Select1st@U?$pair@$$CBHH@_STL@@@2@U?$less@H@2@V?$allocator@U?$pair@$$CBHH@_STL@@@2@@_STL@@QAE?AU?$pair@U?$_Rb_tree_iterator@U?$pair@$$CBHH@_STL@@U?$_Nonconst_traits@U?$pair@$$CBHH@_STL@@@2@@_STL@@_N@2@ABU?$pair@$$CBHH@2@@Z 3306b44d f i XSystemBase.obj
 0001:0006a44d       ?insert_unique@?$_Rb_tree@HU?$pair@$$CBHPAUScriptTimer@@@_STL@@U?$_Select1st@U?$pair@$$CBHPAUScriptTimer@@@_STL@@@2@U?$less@H@2@V?$allocator@U?$pair@$$CBHPAUScriptTimer@@@_STL@@@2@@_STL@@QAE?AU?$pair@U?$_Rb_tree_iterator@U?$pair@$$CBHPAUScriptTimer@@@_STL@@U?$_Nonconst_traits@U?$pair@$$CBHPAUScriptTimer@@@_STL@@@2@@_STL@@_N@2@ABU?$pair@$$CBHPAUScriptTimer@@@2@@Z 3306b44d f i ScriptTimerMgr.obj
 0001:0006a4d3       ?_M_insert@?$_Rb_tree@GGU?$_Identity@G@_STL@@U?$less@G@2@V?$allocator@G@2@@_STL@@AAE?AU?$_Rb_tree_iterator@GU?$_Nonconst_traits@G@_STL@@@2@PAU_Rb_tree_node_base@2@0ABG0@Z 3306b4d3 f i XSystemBase.obj
 0001:0006a55d       ??1?$set@HU?$less@H@_STL@@V?$allocator@H@2@@_STL@@QAE@XZ 3306b55d f i XSystemBase.obj
 0001:0006a562       ??1?$map@HHU?$less@H@_STL@@V?$allocator@U?$pair@$$CBHH@_STL@@@2@@_STL@@QAE@XZ 3306b562 f i XSystemBase.obj
 0001:0006a567       ??1?$set@GU?$less@G@_STL@@V?$allocator@G@2@@_STL@@QAE@XZ 3306b567 f i XSystemBase.obj
 0001:0006a56c       ??0?$_Rb_tree@HHU?$_Identity@H@_STL@@U?$less@H@2@V?$allocator@H@2@@_STL@@QAE@ABU?$less@H@1@ABV?$allocator@H@1@@Z 3306b56c f i XSystemBase.obj
 0001:0006a56c       ??0?$_Rb_tree@GGU?$_Identity@G@_STL@@U?$less@G@2@V?$allocator@G@2@@_STL@@QAE@ABU?$less@G@1@ABV?$allocator@G@1@@Z 3306b56c f i XSystemBase.obj
 0001:0006a596       ?erase@?$_Rb_tree@HHU?$_Identity@H@_STL@@U?$less@H@2@V?$allocator@H@2@@_STL@@QAEIABH@Z 3306b596 f i XSystemBase.obj
 0001:0006a5df       ??4?$_Rb_tree@HHU?$_Identity@H@_STL@@U?$less@H@2@V?$allocator@H@2@@_STL@@QAEAAV01@ABV01@@Z 3306b5df f i XSystemBase.obj
 0001:0006a652       ?insert_unique@?$_Rb_tree@HHU?$_Identity@H@_STL@@U?$less@H@2@V?$allocator@H@2@@_STL@@QAE?AU?$pair@U?$_Rb_tree_iterator@HU?$_Nonconst_traits@H@_STL@@@_STL@@_N@2@ABH@Z 3306b652 f i XSystemBase.obj
 0001:0006a6d8       ?insert_unique@?$_Rb_tree@HU?$pair@$$CBHH@_STL@@U?$_Select1st@U?$pair@$$CBHH@_STL@@@2@U?$less@H@2@V?$allocator@U?$pair@$$CBHH@_STL@@@2@@_STL@@QAE?AU?$_Rb_tree_iterator@U?$pair@$$CBHH@_STL@@U?$_Nonconst_traits@U?$pair@$$CBHH@_STL@@@2@@2@U32@ABU?$pair@$$CBHH@2@@Z 3306b6d8 f i XSystemBase.obj
 0001:0006a817       ?insert_unique@?$_Rb_tree@GGU?$_Identity@G@_STL@@U?$less@G@2@V?$allocator@G@2@@_STL@@QAE?AU?$pair@U?$_Rb_tree_iterator@GU?$_Nonconst_traits@G@_STL@@@_STL@@_N@2@ABG@Z 3306b817 f i XSystemBase.obj
 0001:0006a8a1       ??0EntityEventTarget@@QAE@XZ 3306b8a1 f i XSystemBase.obj
 0001:0006a8d5       ??1EntityEventTarget@@QAE@XZ 3306b8d5 f i XSystemBase.obj
 0001:0006a8e9       ??1Team@@QAE@XZ            3306b8e9 f i XSystemBase.obj
 0001:0006a91a       ??1?$pair@$$CBHUTeam@@@_STL@@QAE@XZ 3306b91a f i XSystemBase.obj
 0001:0006a922       ?insert@?$set@HU?$less@H@_STL@@V?$allocator@H@2@@_STL@@QAE?AU?$pair@U?$_Rb_tree_iterator@HU?$_Const_traits@H@_STL@@@_STL@@_N@2@ABH@Z 3306b922 f i XSystemBase.obj
 0001:0006a945       ??0?$set@GU?$less@G@_STL@@V?$allocator@G@2@@_STL@@QAE@XZ 3306b945 f i XSystemBase.obj
 0001:0006a945       ??0?$set@HU?$less@H@_STL@@V?$allocator@H@2@@_STL@@QAE@XZ 3306b945 f i XSystemBase.obj
 0001:0006a95e       ?insert@?$set@GU?$less@G@_STL@@V?$allocator@G@2@@_STL@@QAE?AU?$pair@U?$_Rb_tree_iterator@GU?$_Const_traits@G@_STL@@@_STL@@_N@2@ABG@Z 3306b95e f i XSystemBase.obj
 0001:0006a981       ?insert@?$map@HHU?$less@H@_STL@@V?$allocator@U?$pair@$$CBHH@_STL@@@2@@_STL@@QAE?AU?$_Rb_tree_iterator@U?$pair@$$CBHH@_STL@@U?$_Nonconst_traits@U?$pair@$$CBHH@_STL@@@2@@2@U32@ABU?$pair@$$CBHH@2@@Z 3306b981 f i XSystemBase.obj
 0001:0006a99e       ?StringToVector@@YA?AU?$Vec3_tpl@M@@V?$basic_string@DU?$char_traits@D@std@@V?$allocator@D@_STL@@@_STL@@@Z 3306b99e f i XSystemBase.obj
 0001:0006aa0d       ?substr@?$basic_string@DU?$char_traits@D@std@@V?$allocator@D@_STL@@@_STL@@QBE?AV12@II@Z 3306ba0d f i XSystemBase.obj
 0001:0006aa5c       ??A?$map@HHU?$less@H@_STL@@V?$allocator@U?$pair@$$CBHH@_STL@@@2@@_STL@@QAEAAHABH@Z 3306ba5c f i XSystemBase.obj
 0001:0006aaa1       ?_M_create_node@?$_Rb_tree@V?$basic_string@DU?$char_traits@D@std@@V?$allocator@D@_STL@@@_STL@@V12@U?$_Identity@V?$basic_string@DU?$char_traits@D@std@@V?$allocator@D@_STL@@@_STL@@@2@U?$less@V?$basic_string@DU?$char_traits@D@std@@V?$allocator@D@_STL@@@_STL@@@2@V?$allocator@V?$basic_string@DU?$char_traits@D@std@@V?$allocator@D@_STL@@@_STL@@@2@@_STL@@IAEPAU?$_Rb_tree_node@V?$basic_string@DU?$char_traits@D@std@@V?$allocator@D@_STL@@@_STL@@@2@ABV?$basic_string@DU?$char_traits@D@std@@V?$allocator@D@_STL@@@2@@Z 3306baa1 f i XSystemBase.obj
 0001:0006ab00       ?erase@?$_Rb_tree@HU?$pair@$$CBHUTeam@@@_STL@@U?$_Select1st@U?$pair@$$CBHUTeam@@@_STL@@@2@U?$less@H@2@V?$allocator@U?$pair@$$CBHUTeam@@@_STL@@@2@@_STL@@QAEXU?$_Rb_tree_iterator@U?$pair@$$CBHUTeam@@@_STL@@U?$_Nonconst_traits@U?$pair@$$CBHUTeam@@@_STL@@@2@@2@@Z 3306bb00 f i XSystemBase.obj
 0001:0006ab3a       ?_M_erase@?$_Rb_tree@HU?$pair@$$CBHUTeam@@@_STL@@U?$_Select1st@U?$pair@$$CBHUTeam@@@_STL@@@2@U?$less@H@2@V?$allocator@U?$pair@$$CBHUTeam@@@_STL@@@2@@_STL@@AAEXPAU?$_Rb_tree_node@U?$pair@$$CBHUTeam@@@_STL@@@2@@Z 3306bb3a f i XSystemBase.obj
 0001:0006ab72       ?_M_erase@?$_Rb_tree@V?$basic_string@DU?$char_traits@D@std@@V?$allocator@D@_STL@@@_STL@@V12@U?$_Identity@V?$basic_string@DU?$char_traits@D@std@@V?$allocator@D@_STL@@@_STL@@@2@U?$less@V?$basic_string@DU?$char_traits@D@std@@V?$allocator@D@_STL@@@_STL@@@2@V?$allocator@V?$basic_string@DU?$char_traits@D@std@@V?$allocator@D@_STL@@@_STL@@@2@@_STL@@AAEXPAU?$_Rb_tree_node@V?$basic_string@DU?$char_traits@D@std@@V?$allocator@D@_STL@@@_STL@@@2@@Z 3306bb72 f i XSystemBase.obj
 0001:0006abaa       ?_M_insert@?$_Rb_tree@V?$basic_string@DU?$char_traits@D@std@@V?$allocator@D@_STL@@@_STL@@V12@U?$_Identity@V?$basic_string@DU?$char_traits@D@std@@V?$allocator@D@_STL@@@_STL@@@2@U?$less@V?$basic_string@DU?$char_traits@D@std@@V?$allocator@D@_STL@@@_STL@@@2@V?$allocator@V?$basic_string@DU?$char_traits@D@std@@V?$allocator@D@_STL@@@_STL@@@2@@_STL@@AAE?AU?$_Rb_tree_iterator@V?$basic_string@DU?$char_traits@D@std@@V?$allocator@D@_STL@@@_STL@@U?$_Nonconst_traits@V?$basic_string@DU?$char_traits@D@std@@V?$allocator@D@_STL@@@_STL@@@2@@2@PAU_Rb_tree_node_base@2@0ABV?$basic_string@DU?$char_traits@D@std@@V?$allocator@D@_STL@@@2@0@Z 3306bbaa f i XSystemBase.obj
 0001:0006ac3e       ?clear@?$_Rb_tree@HU?$pair@$$CBHUTeam@@@_STL@@U?$_Select1st@U?$pair@$$CBHUTeam@@@_STL@@@2@U?$less@H@2@V?$allocator@U?$pair@$$CBHUTeam@@@_STL@@@2@@_STL@@QAEXXZ 3306bc3e f i XSystemBase.obj
 0001:0006ac67       ?clear@?$_Rb_tree@V?$basic_string@DU?$char_traits@D@std@@V?$allocator@D@_STL@@@_STL@@V12@U?$_Identity@V?$basic_string@DU?$char_traits@D@std@@V?$allocator@D@_STL@@@_STL@@@2@U?$less@V?$basic_string@DU?$char_traits@D@std@@V?$allocator@D@_STL@@@_STL@@@2@V?$allocator@V?$basic_string@DU?$char_traits@D@std@@V?$allocator@D@_STL@@@_STL@@@2@@_STL@@QAEXXZ 3306bc67 f i XSystemBase.obj
 0001:0006ac90       ?erase@?$_Rb_tree@HU?$pair@$$CBHUTeam@@@_STL@@U?$_Select1st@U?$pair@$$CBHUTeam@@@_STL@@@2@U?$less@H@2@V?$allocator@U?$pair@$$CBHUTeam@@@_STL@@@2@@_STL@@QAEXU?$_Rb_tree_iterator@U?$pair@$$CBHUTeam@@@_STL@@U?$_Nonconst_traits@U?$pair@$$CBHUTeam@@@_STL@@@2@@2@0@Z 3306bc90 f i XSystemBase.obj
 0001:0006acd4       ?insert_unique@?$_Rb_tree@V?$basic_string@DU?$char_traits@D@std@@V?$allocator@D@_STL@@@_STL@@V12@U?$_Identity@V?$basic_string@DU?$char_traits@D@std@@V?$allocator@D@_STL@@@_STL@@@2@U?$less@V?$basic_string@DU?$char_traits@D@std@@V?$allocator@D@_STL@@@_STL@@@2@V?$allocator@V?$basic_string@DU?$char_traits@D@std@@V?$allocator@D@_STL@@@_STL@@@2@@_STL@@QAE?AU?$pair@U?$_Rb_tree_iterator@V?$basic_string@DU?$char_traits@D@std@@V?$allocator@D@_STL@@@_STL@@U?$_Nonconst_traits@V?$basic_string@DU?$char_traits@D@std@@V?$allocator@D@_STL@@@_STL@@@2@@_STL@@_N@2@ABV?$basic_string@DU?$char_traits@D@std@@V?$allocator@D@_STL@@@2@@Z 3306bcd4 f i XSystemBase.obj
 0001:0006ad6b       ??1?$_Rb_tree@HU?$pair@$$CBHUTeam@@@_STL@@U?$_Select1st@U?$pair@$$CBHUTeam@@@_STL@@@2@U?$less@H@2@V?$allocator@U?$pair@$$CBHUTeam@@@_STL@@@2@@_STL@@QAE@XZ 3306bd6b f i XSystemBase.obj
 0001:0006ad9d       ?insert@?$set@V?$basic_string@DU?$char_traits@D@std@@V?$allocator@D@_STL@@@_STL@@U?$less@V?$basic_string@DU?$char_traits@D@std@@V?$allocator@D@_STL@@@_STL@@@2@V?$allocator@V?$basic_string@DU?$char_traits@D@std@@V?$allocator@D@_STL@@@_STL@@@2@@_STL@@QAE?AU?$pair@U?$_Rb_tree_iterator@V?$basic_string@DU?$char_traits@D@std@@V?$allocator@D@_STL@@@_STL@@U?$_Const_traits@V?$basic_string@DU?$char_traits@D@std@@V?$allocator@D@_STL@@@_STL@@@2@@_STL@@_N@2@ABV?$basic_string@DU?$char_traits@D@std@@V?$allocator@D@_STL@@@2@@Z 3306bd9d f i XSystemBase.obj
 0001:0006adc0       ??1?$_Rb_tree@V?$basic_string@DU?$char_traits@D@std@@V?$allocator@D@_STL@@@_STL@@V12@U?$_Identity@V?$basic_string@DU?$char_traits@D@std@@V?$allocator@D@_STL@@@_STL@@@2@U?$less@V?$basic_string@DU?$char_traits@D@std@@V?$allocator@D@_STL@@@_STL@@@2@V?$allocator@V?$basic_string@DU?$char_traits@D@std@@V?$allocator@D@_STL@@@_STL@@@2@@_STL@@QAE@XZ 3306bdc0 f i XSystemBase.obj
 0001:0006adf2       ?erase@?$_Rb_tree@HU?$pair@$$CBHUTeam@@@_STL@@U?$_Select1st@U?$pair@$$CBHUTeam@@@_STL@@@2@U?$less@H@2@V?$allocator@U?$pair@$$CBHUTeam@@@_STL@@@2@@_STL@@QAEIABH@Z 3306bdf2 f i XSystemBase.obj
 0001:0006ae3b       ??$_Destroy@PAUEntityEventTarget@@@_STL@@YAXPAUEntityEventTarget@@0@Z 3306be3b f i XSystemBase.obj
 0001:0006ae54       ??0Team@@QAE@XZ            3306be54 f i XSystemBase.obj
 0001:0006aea1       ??0Team@@QAE@HPBDHH@Z      3306bea1 f i XSystemBase.obj
 0001:0006aef4       ??0Team@@QAE@ABU0@@Z       3306bef4 f i XSystemBase.obj
 0001:0006af59       ??4EntityEventTarget@@QAEXABU0@@Z 3306bf59 f i XSystemBase.obj
 0001:0006af82       ??1?$map@HUTeam@@U?$less@H@_STL@@V?$allocator@U?$pair@$$CBHUTeam@@@_STL@@@3@@_STL@@QAE@XZ 3306bf82 f i XSystemBase.obj
 0001:0006af87       ?GetPlayerEntities@CXSystemBase@@UAEAAV?$set@HU?$less@H@_STL@@V?$allocator@H@2@@_STL@@XZ 3306bf87 f i XSystemBase.obj
 0001:0006af8b       ?GetLevelDataCheckSum@CXSystemBase@@UAEGXZ 3306bf8b f i XSystemBase.obj
 0001:0006af90       ?OnFlockMove@CBoidObject@@UAEXAAUSBoidContext@@@Z 3306bf90 f i BugsFlock.obj
 0001:0006af90       ?OnDraw@CSynched2DTable@@UAEXABUSRendParams@@@Z 3306bf90 f i Synched2DTable.obj
 0001:0006af90       ?AddRespawnPoint@CXSystemBase@@MAEXPAUITagPoint@@@Z 3306bf90 f i XSystemBase.obj
 0001:0006af90       ?GetEntityDesc@CFlock@@UBEXAAVCEntityDesc@@@Z 3306bf90 f i BugsFlock.obj
 0001:0006af90       ?OnSetAngles@CGameObject@@UAEXABU?$Vec3_tpl@M@@@Z 3306bf90 f i Flock.obj
 0001:0006af90       ?Save@CXObjectProxy@@UAEXAAVCStream@@@Z 3306bf90 f i XObjectProxy.obj
 0001:0006af90       ?OnDraw@CAdvCamSystem@@UAEXABUSRendParams@@@Z 3306bf90 f i AdvCamSystem.obj
 0001:0006af90       ?Load@CXObjectProxy@@UAEXAAVCStream@@@Z 3306bf90 f i XObjectProxy.obj
 0001:0006af90       ?OnDraw@CGameObject@@UAEXABUSRendParams@@@Z 3306bf90 f i Flock.obj
 0001:0006af90       ?ApplyHealth@CXVehicleProxy@@UAEXM@Z 3306bf90 f i XVehicleProxy.obj
 0001:0006af90       ?SetScriptObject@CFlock@@UAEXPAUIScriptObject@@@Z 3306bf90 f i BugsFlock.obj
 0001:0006af90       ?OnSetVar@CXSystemBase@@UAEXPAUICVar@@@Z 3306bf90 f i XSystemBase.obj
 0001:0006af90       ?OnDraw@CSpectator@@UAEXABUSRendParams@@@Z 3306bf90 f i Spectator.obj
 0001:0006af90       ?RemoveTeam@CXSystemDummy@@UAEXH@Z 3306bf90 f i XSystemDummy.obj
 0001:0006af90       ?OnReadyToLoadLevel@CXSystemBase@@MAEXAAUSMissionInfo@1@@Z 3306bf90 f i XSystemBase.obj
 0001:0006af90       ?Load_PATCH_1@CXObjectProxy@@UAEXAAVCStream@@@Z 3306bf90 f i XObjectProxy.obj
 0001:0006af90       ?OnSetAngles@CFlock@@UAEXABU?$Vec3_tpl@M@@@Z 3306bf90 f i BugsFlock.obj
 0001:0006af90       ?OnStartAnimation@CXPuppetProxy@@UAEXPBD@Z 3306bf90 f i XPuppetProxy.obj
 0001:0006af90       ?GetEntityDesc@CVehicle@@UBEXAAVCEntityDesc@@@Z 3306bf90 f i XVehicle.obj
 0001:0006af90       ?CreateBoids@CFlock@@UAEXAAUSBoidsCreateContext@@@Z 3306bf90 f i Flock.obj
 0001:0006af90       ?ApplyHealth@CXObjectProxy@@UAEXM@Z 3306bf90 f i XObjectProxy.obj
 0001:0006af93       ?IsLevelEntity@CXSystemBase@@UAE_NG@Z 3306bf93 f i XSystemBase.obj
 0001:0006afb0       ??1?$set@V?$basic_string@DU?$char_traits@D@std@@V?$allocator@D@_STL@@@_STL@@U?$less@V?$basic_string@DU?$char_traits@D@std@@V?$allocator@D@_STL@@@_STL@@@2@V?$allocator@V?$basic_string@DU?$char_traits@D@std@@V?$allocator@D@_STL@@@_STL@@@2@@_STL@@QAE@XZ 3306bfb0 f i XSystemBase.obj
 0001:0006afb5       ??1?$vector@UEntityEventTarget@@V?$allocator@UEntityEventTarget@@@_STL@@@_STL@@QAE@XZ 3306bfb5 f i XSystemBase.obj
 0001:0006afcc       ?_M_clear@?$vector@UEntityEventTarget@@V?$allocator@UEntityEventTarget@@@_STL@@@_STL@@IAEXXZ 3306bfcc f i XSystemBase.obj
 0001:0006aff5       ??0?$pair@$$CBHUTeam@@@_STL@@QAE@ABU01@@Z 3306bff5 f i XSystemBase.obj
 0001:0006b012       ??0EntityEventTarget@@QAE@ABU0@@Z 3306c012 f i XSystemBase.obj
 0001:0006b056       ??_ECXSystemBase@@UAEPAXI@Z 3306c056 f i XSystemBase.obj
 0001:0006b056       ??_GCXSystemBase@@UAEPAXI@Z 3306c056 f i XSystemBase.obj
 0001:0006b072       ??$_Construct@UEntityEventTarget@@U1@@_STL@@YAXPAUEntityEventTarget@@ABU1@@Z 3306c072 f i XSystemBase.obj
 0001:0006b09f       ??$__uninitialized_copy@PAUEntityEventTarget@@PAU1@@_STL@@YAPAUEntityEventTarget@@PAU1@00ABU__false_type@0@@Z 3306c09f f i XSystemBase.obj
 0001:0006b0ff       ??$__uninitialized_fill_n@PAUEntityEventTarget@@IU1@@_STL@@YAPAUEntityEventTarget@@PAU1@IABU1@ABU__false_type@0@@Z 3306c0ff f i XSystemBase.obj
 0001:0006b15f       ??$_Construct@U?$pair@$$CBHUTeam@@@_STL@@U12@@_STL@@YAXPAU?$pair@$$CBHUTeam@@@0@ABU10@@Z 3306c15f f i XSystemBase.obj
 0001:0006b18c       ?_M_insert_overflow@?$vector@UEntityEventTarget@@V?$allocator@UEntityEventTarget@@@_STL@@@_STL@@IAEXPAUEntityEventTarget@@ABU3@ABU__false_type@2@I_N@Z 3306c18c f i XSystemBase.obj
 0001:0006b295       ?_M_create_node@?$_Rb_tree@HU?$pair@$$CBHUTeam@@@_STL@@U?$_Select1st@U?$pair@$$CBHUTeam@@@_STL@@@2@U?$less@H@2@V?$allocator@U?$pair@$$CBHUTeam@@@_STL@@@2@@_STL@@IAEPAU?$_Rb_tree_node@U?$pair@$$CBHUTeam@@@_STL@@@2@ABU?$pair@$$CBHUTeam@@@2@@Z 3306c295 f i XSystemBase.obj
 0001:0006b2f4       ?push_back@?$vector@UEntityEventTarget@@V?$allocator@UEntityEventTarget@@@_STL@@@_STL@@QAEXABUEntityEventTarget@@@Z 3306c2f4 f i XSystemBase.obj
 0001:0006b32b       ?_M_insert@?$_Rb_tree@HU?$pair@$$CBHUTeam@@@_STL@@U?$_Select1st@U?$pair@$$CBHUTeam@@@_STL@@@2@U?$less@H@2@V?$allocator@U?$pair@$$CBHUTeam@@@_STL@@@2@@_STL@@AAE?AU?$_Rb_tree_iterator@U?$pair@$$CBHUTeam@@@_STL@@U?$_Nonconst_traits@U?$pair@$$CBHUTeam@@@_STL@@@2@@2@PAU_Rb_tree_node_base@2@0ABU?$pair@$$CBHUTeam@@@2@0@Z 3306c32b f i XSystemBase.obj
 0001:0006b3b3       ?insert_unique@?$_Rb_tree@HU?$pair@$$CBHUTeam@@@_STL@@U?$_Select1st@U?$pair@$$CBHUTeam@@@_STL@@@2@U?$less@H@2@V?$allocator@U?$pair@$$CBHUTeam@@@_STL@@@2@@_STL@@QAE?AU?$pair@U?$_Rb_tree_iterator@U?$pair@$$CBHUTeam@@@_STL@@U?$_Nonconst_traits@U?$pair@$$CBHUTeam@@@_STL@@@2@@_STL@@_N@2@ABU?$pair@$$CBHUTeam@@@2@@Z 3306c3b3 f i XSystemBase.obj
 0001:0006b439       ??0CXSystemClient@@QAE@PAVCXGame@@PAUILog@@@Z 3306c439 f   XSystemClient.obj
 0001:0006b47a       ?Release@CXSystemClient@@UAEXXZ 3306c47a f   XSystemClient.obj
 0001:0006b489       ?RemoveEntity@CXSystemClient@@UAEXG_N@Z 3306c489 f   XSystemClient.obj
 0001:0006b491       ?DeleteAllEntities@CXSystemClient@@UAEXXZ 3306c491 f   XSystemClient.obj
 0001:0006b4b2       ?SetVariable@CXSystemClient@@UAEXPBD0@Z 3306c4b2 f   XSystemClient.obj
 0001:0006b4f3       ??1CXSystemClient@@UAE@XZ  3306c4f3 f   XSystemClient.obj
 0001:0006b52b       ?SpawnEntity@CXSystemClient@@UAEPAUIEntity@@AAVCEntityDesc@@@Z 3306c52b f   XSystemClient.obj
 0001:0006b582       ?Disconnected@CXSystemClient@@UAEXPBD@Z 3306c582 f   XSystemClient.obj
 0001:0006b5ba       ?LoadLevel@CXSystemClient@@UAE_NPBD0_N@Z 3306c5ba f   XSystemClient.obj
 0001:0006b64b       ?WriteTeams@CXSystemClient@@UAE_NAAVCStream@@@Z 3306c64b f i XSystemClient.obj
 0001:0006b64b       ?ReadTeams@CXSystemServer@@UAE_NAAVCStream@@@Z 3306c64b f i XSystemServer.obj
 0001:0006b64b       ?WriteTeams@CXSystemDummy@@UAE_NAAVCStream@@@Z 3306c64b f i XSystemDummy.obj
 0001:0006b64b       ?Read@CFlock@@UAE_NAAVCStream@@@Z 3306c64b f i BugsFlock.obj
 0001:0006b650       ??_GCXSystemClient@@UAEPAXI@Z 3306c650 f i XSystemClient.obj
 0001:0006b650       ??_ECXSystemClient@@UAEPAXI@Z 3306c650 f i XSystemClient.obj
 0001:0006b66c       ??0SMissionInfo@CXSystemBase@@QAE@XZ 3306c66c f i XSystemClient.obj
 0001:0006b6c0       ??1SMissionInfo@CXSystemBase@@QAE@XZ 3306c6c0 f i XSystemClient.obj
 0001:0006b721       ??0CXSystemDummy@@QAE@PAVCXGame@@PAUILog@@@Z 3306c721 f   XSystemDummy.obj
 0001:0006b762       ?Release@CXSystemDummy@@UAEXXZ 3306c762 f   XSystemDummy.obj
 0001:0006b771       ?LoadLevel@CXSystemDummy@@UAE_NPBD0_N@Z 3306c771 f   XSystemDummy.obj
 0001:0006b7b8       ?SpawnEntity@CXSystemDummy@@UAEPAUIEntity@@AAVCEntityDesc@@@Z 3306c7b8 f   XSystemDummy.obj
 0001:0006b7cb       ?RemoveEntity@CXSystemDummy@@UAEXG_N@Z 3306c7cb f   XSystemDummy.obj
 0001:0006b7ce       ?DeleteAllEntities@CXSystemDummy@@UAEXXZ 3306c7ce f   XSystemDummy.obj
 0001:0006b7cf       ?SetMyPlayer@CXSystemDummy@@QAEXG@Z 3306c7cf f   XSystemDummy.obj
 0001:0006b7d2       ??1CXSystemDummy@@UAE@XZ   3306c7d2 f   XSystemDummy.obj
 0001:0006b7dd       ?Disconnected@CXSystemDummy@@UAEXPBD@Z 3306c7dd f   XSystemDummy.obj
 0001:0006b801       ??_ECXSystemDummy@@UAEPAXI@Z 3306c801 f i XSystemDummy.obj
 0001:0006b801       ??_GCXSystemDummy@@UAEPAXI@Z 3306c801 f i XSystemDummy.obj
 0001:0006b81d       ?AddTeam@CXSystemDummy@@UAEHV?$basic_string@DU?$char_traits@D@std@@V?$allocator@D@_STL@@@_STL@@H@Z 3306c81d f i XSystemDummy.obj
 0001:0006b853       ??0CEntityStreamData@@QAE@XZ 3306c853 f   XSystemEntities.obj
 0001:0006b85d       ??1CEntityStreamData@@QAE@XZ 3306c85d f   XSystemEntities.obj
 0001:0006b869       ??0CXSystemServer@@QAE@PAVCXServer@@PAVCXGame@@PAUILog@@@Z 3306c869 f   XSystemServer.obj
 0001:0006b8b0       ?Release@CXSystemServer@@UAEXXZ 3306c8b0 f   XSystemServer.obj
 0001:0006b8bf       ?SpawnEntity@CXSystemServer@@UAEPAUIEntity@@AAVCEntityDesc@@@Z 3306c8bf f   XSystemServer.obj
 0001:0006b8f9       ?RemoveEntity@CXSystemServer@@UAEXG_N@Z 3306c8f9 f   XSystemServer.obj
 0001:0006b901       ?DeleteAllEntities@CXSystemServer@@UAEXXZ 3306c901 f   XSystemServer.obj
 0001:0006b922       ?Disconnected@CXSystemServer@@UAEXPBD@Z 3306c922 f   XSystemServer.obj
 0001:0006b925       ?BindEntity@CXSystemServer@@UAEXGG@Z 3306c925 f   XSystemServer.obj
 0001:0006b928       ?UnbindEntity@CXSystemServer@@UAEXGG@Z 3306c928 f   XSystemServer.obj
 0001:0006b92b       ?AddRespawnPoint@CXSystemServer@@UAEXPAUITagPoint@@@Z 3306c92b f   XSystemServer.obj
 0001:0006b936       ?OnSetVar@CXSystemServer@@UAEXPAUICVar@@@Z 3306c936 f   XSystemServer.obj
 0001:0006b945       ??1CXSystemServer@@UAE@XZ  3306c945 f   XSystemServer.obj
 0001:0006b97d       ?LoadCharacter@CXSystemServer@@QAE_NPAUIEntity@@PBD@Z 3306c97d f   XSystemServer.obj
 0001:0006b9a6       ?WriteTeams@CXSystemServer@@UAE_NAAVCStream@@@Z 3306c9a6 f   XSystemServer.obj
 0001:0006b9ed       ?OnReadyToLoadLevel@CXSystemServer@@MAEXAAUSMissionInfo@CXSystemBase@@@Z 3306c9ed f   XSystemServer.obj
 0001:0006bb93       ?LoadLevel@CXSystemServer@@UAE_NPBD0_N@Z 3306cb93 f   XSystemServer.obj
 0001:0006bd07       ??_GCXSystemServer@@UAEPAXI@Z 3306cd07 f i XSystemServer.obj
 0001:0006bd07       ??_ECXSystemServer@@UAEPAXI@Z 3306cd07 f i XSystemServer.obj
 0001:0006bd23       ?OnStartAnimation@CWeaponClass@@UAEXPBD@Z 3306cd23 f   WeaponClass.obj
 0001:0006bd26       ?OnEndAnimation@CWeaponClass@@UAEXPBD@Z 3306cd26 f   WeaponClass.obj
 0001:0006bd29       ?ScriptOnInit@CWeaponClass@@QAEXXZ 3306cd29 f   WeaponClass.obj
 0001:0006bd9f       ?ScriptWeaponReady@CWeaponClass@@QAEXPAUIEntity@@@Z 3306cd9f f   WeaponClass.obj
 0001:0006be4a       ?ScriptOnStopFiring@CWeaponClass@@QAEXPAUIEntity@@@Z 3306ce4a f   WeaponClass.obj
 0001:0006bef5       ?ScriptReload@CWeaponClass@@QAEXPAUIEntity@@@Z 3306cef5 f   WeaponClass.obj
 0001:0006bfa0       ?ScriptDrop@CWeaponClass@@QAEXPAUIScriptObject@@@Z 3306cfa0 f   WeaponClass.obj
 0001:0006c02f       ?ScriptOnUpdate@CWeaponClass@@QAEXMPAUIEntity@@@Z 3306d02f f   WeaponClass.obj
 0001:0006c0fa       ?ScriptOnFireCancel@CWeaponClass@@QAE_NPAUIScriptObject@@@Z 3306d0fa f   WeaponClass.obj
 0001:0006c0ff       ?ScriptOnHit@CWeaponClass@@QAEXPAUIScriptObject@@@Z 3306d0ff f   WeaponClass.obj
 0001:0006c18e       ?ScriptOnEvent@CWeaponClass@@QAEXHPAUIScriptObject@@PA_N@Z 3306d18e f   WeaponClass.obj
 0001:0006c265       ?SetFirstPersonWeaponPos@CWeaponClass@@QAEXABU?$Vec3_tpl@M@@0@Z 3306d265 f   WeaponClass.obj
 0001:0006c280       ?SetFirstPersonOffset@CWeaponClass@@QAEXABU?$Vec3_tpl@M@@0@Z 3306d280 f   WeaponClass.obj
 0001:0006c29b       ?GetFireRate@CWeaponClass@@QBEMW4eFireType@@@Z 3306d29b f   WeaponClass.obj
 0001:0006c2b3       ?HasAIFireMode@CWeaponClass@@QBE_NXZ 3306d2b3 f   WeaponClass.obj
 0001:0006c2c0       ?GetAIFireMode@CWeaponClass@@QBEHXZ 3306d2c0 f   WeaponClass.obj
 0001:0006c2d0       ?CalculateWeaponAngles@CWeaponClass@@QAEXEPAU?$Vec3_tpl@M@@M@Z 3306d2d0 f   WeaponClass.obj
 0001:0006c37a       ?ScriptOnActivate@CWeaponClass@@QAEXPAUIEntity@@@Z 3306d37a f   WeaponClass.obj
 0001:0006c426       ?ScriptOnDeactivate@CWeaponClass@@QAEXPAUIEntity@@@Z 3306d426 f   WeaponClass.obj
 0001:0006c4d2       ?GetFirePos@CWeaponClass@@QBE?AU?$Vec3_tpl@M@@PAUIEntity@@@Z 3306d4d2 f   WeaponClass.obj
 0001:0006c524       ?MemStats@CWeaponClass@@QBEIXZ 3306d524 f   WeaponClass.obj
 0001:0006c568       ?InitModels@CWeaponClass@@AAE_NXZ 3306d568 f   WeaponClass.obj
 0001:0006c6d6       ?LoadMuzzleFlash@CWeaponClass@@QAE_NABV?$basic_string@DU?$char_traits@D@std@@V?$allocator@D@_STL@@@_STL@@@Z 3306d6d6 f   WeaponClass.obj
 0001:0006c745       ?OnAnimationEvent@CWeaponClass@@UAEXPBDUAnimSinkEventData@@@Z 3306d745 f   WeaponClass.obj
 0001:0006c888       ?Write@CWeaponClass@@QBEXAAVCStream@@@Z 3306d888 f   WeaponClass.obj
 0001:0006c897       ?ScriptOnFire@CWeaponClass@@QAE_NPAUIScriptObject@@@Z 3306d897 f   WeaponClass.obj
 0001:0006ca4a       ?GetNextFireMode@CWeaponClass@@QBEHH_N@Z 3306da4a f   WeaponClass.obj
 0001:0006cac6       ?InitScripts@CWeaponClass@@AAE_NXZ 3306dac6 f   WeaponClass.obj
 0001:0006d0b9       ?CancelFire@CWeaponClass@@QAE_NXZ 3306e0b9 f   WeaponClass.obj
 0001:0006d198       ?ProcessHitTarget@CWeaponClass@@AAEXABUSWeaponHit@@@Z 3306e198 f   WeaponClass.obj
 0001:0006d348       ?ProcessHit@CWeaponClass@@QAEXABUSWeaponHit@@@Z 3306e348 f   WeaponClass.obj
 0001:0006d8c0       ?Load@CWeaponClass@@QAE_NXZ 3306e8c0 f   WeaponClass.obj
 0001:0006d8dc       ?MoveToFirstPersonPos@CWeaponClass@@QAEXPAUIEntity@@@Z 3306e8dc f   WeaponClass.obj
 0001:0006db49       ??0CWeaponClass@@QAE@AAVCWeaponSystemEx@@@Z 3306eb49 f   WeaponClass.obj
 0001:0006dca6       ?Reset@CWeaponClass@@QAEXXZ 3306eca6 f   WeaponClass.obj
 0001:0006dddb       ?Unload@CWeaponClass@@QAEXXZ 3306eddb f   WeaponClass.obj
 0001:0006dde0       ??1CWeaponClass@@UAE@XZ    3306ede0 f   WeaponClass.obj
 0001:0006df25       ?InitWeaponClassVariables@CWeaponClass@@AAE_NXZ 3306ef25 f   WeaponClass.obj
 0001:0006e0c3       ?GetWeaponParams@CWeaponClass@@QAEXAAUWeaponParams@@@Z 3306f0c3 f   WeaponClass.obj
 0001:0006e0d6       ?GetModeParams@CWeaponClass@@QAE_NHAAUWeaponParams@@@Z 3306f0d6 f   WeaponClass.obj
 0001:0006e107       ?Update@CWeaponClass@@QAEXPAVCPlayer@@@Z 3306f107 f   WeaponClass.obj
 0001:0006e2e3       ?Fire@CWeaponClass@@QAEHABU?$Vec3_tpl@M@@0PAVCPlayer@@AAUWeaponInfo@@PAVIPhysicalEntity@@@Z 3306f2e3 f   WeaponClass.obj
 0001:0006fad3       ?Init@CWeaponClass@@QAE_NABV?$basic_string@DU?$char_traits@D@std@@V?$allocator@D@_STL@@@_STL@@@Z 33070ad3 f   WeaponClass.obj
 0001:0006fb19       ?Read@CWeaponClass@@QAEXAAVCStream@@@Z 33070b19 f   WeaponClass.obj
 0001:0006fb29       ?AddWeaponParams@CWeaponClass@@QAEPAUWeaponParams@@ABU2@@Z 33070b29 f   WeaponClass.obj
 0001:0006fbb8       ??0pe_action_impulse@@QAE@XZ 33070bb8 f i WeaponClass.obj
 0001:0006fbec       ??_GCWeaponClass@@UAEPAXI@Z 33070bec f i WeaponClass.obj
 0001:0006fbec       ??_ECWeaponClass@@UAEPAXI@Z 33070bec f i WeaponClass.obj
 0001:0006fc08       ??4WeaponParams@@QAEAAU0@ABU0@@Z 33070c08 f i WeaponClass.obj
 0001:0006fcf6       ?AddProjectileClass@CWeaponSystemEx@@QAEXH@Z 33070cf6 f   WeaponSystemEx.obj
 0001:0006fcf9       ?IsLeftHanded@CWeaponSystemEx@@QAE_NXZ 33070cf9 f   WeaponSystemEx.obj
 0001:0006fd0e       ?RegisterScriptConstants@CWeaponSystemEx@@ABEXXZ 33070d0e f   WeaponSystemEx.obj
 0001:0006fd5b       ?GetWeaponClassByID@CWeaponSystemEx@@QBEPAVCWeaponClass@@H@Z 33070d5b f   WeaponSystemEx.obj
 0001:0006fd7e       ?MemStats@CWeaponSystemEx@@QBEIXZ 33070d7e f   WeaponSystemEx.obj
 0001:0006fde7       ?Write@CWeaponSystemEx@@QBEXAAVCStream@@@Z 33070de7 f   WeaponSystemEx.obj
 0001:0006fe26       ?IsProjectileClass@CWeaponSystemEx@@QAE_NG@Z 33070e26 f   WeaponSystemEx.obj
 0001:0006fe5e       ?GetWeaponClass@CWeaponSystemEx@@QBEPAVCWeaponClass@@I@Z 33070e5e f   WeaponSystemEx.obj
 0001:0006fe7c       ?GetWeaponClassByName@CWeaponSystemEx@@QBEPAVCWeaponClass@@ABV?$basic_string@DU?$char_traits@D@std@@V?$allocator@D@_STL@@@_STL@@@Z 33070e7c f   WeaponSystemEx.obj
 0001:0006fead       ?AddWeapon@CWeaponSystemEx@@QAE_NABV?$basic_string@DU?$char_traits@D@std@@V?$allocator@D@_STL@@@_STL@@@Z 33070ead f   WeaponSystemEx.obj
 0001:0006ff4d       ?GetWeaponClassIDByName@CWeaponSystemEx@@QBEHABV?$basic_string@DU?$char_traits@D@std@@V?$allocator@D@_STL@@@_STL@@@Z 33070f4d f   WeaponSystemEx.obj
 0001:0006ff65       ??0CWeaponSystemEx@@QAE@XZ 33070f65 f   WeaponSystemEx.obj
 0001:0006ffb5       ?AddWeaponClass@CWeaponSystemEx@@QAE_NPAVCWeaponClass@@@Z 33070fb5 f   WeaponSystemEx.obj
 0001:00070005       ?CacheObject@CWeaponSystemEx@@QAEXABV?$basic_string@DU?$char_traits@D@std@@V?$allocator@D@_STL@@@_STL@@@Z 33071005 f   WeaponSystemEx.obj
 0001:00070043       ?GetAvailableWeapons@CWeaponSystemEx@@QAEPAUINameIterator@@XZ 33071043 f   WeaponSystemEx.obj
 0001:000700b1       ?GetAvailableProjectiles@CWeaponSystemEx@@QAEPAUINameIterator@@XZ 330710b1 f   WeaponSystemEx.obj
 0001:0007011f       ?ExecuteScript@CWeaponSystemEx@@QAE_NABV?$basic_string@DU?$char_traits@D@std@@V?$allocator@D@_STL@@@_STL@@@Z 3307111f f   WeaponSystemEx.obj
 0001:000701a9       ?UnloadScript@CWeaponSystemEx@@QAEXABV?$basic_string@DU?$char_traits@D@std@@V?$allocator@D@_STL@@@_STL@@@Z 330711a9 f   WeaponSystemEx.obj
 0001:000702cf       ?Reset@CWeaponSystemEx@@QAEXXZ 330712cf f   WeaponSystemEx.obj
 0001:000703f5       ?Read@CWeaponSystemEx@@QAEXAAVCStream@@@Z 330713f5 f   WeaponSystemEx.obj
 0001:0007046e       ??1CWeaponSystemEx@@UAE@XZ 3307146e f   WeaponSystemEx.obj
 0001:000704be       ?Init@CWeaponSystemEx@@QAE_NPAVCXGame@@_N@Z 330714be f   WeaponSystemEx.obj
 0001:00070835       ??$fill_n@PAHIH@_STL@@YAPAHPAHIABH@Z 33071835 f i UIListView.obj
 0001:00070835       ??$fill_n@PAPAUProperty@?$_ScriptableEx@VCScriptObjectVehicle@@@@IPAU12@@_STL@@YAPAPAUProperty@?$_ScriptableEx@VCScriptObjectVehicle@@@@PAPAU12@IABQAU12@@Z 33071835 f i ScriptObjectVehicle.obj
 0001:00070835       ??$fill_n@PAPAUProperty@?$_ScriptableEx@VCScriptObjectPlayer@@@@IPAU12@@_STL@@YAPAPAUProperty@?$_ScriptableEx@VCScriptObjectPlayer@@@@PAPAU12@IABQAU12@@Z 33071835 f i ScriptObjectPlayer.obj
 0001:00070835       ??$fill_n@PAPAUIEntity@@IPAU1@@_STL@@YAPAPAUIEntity@@PAPAU1@IABQAU1@@Z 33071835 f i XClient.obj
 0001:00070835       ??$fill_n@PAPAVCUIScreen@@IPAV1@@_STL@@YAPAPAVCUIScreen@@PAPAV1@IABQAV1@@Z 33071835 f i UISystem.obj
 0001:00070835       ??$fill_n@PAIII@_STL@@YAPAIPAIIABI@Z 33071835 f i XServer.obj
 0001:00070835       ??$fill_n@PAPAVCXArea@@IPAV1@@_STL@@YAPAPAVCXArea@@PAPAV1@IABQAV1@@Z 33071835 f i XArea.obj
 0001:00070835       ??$fill_n@PAPAVCWeaponClass@@IPAV1@@_STL@@YAPAPAVCWeaponClass@@PAPAV1@IABQAV1@@Z 33071835 f i WeaponSystemEx.obj
 0001:00070835       ??$fill_n@PAPAUUIComboItem@@IPAU1@@_STL@@YAPAPAUUIComboItem@@PAPAU1@IABQAU1@@Z 33071835 f i UIComboBox.obj
 0001:00070835       ??$fill_n@PAPAUIScriptObject@@IPAU1@@_STL@@YAPAPAUIScriptObject@@PAPAU1@IABQAU1@@Z 33071835 f i ScriptObjectGame.obj
 0001:00070835       ??$fill_n@PAPAVCPlayer@@IPAV1@@_STL@@YAPAPAVCPlayer@@PAPAV1@IABQAV1@@Z 33071835 f i GameEquipPacks.obj
 0001:00070835       ??$fill_n@PAPAUUIListItem@@IPAU1@@_STL@@YAPAPAUUIListItem@@PAPAU1@IABQAU1@@Z 33071835 f i UIListView.obj
 0001:00070835       ??$fill_n@PAPAUProperty@?$_ScriptableEx@VCScriptObjectFireParam@@@@IPAU12@@_STL@@YAPAPAUProperty@?$_ScriptableEx@VCScriptObjectFireParam@@@@PAPAU12@IABQAU12@@Z 33071835 f i ScriptObjectWeaponClass.obj
 0001:00070835       ??$fill_n@PAKIK@_STL@@YAPAKPAKIABK@Z 33071835 f i XNetworkStats.obj
 0001:00070835       ??$fill_n@PAPAVCFlock@@IPAV1@@_STL@@YAPAPAVCFlock@@PAPAV1@IABQAV1@@Z 33071835 f i Flock.obj
 0001:00070835       ??$fill_n@PAPAUIStatObj@@IPAU1@@_STL@@YAPAPAUIStatObj@@PAPAU1@IABQAU1@@Z 33071835 f i WeaponSystemEx.obj
 0001:00070835       ??$fill_n@PAPAUSGameModDescription@@IPAU1@@_STL@@YAPAPAUSGameModDescription@@PAPAU1@IABQAU1@@Z 33071835 f i GameMods.obj
 0001:00070835       ??$fill_n@PAPAVCScriptObjectFireParam@@IPAV1@@_STL@@YAPAPAVCScriptObjectFireParam@@PAPAV1@IABQAV1@@Z 33071835 f i ScriptObjectWeaponClass.obj
 0001:00070835       ??$fill_n@PAPAVCProjectileClass@@IPAV1@@_STL@@YAPAPAVCProjectileClass@@PAPAV1@IABQAV1@@Z 33071835 f i WeaponSystemEx.obj
 0001:00070835       ??$fill_n@PAPAVCBoidObject@@IPAV1@@_STL@@YAPAPAVCBoidObject@@PAPAV1@IABQAV1@@Z 33071835 f i Flock.obj
 0001:00070835       ??$fill_n@PAPAVCScriptObjectRenderer@@IPAV1@@_STL@@YAPAPAVCScriptObjectRenderer@@PAPAV1@IABQAV1@@Z 33071835 f i ScriptObjectGame.obj
 0001:00070835       ??$fill_n@PAPAUWeaponParams@@IPAU1@@_STL@@YAPAPAUWeaponParams@@PAPAU1@IABQAU1@@Z 33071835 f i WeaponClass.obj
 0001:00070835       ??$fill_n@PAPAVCUIWidget@@IPAV1@@_STL@@YAPAPAVCUIWidget@@PAPAV1@IABQAV1@@Z 33071835 f i UIScreen.obj
 0001:00070835       ??$fill_n@PAPAUa2DSegment@CXArea@@IPAU12@@_STL@@YAPAPAUa2DSegment@CXArea@@PAPAU12@IABQAU12@@Z 33071835 f i XArea.obj
 0001:00070855       ??0?$_List_base@V?$basic_string@DU?$char_traits@D@std@@V?$allocator@D@_STL@@@_STL@@V?$allocator@V?$basic_string@DU?$char_traits@D@std@@V?$allocator@D@_STL@@@_STL@@@2@@_STL@@QAE@ABV?$allocator@V?$basic_string@DU?$char_traits@D@std@@V?$allocator@D@_STL@@@_STL@@@1@@Z 33071855 f i WeaponSystemEx.obj
 0001:0007087b       ??1CProjectileClass@@QAE@XZ 3307187b f i WeaponSystemEx.obj
 0001:000708d5       ??0CProjectileClass@@QAE@GABV?$basic_string@DU?$char_traits@D@std@@V?$allocator@D@_STL@@@_STL@@PAUIStatObj@@AAVCWeaponSystemEx@@@Z 330718d5 f i WeaponSystemEx.obj
 0001:00070900       ??1?$_List_base@V?$basic_string@DU?$char_traits@D@std@@V?$allocator@D@_STL@@@_STL@@V?$allocator@V?$basic_string@DU?$char_traits@D@std@@V?$allocator@D@_STL@@@_STL@@@2@@_STL@@QAE@XZ 33071900 f i WeaponSystemEx.obj
 0001:00070915       ?AddNameString@CNameIterator@@QAEXV?$basic_string@DU?$char_traits@D@std@@V?$allocator@D@_STL@@@_STL@@@Z 33071915 f i WeaponSystemEx.obj
 0001:0007095a       ??$?HDU?$char_traits@D@std@@V?$allocator@D@_STL@@@_STL@@YA?AV?$basic_string@DU?$char_traits@D@std@@V?$allocator@D@_STL@@@0@PBDABV10@@Z 3307195a f i WeaponSystemEx.obj
 0001:000709e6       ??0CNameIterator@@QAE@XZ   330719e6 f i WeaponSystemEx.obj
 0001:00070a0b       ?MoveFirst@CNameIterator@@UAEXXZ 33071a0b f i WeaponSystemEx.obj
 0001:00070a14       ?MoveNext@CNameIterator@@UAE_NXZ 33071a14 f i WeaponSystemEx.obj
 0001:00070a27       ?Get@CNameIterator@@UAE_NPADPAH@Z 33071a27 f i WeaponSystemEx.obj
 0001:00070a6f       ?Release@CNameIterator@@UAEXXZ 33071a6f f i WeaponSystemEx.obj
 0001:00070a84       ??1CNameIterator@@QAE@XZ   33071a84 f i WeaponSystemEx.obj
 0001:00070a92       ??_ECWeaponSystemEx@@UAEPAXI@Z 33071a92 f i WeaponSystemEx.obj
 0001:00070a92       ??_GCWeaponSystemEx@@UAEPAXI@Z 33071a92 f i WeaponSystemEx.obj
 0001:00070aae       ?OnSpawnContainer@CXClient@@UAEXAAVCEntityDesc@@PAUIEntity@@@Z 33071aae f   XClient.obj
 0001:00070ab6       ?OnSpawn@CXClient@@UAEXPAUIEntity@@AAVCEntityDesc@@@Z 33071ab6 f   XClient.obj
 0001:00070abe       ?OnRemove@CXClient@@UAEXPAUIEntity@@@Z 33071abe f   XClient.obj
 0001:00070ac1       ?MarkForDestruct@CXClient@@UAEXXZ 33071ac1 f   XClient.obj
 0001:00070ac9       ?DestructIfMarked@CXClient@@UAE_NXZ 33071ac9 f   XClient.obj
 0001:00070adf       ?Reset@CXClient@@QAEXXZ    33071adf f   XClient.obj
 0001:00070b20       ?OnXServerTimeout@CXClient@@UAEXXZ 33071b20 f   XClient.obj
 0001:00070b39       ?OnXServerRessurect@CXClient@@UAEXXZ 33071b39 f   XClient.obj
 0001:00070b52       ?DemoConnect@CXClient@@QAEXXZ 33071b52 f   XClient.obj
 0001:00070b5a       ?XDisconnect@CXClient@@QAEXPBD@Z 33071b5a f   XClient.obj
 0001:00070b6b       ?GetMsgName@CXClient@@CAPBDE@Z 33071b6b f   XClient.obj
 0001:00070be7       ?DrawNetStats@CXClient@@QAEXXZ 33071be7 f   XClient.obj
 0001:00070ceb       ?OnMapChanged@CXClient@@QAEXXZ 33071ceb f   XClient.obj
 0001:00070cf3       ?IsReady@CXClient@@QAE_NXZ 33071cf3 f   XClient.obj
 0001:00070cfb       ?GetPlayerId@CXClient@@QBEGXZ 33071cfb f   XClient.obj
 0001:00070d00       ?SetPlayerID@CXClient@@QAEXG@Z 33071d00 f   XClient.obj
 0001:00070d64       ?TriggerJump@CXClient@@QAEXMW4XActivationEvent@@@Z 33071d64 f   XClient.obj
 0001:00070d71       ?TriggerMoveMode@CXClient@@QAEXMW4XActivationEvent@@@Z 33071d71 f   XClient.obj
 0001:00070d7e       ?TriggerMoveModeToggle@CXClient@@QAEXMW4XActivationEvent@@@Z 33071d7e f   XClient.obj
 0001:00070d8b       ?TriggerAimToggle@CXClient@@QAEXMW4XActivationEvent@@@Z 33071d8b f   XClient.obj
 0001:00070de4       ?TriggerMoveMode2@CXClient@@QAEXMW4XActivationEvent@@@Z 33071de4 f   XClient.obj
 0001:00070df1       ?TriggerLeanLeft@CXClient@@QAEXMW4XActivationEvent@@@Z 33071df1 f   XClient.obj
 0001:00070dfe       ?TriggerLeanRight@CXClient@@QAEXMW4XActivationEvent@@@Z 33071dfe f   XClient.obj
 0001:00070e0b       ?TriggerHoldBreath@CXClient@@QAEXMW4XActivationEvent@@@Z 33071e0b f   XClient.obj
 0001:00070e18       ?TriggerFireMode@CXClient@@QAEXMW4XActivationEvent@@@Z 33071e18 f   XClient.obj
 0001:00070e25       ?TriggerFire0@CXClient@@QAEXMW4XActivationEvent@@@Z 33071e25 f   XClient.obj
 0001:00070e32       ?TriggerFireCancel@CXClient@@QAEXMW4XActivationEvent@@@Z 33071e32 f   XClient.obj
 0001:00070e3f       ?TriggerFireGrenade@CXClient@@QAEXMW4XActivationEvent@@@Z 33071e3f f   XClient.obj
 0001:00070e4c       ?TriggerFlashlight@CXClient@@QAEXMW4XActivationEvent@@@Z 33071e4c f   XClient.obj
 0001:00070e59       ?TriggerChangeView@CXClient@@QAEXMW4XActivationEvent@@@Z 33071e59 f   XClient.obj
 0001:00070e66       ?TriggerVehicleBoost@CXClient@@QAEXMW4XActivationEvent@@@Z 33071e66 f   XClient.obj
 0001:00070e73       ?TriggerReload@CXClient@@QAEXMW4XActivationEvent@@@Z 33071e73 f   XClient.obj
 0001:00070e80       ?TriggerUse@CXClient@@QAEXMW4XActivationEvent@@@Z 33071e80 f   XClient.obj
 0001:00070e8d       ?TriggerWalk@CXClient@@QAEXMW4XActivationEvent@@@Z 33071e8d f   XClient.obj
 0001:00070e9a       ?TriggerRunSprint@CXClient@@QAEXMW4XActivationEvent@@@Z 33071e9a f   XClient.obj
 0001:00070ea7       ?TriggerNextWeapon@CXClient@@QAEXMW4XActivationEvent@@@Z 33071ea7 f   XClient.obj
 0001:00070eb4       ?TriggerPrevWeapon@CXClient@@QAEXMW4XActivationEvent@@@Z 33071eb4 f   XClient.obj
 0001:00070ec1       ?TriggerWeapon0@CXClient@@QAEXMW4XActivationEvent@@@Z 33071ec1 f   XClient.obj
 0001:00070ece       ?TriggerWeapon1@CXClient@@QAEXMW4XActivationEvent@@@Z 33071ece f   XClient.obj
 0001:00070edb       ?TriggerWeapon2@CXClient@@QAEXMW4XActivationEvent@@@Z 33071edb f   XClient.obj
 0001:00070ee8       ?TriggerWeapon3@CXClient@@QAEXMW4XActivationEvent@@@Z 33071ee8 f   XClient.obj
 0001:00070ef5       ?TriggerWeapon4@CXClient@@QAEXMW4XActivationEvent@@@Z 33071ef5 f   XClient.obj
 0001:00070f02       ?CycleGrenade@CXClient@@QAEXMW4XActivationEvent@@@Z 33071f02 f   XClient.obj
 0001:00070f0f       ?TriggerDropWeapon@CXClient@@QAEXMW4XActivationEvent@@@Z 33071f0f f   XClient.obj
 0001:00070f1c       ?TriggerItem0@CXClient@@QAEXMW4XActivationEvent@@@Z 33071f1c f   XClient.obj
 0001:00070f42       ?TriggerItem1@CXClient@@QAEXMW4XActivationEvent@@@Z 33071f42 f   XClient.obj
 0001:00070f68       ?TriggerItem2@CXClient@@QAEXMW4XActivationEvent@@@Z 33071f68 f   XClient.obj
 0001:00070f8e       ?TriggerItem3@CXClient@@QAEXMW4XActivationEvent@@@Z 33071f8e f   XClient.obj
 0001:00070fb4       ?TriggerZoomToggle@CXClient@@QAEXMW4XActivationEvent@@@Z 33071fb4 f   XClient.obj
 0001:00070fe2       ?TriggerZoomIn@CXClient@@QAEXMW4XActivationEvent@@@Z 33071fe2 f   XClient.obj
 0001:00071008       ?TriggerZoomOut@CXClient@@QAEXMW4XActivationEvent@@@Z 33072008 f   XClient.obj
 0001:0007102e       ?TriggerConcentration@CXClient@@QAEXMW4XActivationEvent@@@Z 3307202e f   XClient.obj
 0001:0007106b       ?TriggerMessageMode@CXClient@@QAEXMW4XActivationEvent@@@Z 3307206b f   XClient.obj
 0001:0007108c       ?TriggerMessageMode2@CXClient@@QAEXMW4XActivationEvent@@@Z 3307208c f   XClient.obj
 0001:000710ad       ?TriggerScreenshot@CXClient@@QAEXMW4XActivationEvent@@@Z 330720ad f   XClient.obj
 0001:000710ce       ?OnServerMsgRequestScriptHash@CXClient@@AAE_NAAVCStream@@@Z 330720ce f   XClient.obj
 0001:0007114d       ?OnServerMsgEventSchedule@CXClient@@AAE_NAAVCStream@@@Z 3307214d f   XClient.obj
 0001:0007115e       ?FrontOfLine@@YA_NMMMMMM@Z 3307215e f   XClient.obj
 0001:00071194       ?SetEntityCamera@CXClient@@QAEXABUSCameraParams@@@Z 33072194 f   XClient.obj
 0001:000711ac       ?GetTimeoutCompensation@CXClient@@UAEIXZ 330721ac f   XClient.obj
 0001:000711f0       ?LazyChannelAcknowledge@CXClient@@QAEXXZ 330721f0 f   XClient.obj
 0001:000711fb       ?GetLazyChannelState@CXClient@@QAE_NXZ 330721fb f   XClient.obj
 0001:000711ff       ?LoadPlayerDesc@CXClient@@AAEXXZ 330721ff f   XClient.obj
 0001:00071200       ?CreateConsoleVariables@CXClient@@QAE_NXZ 33072200 f   XClient.obj
 0001:00071452       ?OnXClientDisconnect@CXClient@@UAEXPBD@Z 33072452 f   XClient.obj
 0001:0007155e       ?UpdateClientNetwork@CXClient@@QAEXXZ 3307255e f   XClient.obj
 0001:000715cc       ?SendReliable@CXClient@@QAEXAAVCStream@@@Z 330725cc f   XClient.obj
 0001:000715f7       ?SendUnreliable@CXClient@@QAEXAAVCStream@@@Z 330725f7 f   XClient.obj
 0001:00071622       ?UpdateISystem@CXClient@@AAEXXZ 33072622 f   XClient.obj
 0001:000716e9       ?TriggerMoveLeft@CXClient@@QAEXMW4XActivationEvent@@@Z 330726e9 f   XClient.obj
 0001:000716fe       ?TriggerMoveRight@CXClient@@QAEXMW4XActivationEvent@@@Z 330726fe f   XClient.obj
 0001:00071713       ?TriggerMoveLR@CXClient@@QAEXMW4XActivationEvent@@@Z 33072713 f   XClient.obj
 0001:00071790       ?TriggerMoveForward@CXClient@@QAEXMW4XActivationEvent@@@Z 33072790 f   XClient.obj
 0001:000717a5       ?TriggerMoveBackward@CXClient@@QAEXMW4XActivationEvent@@@Z 330727a5 f   XClient.obj
 0001:000717ba       ?TriggerMoveFB@CXClient@@QAEXMW4XActivationEvent@@@Z 330727ba f   XClient.obj
 0001:00071837       ?TriggerTurnLR@CXClient@@QAEXMW4XActivationEvent@@@Z 33072837 f   XClient.obj
 0001:000719d3       ?TriggerTurnUD@CXClient@@QAEXMW4XActivationEvent@@@Z 330729d3 f   XClient.obj
 0001:00071bdc       ?TriggerQuickLoad@CXClient@@QAEXMW4XActivationEvent@@@Z 33072bdc f   XClient.obj
 0001:00071bf7       ?TriggerQuickSave@CXClient@@QAEXMW4XActivationEvent@@@Z 33072bf7 f   XClient.obj
 0001:00071c3b       ?OnServerMsgSetTeam@CXClient@@AAE_NAAVCStream@@@Z 33072c3b f   XClient.obj
 0001:00071d89       ?OnServerMsgRemoveTeam@CXClient@@AAE_NAAVCStream@@@Z 33072d89 f   XClient.obj
 0001:00071db1       ?OnServerMsgSetTeamScore@CXClient@@AAE_NAAVCStream@@@Z 33072db1 f   XClient.obj
 0001:00071eff       ?OnServerMsgSetTeamFlags@CXClient@@AAE_NAAVCStream@@@Z 33072eff f   XClient.obj
 0001:0007204b       ?OnServerMsgSetEntityState@CXClient@@AAE_NAAVCStream@@@Z 3307304b f   XClient.obj
 0001:000721d0       ?OnServerMsgBindEntity@CXClient@@AAE_NAAVCStream@@@Z 330731d0 f   XClient.obj
 0001:00072286       ?OnServerMsgSetPlayerScore@CXClient@@AAE_NAAVCStream@@@Z 33073286 f   XClient.obj
 0001:0007249e       ?OnServerMsgGameState@CXClient@@AAE_NAAVCStream@@@Z 3307349e f   XClient.obj
 0001:000724e3       ?OnServerMsgScoreBoard@CXClient@@AAE_NAAVCStream@@@Z 330734e3 f   XClient.obj
 0001:000725d6       ?OnServerMsgTimeStamp@CXClient@@AAE_NAAVCStream@@@Z 330735d6 f   XClient.obj
 0001:000726a7       ?OnServerMsgSyncAIState@CXClient@@AAE_NAAVCStream@@@Z 330736a7 f   XClient.obj
 0001:000726be       ?AddHudMessage@CXClient@@QAEXPBDM_N@Z 330736be f   XClient.obj
 0001:00072764       ?AddHudSubtitle@CXClient@@QAEXPBDM@Z 33073764 f   XClient.obj
 0001:000727f7       ?ResetSubtitles@CXClient@@QAEXXZ 330737f7 f   XClient.obj
 0001:0007286e       ?LoadingError@CXClient@@AAEXPBD@Z 3307386e f   XClient.obj
 0001:00072939       ?Init@CXClient@@QAE_NPAVCXGame@@_N@Z 33073939 f   XClient.obj
 0001:00072aa8       ?SendReliableMsg@CXClient@@QAEIEAAVCStream@@@Z 33073aa8 f   XClient.obj
 0001:00072b37       ?SendUnreliableMsg@CXClient@@QAEIEAAVCStream@@_N@Z 33073b37 f   XClient.obj
 0001:00072be0       ?OnServerMsgAddEntity@CXClient@@AAE_NAAVCStream@@@Z 33073be0 f   XClient.obj
 0001:00072d02       ?SendTextMessage@CXClient@@QAEXAAUTextMessage@@@Z 33073d02 f   XClient.obj
 0001:00072d69       ?SetBitsPerSecond@CXClient@@QAEXI@Z 33073d69 f   XClient.obj
 0001:00072de5       ?SetUpdateRate@CXClient@@QAEXI@Z 33073de5 f   XClient.obj
 0001:00072e61       ?SendCommand@CXClient@@QAEXPBD@Z 33073e61 f   XClient.obj
 0001:00072ebf       ?UpdateSound@CXClient@@AAEXM@Z 33073ebf f   XClient.obj
 0001:00072f8d       ?SendScriptHashResponse@CXClient@@QAEXI@Z 33073f8d f   XClient.obj
 0001:00072ffb       ?SendInputToServer@CXClient@@AAEX_N@Z 33073ffb f   XClient.obj
 0001:00073586       ?OnXConnect@CXClient@@UAEXXZ 33074586 f   XClient.obj
 0001:000735ce       ?OnMapChangedReally@CXClient@@QAEXXZ 330745ce f   XClient.obj
 0001:000737ea       ?OnServerMsgSetPlayer@CXClient@@AAE_NAAVCStream@@@Z 330747ea f   XClient.obj
 0001:00073a44       ?OnServerMsgRemoveEntity@CXClient@@AAE_NAAVCStream@@@Z 33074a44 f   XClient.obj
 0001:00073a9e       ?OnServerMsgUpdateEntity@CXClient@@AAE_NAAVCStream@@@Z 33074a9e f   XClient.obj
 0001:00073c50       ?SoundEvent@CXClient@@QAEXGAAU?$Vec3_tpl@M@@MM@Z 33074c50 f   XClient.obj
 0001:00073ef4       ??0CXClient@@QAE@XZ        33074ef4 f   XClient.obj
 0001:0007405d       ?XConnect@CXClient@@QAEXPBD_N1@Z 3307505d f   XClient.obj
 0001:000740a3       ?Update@CXClient@@QAEXXZ   330750a3 f   XClient.obj
 0001:00074624       ?RestoreServerSyncedVars@CXClient@@AAEXXZ 33075624 f   XClient.obj
 0001:000746de       ?OnXContextSetup@CXClient@@UAEXAAVCStream@@@Z 330756de f   XClient.obj
 0001:00074e28       ?OnServerMsgAddTeam@CXClient@@AAE_NAAVCStream@@@Z 33075e28 f   XClient.obj
 0001:00074f9e       ?OnServerMsgText@CXClient@@AAE_NAAVCStream@@@Z 33075f9e f   XClient.obj
 0001:000753bd       ?OnServerMsgSetEntityName@CXClient@@AAE_NAAVCStream@@@Z 330763bd f   XClient.obj
 0001:00075550       ?OnServerMsgCmd@CXClient@@AAE_NAAVCStream@@@Z 33076550 f   XClient.obj
 0001:000756eb       ?OnServerMsgClientString@CXClient@@AAE_NAAVCStream@@@Z 330766eb f   XClient.obj
 0001:00075713       ?OnServerMsgSyncVar@CXClient@@AAE_NAAVCStream@@@Z 33076713 f   XClient.obj
 0001:00075799       ??1CXClient@@EAE@XZ        33076799 f   XClient.obj
 0001:00075958       ?ParseIncomingStream@CXClient@@AAE_NAAVCStream@@@Z 33076958 f   XClient.obj
 0001:00075caf       ?OnXData@CXClient@@UAEXAAVCStream@@@Z 33076caf f   XClient.obj
 0001:00075cea       ??4CXEntityProcessingCmd@@QAEAAV0@ABV0@@Z 33076cea f i XClient.obj
 0001:00075d8e       ??$inrange@M@@YAHMMM@Z     33076d8e f i XClient.obj
 0001:00075dbb       ??$_Construct@USSoundInfo@@U1@@_STL@@YAXPAUSSoundInfo@@ABU1@@Z 33076dbb f i XClient.obj
 0001:00075dd1       ??$__copy@PAUSSoundInfo@@PAU1@H@_STL@@YAPAUSSoundInfo@@PAU1@00ABUrandom_access_iterator_tag@0@PAH@Z 33076dd1 f i XClient.obj
 0001:00075e00       ??0pe_status_timeslices@@QAE@XZ 33076e00 f i XClient.obj
 0001:00075e22       ?ReadPkd@CStream@@QAE_NAAE@Z 33076e22 f i XClient.obj
 0001:00075e61       ?ReadPkd@CStream@@QAE_NAAH@Z 33076e61 f i XClient.obj
 0001:00075eb2       ??1_HScriptFunction@@QAE@XZ 33076eb2 f i XClient.obj
 0001:00075ec9       ??4_HScriptFunction@@QAEAAV0@I@Z 33076ec9 f i XClient.obj
 0001:00075ee7       ?GetTickCount@CXClient@@QAEIXZ 33076ee7 f i XClient.obj
 0001:00075efd       ?erase@?$vector@PAUUIComboItem@@V?$allocator@PAUUIComboItem@@@_STL@@@_STL@@QAEPAPAUUIComboItem@@PAPAU3@@Z 33076efd f i UIComboBox.obj
 0001:00075efd       ?erase@?$vector@PAVCXArea@@V?$allocator@PAVCXArea@@@_STL@@@_STL@@QAEPAPAVCXArea@@PAPAV3@@Z 33076efd f i XArea.obj
 0001:00075efd       ?erase@?$vector@PAVCFlock@@V?$allocator@PAVCFlock@@@_STL@@@_STL@@QAEPAPAVCFlock@@PAPAV3@@Z 33076efd f i Flock.obj
 0001:00075efd       ?erase@?$vector@HV?$allocator@H@_STL@@@_STL@@QAEPAHPAH@Z 33076efd f i UIListView.obj
 0001:00075efd       ?erase@?$vector@PAUUIListItem@@V?$allocator@PAUUIListItem@@@_STL@@@_STL@@QAEPAPAUUIListItem@@PAPAU3@@Z 33076efd f i UIListView.obj
 0001:00075efd       ?erase@?$vector@PAVCUIWidget@@V?$allocator@PAVCUIWidget@@@_STL@@@_STL@@QAEPAPAVCUIWidget@@PAPAV3@@Z 33076efd f i UIScreen.obj
 0001:00075efd       ?erase@?$vector@IV?$allocator@I@_STL@@@_STL@@QAEPAIPAI@Z 33076efd f i XServer.obj
 0001:00075efd       ?erase@?$vector@PAVCUIScreen@@V?$allocator@PAVCUIScreen@@@_STL@@@_STL@@QAEPAPAVCUIScreen@@PAPAV3@@Z 33076efd f i UISystem.obj
 0001:00075efd       ?erase@?$vector@PAUIEntity@@V?$allocator@PAUIEntity@@@_STL@@@_STL@@QAEPAPAUIEntity@@PAPAU3@@Z 33076efd f i XClient.obj
 0001:00075f25       ??$__copy_ptrs@PAUSSoundInfo@@PAU1@@_STL@@YAPAUSSoundInfo@@PAU1@00ABU__false_type@0@@Z 33076f25 f i XClient.obj
 0001:00075f42       ?Read@CEntityDesc@@QAE_NPAUIBitStream@@AAVCStream@@@Z 33076f42 f i XClient.obj
 0001:000761e7       ?erase@?$vector@USSoundInfo@@V?$allocator@USSoundInfo@@@_STL@@@_STL@@QAEPAUSSoundInfo@@PAU3@@Z 330771e7 f i XClient.obj
 0001:00076216       ??$__uninitialized_fill_n@PAUSSoundInfo@@IU1@@_STL@@YAPAUSSoundInfo@@PAU1@IABU1@ABU__false_type@0@@Z 33077216 f i XClient.obj
 0001:0007623b       ?erase@?$vector@USSoundInfo@@V?$allocator@USSoundInfo@@@_STL@@@_STL@@QAEPAUSSoundInfo@@PAU3@0@Z 3307723b f i XClient.obj
 0001:00076261       ??1?$_Vector_base@USSoundInfo@@V?$allocator@USSoundInfo@@@_STL@@@_STL@@QAE@XZ 33077261 f i XClient.obj
 0001:00076279       ?_M_clear@?$vector@USSoundInfo@@V?$allocator@USSoundInfo@@@_STL@@@_STL@@IAEXXZ 33077279 f i XClient.obj
 0001:0007628d       ??1?$vector@USSoundInfo@@V?$allocator@USSoundInfo@@@_STL@@@_STL@@QAE@XZ 3307728d f i XClient.obj
 0001:00076292       ?_M_insert_overflow@?$vector@USSoundInfo@@V?$allocator@USSoundInfo@@@_STL@@@_STL@@IAEXPAUSSoundInfo@@ABU3@ABU__false_type@2@I_N@Z 33077292 f i XClient.obj
 0001:00076381       ?push_back@?$vector@USSoundInfo@@V?$allocator@USSoundInfo@@@_STL@@@_STL@@QAEXABUSSoundInfo@@@Z 33077381 f i XClient.obj
 0001:000763b8       ?OnAction@CXClient@@UAEXHMW4XActivationEvent@@@Z 330773b8 f i XClient.obj
 0001:0007671e       ??_ECXClient@@EAEPAXI@Z    3307771e f i XClient.obj
 0001:0007671e       ??_GCXClient@@EAEPAXI@Z    3307771e f i XClient.obj
 0001:0007673a       ?IsTimeToSend@CXClientSnapshot@@QAE_NM@Z 3307773a f   XClientSnapshot.obj
 0001:0007677c       ?SetSendPerSecond@CXClientSnapshot@@QAEXE@Z 3307777c f   XClientSnapshot.obj
 0001:00076792       ??1CXClientSnapshot@@QAE@XZ 33077792 f   XClientSnapshot.obj
 0001:000767cb       ?Reset@CXClientSnapshot@@QAEXXZ 330777cb f   XClientSnapshot.obj
 0001:000767e7       ??0CXClientSnapshot@@QAE@XZ 330777e7 f   XClientSnapshot.obj
 0001:0007684c       ?frand@@YAMXZ              3307784c f i BugsFlock.obj
 0001:0007686a       ??0CBoidBug@@QAE@AAUSBoidContext@@@Z 3307786a f   BugsFlock.obj
 0001:0007688a       ?UpdateBugsBehavior@CBoidBug@@AAEXMAAUSBoidContext@@@Z 3307788a f   BugsFlock.obj
 0001:00076a6f       ?UpdateDragonflyBehavior@CBoidBug@@AAEXMAAUSBoidContext@@@Z 33077a6f f   BugsFlock.obj
 0001:00076a83       ?UpdateFrogsBehavior@CBoidBug@@AAEXMAAUSBoidContext@@@Z 33077a83 f   BugsFlock.obj
 0001:00076dd3       ?Update@CBoidBug@@UAEXMAAUSBoidContext@@@Z 33077dd3 f   BugsFlock.obj
 0001:000771ef       ?Render@CBoidBug@@UAEXAAUSRendParams@@AAVCCamera@@AAUSBoidContext@@@Z 330781ef f   BugsFlock.obj
 0001:0007744d       ?PreloadInstanceResources@CBugsFlock@@UAEXU?$Vec3_tpl@M@@MM@Z 3307844d f   BugsFlock.obj
 0001:0007751f       ??0CBugsFlock@@QAE@HPAVCFlockManager@@@Z 3307851f f   BugsFlock.obj
 0001:0007754c       ?ReleaseObjects@CBugsFlock@@IAEXXZ 3307854c f   BugsFlock.obj
 0001:00077595       ??1CBugsFlock@@UAE@XZ      33078595 f   BugsFlock.obj
 0001:000775db       ?CreateBoids@CBugsFlock@@UAEXAAUSBoidsCreateContext@@@Z 330785db f   BugsFlock.obj
 0001:000778ea       ?Add@AABB@@QAEXABU?$Vec3_tpl@M@@@Z 330788ea f i BugsFlock.obj
 0001:0007797a       ??_ECBoidBug@@UAEPAXI@Z    3307897a f i BugsFlock.obj
 0001:0007797a       ??_GCBoidBug@@UAEPAXI@Z    3307897a f i BugsFlock.obj
 0001:00077996       ??1CBoidBug@@UAE@XZ        33078996 f i BugsFlock.obj
 0001:0007799b       ?IsSphereVisibleFast@CCamera@@QBE_NABUSphere@@@Z 3307899b f i BugsFlock.obj
 0001:000779d9       ?OnEntityNetworkUpdate@CGameObject@@UBEXABGABU?$Vec3_tpl@M@@AAIAAUEntityCloneState@@@Z 330789d9 f i BugsFlock.obj
 0001:000779dc       ?IsSaveable@CFlock@@UAE_NXZ 330789dc f i BugsFlock.obj
 0001:000779df       ?Write@CFlock@@UAE_NAAVCStream@@PAUEntityCloneState@@@Z 330789df f i BugsFlock.obj
 0001:000779e4       ?GetLightRadius@IEntityContainer@@UAEMXZ 330789e4 f i BugsFlock.obj
 0001:000779eb       ?CalcSoundPos@CGameObject@@UAE?AU?$Vec3_tpl@M@@XZ 330789eb f i BugsFlock.obj
 0001:00077a21       ??_GCBugsFlock@@UAEPAXI@Z  33078a21 f i BugsFlock.obj
 0001:00077a21       ??_ECBugsFlock@@UAEPAXI@Z  33078a21 f i BugsFlock.obj
 0001:00077a3d       ??1CAdvCamSystem@@UAE@XZ   33078a3d f i AdvCamSystem.obj
 0001:00077a3d       ??1CGameObject@@UAE@XZ     33078a3d f i Flock.obj
 0001:00077a44       ?SetEntity@CGameObject@@UAEXPAUIEntity@@@Z 33078a44 f i Flock.obj
 0001:00077a4e       ?Release@CGameObject@@UAEXXZ 33078a4e f i Flock.obj
 0001:00077a5a       ?QueryContainerInterface@CGameObject@@UAE_NW4ContainerInterfaceType@@PAPAX@Z 33078a5a f i Flock.obj
 0001:00077a66       ??1CBoidObject@@UAE@XZ     33078a66 f   Flock.obj
 0001:00077a89       ??1CBoidBird@@UAE@XZ       33078a89 f   Flock.obj
 0001:00077a94       ?OnFlockMove@CBoidBird@@UAEXAAUSBoidContext@@@Z 33078a94 f   Flock.obj
 0001:00077aa8       ?TakeOff@CBoidBird@@QAEXAAUSBoidContext@@@Z 33078aa8 f   Flock.obj
 0001:00077b14       ?SetName@CFlock@@QAEXPBD@Z 33078b14 f   Flock.obj
 0001:00077b2d       ?SetEnabled@CFlock@@QAEX_N@Z 33078b2d f   Flock.obj
 0001:00077b7e       ?SetPercentEnabled@CFlock@@QAEXH@Z 33078b7e f   Flock.obj
 0001:00077b99       ?SetEntity@CFlock@@UAEXPAUIEntity@@@Z 33078b99 f   Flock.obj
 0001:00077c0d       ?SetBoidSettings@CFlock@@QAEXAAUSBoidContext@@@Z 33078c0d f   Flock.obj
 0001:00077c57       ?Update@CFlockManager@@QAEXMAAU?$Vec3_tpl@M@@@Z 33078c57 f   Flock.obj
